
ECU2_Dashboard.elf:     file format elf32-littlearm

Sections:
Idx Name          Size      VMA       LMA       File off  Algn
  0 .isr_vector   00000130  08000000  08000000  00010000  2**0
                  CONTENTS, ALLOC, LOAD, READONLY, DATA
  1 .text         00004534  08000130  08000130  00010130  2**2
                  CONTENTS, ALLOC, LOAD, READONLY, CODE
  2 .rodata       00000424  08004664  08004664  00014664  2**2
                  CONTENTS, ALLOC, LOAD, READONLY, DATA
  3 .ARM.extab    00000000  08004a88  08004a88  00020084  2**0
                  CONTENTS
  4 .ARM          00000000  08004a88  08004a88  00020084  2**0
                  CONTENTS
  5 .preinit_array 00000000  08004a88  08004a88  00020084  2**0
                  CONTENTS, ALLOC, LOAD, DATA
  6 .init_array   00000004  08004a88  08004a88  00014a88  2**2
                  CONTENTS, ALLOC, LOAD, DATA
  7 .fini_array   00000004  08004a8c  08004a8c  00014a8c  2**2
                  CONTENTS, ALLOC, LOAD, DATA
  8 .data         00000084  20000000  08004a90  00020000  2**2
                  CONTENTS, ALLOC, LOAD, DATA
  9 .bss          00000130  20000084  08004b14  00020084  2**2
                  ALLOC
 10 ._user_heap_stack 00000604  200001b4  08004b14  000201b4  2**0
                  ALLOC
 11 .ARM.attributes 00000029  00000000  00000000  00020084  2**0
                  CONTENTS, READONLY
 12 .debug_info   00003576  00000000  00000000  000200ad  2**0
                  CONTENTS, READONLY, DEBUGGING
 13 .debug_abbrev 00000dd8  00000000  00000000  00023623  2**0
                  CONTENTS, READONLY, DEBUGGING
 14 .debug_loc    00001ffc  00000000  00000000  000243fb  2**0
                  CONTENTS, READONLY, DEBUGGING
 15 .debug_aranges 000004d0  00000000  00000000  000263f8  2**3
                  CONTENTS, READONLY, DEBUGGING
 16 .debug_ranges 00000440  00000000  00000000  000268c8  2**3
                  CONTENTS, READONLY, DEBUGGING
 17 .debug_macro  00001616  00000000  00000000  00026d08  2**0
                  CONTENTS, READONLY, DEBUGGING
 18 .debug_line   000025b6  00000000  00000000  0002831e  2**0
                  CONTENTS, READONLY, DEBUGGING
 19 .debug_str    00006d34  00000000  00000000  0002a8d4  2**0
                  CONTENTS, READONLY, DEBUGGING
 20 .comment      0000007b  00000000  00000000  00031608  2**0
                  CONTENTS, READONLY
 21 .debug_frame  000011e8  00000000  00000000  00031684  2**2
                  CONTENTS, READONLY, DEBUGGING

Disassembly of section .text:

08000130 <__do_global_dtors_aux>:
 8000130:	b510      	push	{r4, lr}
 8000132:	4c05      	ldr	r4, [pc, #20]	; (8000148 <__do_global_dtors_aux+0x18>)
 8000134:	7823      	ldrb	r3, [r4, #0]
 8000136:	b933      	cbnz	r3, 8000146 <__do_global_dtors_aux+0x16>
 8000138:	4b04      	ldr	r3, [pc, #16]	; (800014c <__do_global_dtors_aux+0x1c>)
 800013a:	b113      	cbz	r3, 8000142 <__do_global_dtors_aux+0x12>
 800013c:	4804      	ldr	r0, [pc, #16]	; (8000150 <__do_global_dtors_aux+0x20>)
 800013e:	f3af 8000 	nop.w
 8000142:	2301      	movs	r3, #1
 8000144:	7023      	strb	r3, [r4, #0]
 8000146:	bd10      	pop	{r4, pc}
 8000148:	20000084 	.word	0x20000084
 800014c:	00000000 	.word	0x00000000
 8000150:	0800464c 	.word	0x0800464c

08000154 <frame_dummy>:
 8000154:	b508      	push	{r3, lr}
 8000156:	4b03      	ldr	r3, [pc, #12]	; (8000164 <frame_dummy+0x10>)
 8000158:	b11b      	cbz	r3, 8000162 <frame_dummy+0xe>
 800015a:	4903      	ldr	r1, [pc, #12]	; (8000168 <frame_dummy+0x14>)
 800015c:	4803      	ldr	r0, [pc, #12]	; (800016c <frame_dummy+0x18>)
 800015e:	f3af 8000 	nop.w
 8000162:	bd08      	pop	{r3, pc}
 8000164:	00000000 	.word	0x00000000
 8000168:	20000088 	.word	0x20000088
 800016c:	0800464c 	.word	0x0800464c

08000170 <__aeabi_drsub>:
 8000170:	f081 4100 	eor.w	r1, r1, #2147483648	; 0x80000000
 8000174:	e002      	b.n	800017c <__adddf3>
 8000176:	bf00      	nop

08000178 <__aeabi_dsub>:
 8000178:	f083 4300 	eor.w	r3, r3, #2147483648	; 0x80000000

0800017c <__adddf3>:
 800017c:	b530      	push	{r4, r5, lr}
 800017e:	ea4f 0441 	mov.w	r4, r1, lsl #1
 8000182:	ea4f 0543 	mov.w	r5, r3, lsl #1
 8000186:	ea94 0f05 	teq	r4, r5
 800018a:	bf08      	it	eq
 800018c:	ea90 0f02 	teqeq	r0, r2
 8000190:	bf1f      	itttt	ne
 8000192:	ea54 0c00 	orrsne.w	ip, r4, r0
 8000196:	ea55 0c02 	orrsne.w	ip, r5, r2
 800019a:	ea7f 5c64 	mvnsne.w	ip, r4, asr #21
 800019e:	ea7f 5c65 	mvnsne.w	ip, r5, asr #21
 80001a2:	f000 80e2 	beq.w	800036a <__adddf3+0x1ee>
 80001a6:	ea4f 5454 	mov.w	r4, r4, lsr #21
 80001aa:	ebd4 5555 	rsbs	r5, r4, r5, lsr #21
 80001ae:	bfb8      	it	lt
 80001b0:	426d      	neglt	r5, r5
 80001b2:	dd0c      	ble.n	80001ce <__adddf3+0x52>
 80001b4:	442c      	add	r4, r5
 80001b6:	ea80 0202 	eor.w	r2, r0, r2
 80001ba:	ea81 0303 	eor.w	r3, r1, r3
 80001be:	ea82 0000 	eor.w	r0, r2, r0
 80001c2:	ea83 0101 	eor.w	r1, r3, r1
 80001c6:	ea80 0202 	eor.w	r2, r0, r2
 80001ca:	ea81 0303 	eor.w	r3, r1, r3
 80001ce:	2d36      	cmp	r5, #54	; 0x36
 80001d0:	bf88      	it	hi
 80001d2:	bd30      	pophi	{r4, r5, pc}
 80001d4:	f011 4f00 	tst.w	r1, #2147483648	; 0x80000000
 80001d8:	ea4f 3101 	mov.w	r1, r1, lsl #12
 80001dc:	f44f 1c80 	mov.w	ip, #1048576	; 0x100000
 80001e0:	ea4c 3111 	orr.w	r1, ip, r1, lsr #12
 80001e4:	d002      	beq.n	80001ec <__adddf3+0x70>
 80001e6:	4240      	negs	r0, r0
 80001e8:	eb61 0141 	sbc.w	r1, r1, r1, lsl #1
 80001ec:	f013 4f00 	tst.w	r3, #2147483648	; 0x80000000
 80001f0:	ea4f 3303 	mov.w	r3, r3, lsl #12
 80001f4:	ea4c 3313 	orr.w	r3, ip, r3, lsr #12
 80001f8:	d002      	beq.n	8000200 <__adddf3+0x84>
 80001fa:	4252      	negs	r2, r2
 80001fc:	eb63 0343 	sbc.w	r3, r3, r3, lsl #1
 8000200:	ea94 0f05 	teq	r4, r5
 8000204:	f000 80a7 	beq.w	8000356 <__adddf3+0x1da>
 8000208:	f1a4 0401 	sub.w	r4, r4, #1
 800020c:	f1d5 0e20 	rsbs	lr, r5, #32
 8000210:	db0d      	blt.n	800022e <__adddf3+0xb2>
 8000212:	fa02 fc0e 	lsl.w	ip, r2, lr
 8000216:	fa22 f205 	lsr.w	r2, r2, r5
 800021a:	1880      	adds	r0, r0, r2
 800021c:	f141 0100 	adc.w	r1, r1, #0
 8000220:	fa03 f20e 	lsl.w	r2, r3, lr
 8000224:	1880      	adds	r0, r0, r2
 8000226:	fa43 f305 	asr.w	r3, r3, r5
 800022a:	4159      	adcs	r1, r3
 800022c:	e00e      	b.n	800024c <__adddf3+0xd0>
 800022e:	f1a5 0520 	sub.w	r5, r5, #32
 8000232:	f10e 0e20 	add.w	lr, lr, #32
 8000236:	2a01      	cmp	r2, #1
 8000238:	fa03 fc0e 	lsl.w	ip, r3, lr
 800023c:	bf28      	it	cs
 800023e:	f04c 0c02 	orrcs.w	ip, ip, #2
 8000242:	fa43 f305 	asr.w	r3, r3, r5
 8000246:	18c0      	adds	r0, r0, r3
 8000248:	eb51 71e3 	adcs.w	r1, r1, r3, asr #31
 800024c:	f001 4500 	and.w	r5, r1, #2147483648	; 0x80000000
 8000250:	d507      	bpl.n	8000262 <__adddf3+0xe6>
 8000252:	f04f 0e00 	mov.w	lr, #0
 8000256:	f1dc 0c00 	rsbs	ip, ip, #0
 800025a:	eb7e 0000 	sbcs.w	r0, lr, r0
 800025e:	eb6e 0101 	sbc.w	r1, lr, r1
 8000262:	f5b1 1f80 	cmp.w	r1, #1048576	; 0x100000
 8000266:	d31b      	bcc.n	80002a0 <__adddf3+0x124>
 8000268:	f5b1 1f00 	cmp.w	r1, #2097152	; 0x200000
 800026c:	d30c      	bcc.n	8000288 <__adddf3+0x10c>
 800026e:	0849      	lsrs	r1, r1, #1
 8000270:	ea5f 0030 	movs.w	r0, r0, rrx
 8000274:	ea4f 0c3c 	mov.w	ip, ip, rrx
 8000278:	f104 0401 	add.w	r4, r4, #1
 800027c:	ea4f 5244 	mov.w	r2, r4, lsl #21
 8000280:	f512 0f80 	cmn.w	r2, #4194304	; 0x400000
 8000284:	f080 809a 	bcs.w	80003bc <__adddf3+0x240>
 8000288:	f1bc 4f00 	cmp.w	ip, #2147483648	; 0x80000000
 800028c:	bf08      	it	eq
 800028e:	ea5f 0c50 	movseq.w	ip, r0, lsr #1
 8000292:	f150 0000 	adcs.w	r0, r0, #0
 8000296:	eb41 5104 	adc.w	r1, r1, r4, lsl #20
 800029a:	ea41 0105 	orr.w	r1, r1, r5
 800029e:	bd30      	pop	{r4, r5, pc}
 80002a0:	ea5f 0c4c 	movs.w	ip, ip, lsl #1
 80002a4:	4140      	adcs	r0, r0
 80002a6:	eb41 0101 	adc.w	r1, r1, r1
 80002aa:	f411 1f80 	tst.w	r1, #1048576	; 0x100000
 80002ae:	f1a4 0401 	sub.w	r4, r4, #1
 80002b2:	d1e9      	bne.n	8000288 <__adddf3+0x10c>
 80002b4:	f091 0f00 	teq	r1, #0
 80002b8:	bf04      	itt	eq
 80002ba:	4601      	moveq	r1, r0
 80002bc:	2000      	moveq	r0, #0
 80002be:	fab1 f381 	clz	r3, r1
 80002c2:	bf08      	it	eq
 80002c4:	3320      	addeq	r3, #32
 80002c6:	f1a3 030b 	sub.w	r3, r3, #11
 80002ca:	f1b3 0220 	subs.w	r2, r3, #32
 80002ce:	da0c      	bge.n	80002ea <__adddf3+0x16e>
 80002d0:	320c      	adds	r2, #12
 80002d2:	dd08      	ble.n	80002e6 <__adddf3+0x16a>
 80002d4:	f102 0c14 	add.w	ip, r2, #20
 80002d8:	f1c2 020c 	rsb	r2, r2, #12
 80002dc:	fa01 f00c 	lsl.w	r0, r1, ip
 80002e0:	fa21 f102 	lsr.w	r1, r1, r2
 80002e4:	e00c      	b.n	8000300 <__adddf3+0x184>
 80002e6:	f102 0214 	add.w	r2, r2, #20
 80002ea:	bfd8      	it	le
 80002ec:	f1c2 0c20 	rsble	ip, r2, #32
 80002f0:	fa01 f102 	lsl.w	r1, r1, r2
 80002f4:	fa20 fc0c 	lsr.w	ip, r0, ip
 80002f8:	bfdc      	itt	le
 80002fa:	ea41 010c 	orrle.w	r1, r1, ip
 80002fe:	4090      	lslle	r0, r2
 8000300:	1ae4      	subs	r4, r4, r3
 8000302:	bfa2      	ittt	ge
 8000304:	eb01 5104 	addge.w	r1, r1, r4, lsl #20
 8000308:	4329      	orrge	r1, r5
 800030a:	bd30      	popge	{r4, r5, pc}
 800030c:	ea6f 0404 	mvn.w	r4, r4
 8000310:	3c1f      	subs	r4, #31
 8000312:	da1c      	bge.n	800034e <__adddf3+0x1d2>
 8000314:	340c      	adds	r4, #12
 8000316:	dc0e      	bgt.n	8000336 <__adddf3+0x1ba>
 8000318:	f104 0414 	add.w	r4, r4, #20
 800031c:	f1c4 0220 	rsb	r2, r4, #32
 8000320:	fa20 f004 	lsr.w	r0, r0, r4
 8000324:	fa01 f302 	lsl.w	r3, r1, r2
 8000328:	ea40 0003 	orr.w	r0, r0, r3
 800032c:	fa21 f304 	lsr.w	r3, r1, r4
 8000330:	ea45 0103 	orr.w	r1, r5, r3
 8000334:	bd30      	pop	{r4, r5, pc}
 8000336:	f1c4 040c 	rsb	r4, r4, #12
 800033a:	f1c4 0220 	rsb	r2, r4, #32
 800033e:	fa20 f002 	lsr.w	r0, r0, r2
 8000342:	fa01 f304 	lsl.w	r3, r1, r4
 8000346:	ea40 0003 	orr.w	r0, r0, r3
 800034a:	4629      	mov	r1, r5
 800034c:	bd30      	pop	{r4, r5, pc}
 800034e:	fa21 f004 	lsr.w	r0, r1, r4
 8000352:	4629      	mov	r1, r5
 8000354:	bd30      	pop	{r4, r5, pc}
 8000356:	f094 0f00 	teq	r4, #0
 800035a:	f483 1380 	eor.w	r3, r3, #1048576	; 0x100000
 800035e:	bf06      	itte	eq
 8000360:	f481 1180 	eoreq.w	r1, r1, #1048576	; 0x100000
 8000364:	3401      	addeq	r4, #1
 8000366:	3d01      	subne	r5, #1
 8000368:	e74e      	b.n	8000208 <__adddf3+0x8c>
 800036a:	ea7f 5c64 	mvns.w	ip, r4, asr #21
 800036e:	bf18      	it	ne
 8000370:	ea7f 5c65 	mvnsne.w	ip, r5, asr #21
 8000374:	d029      	beq.n	80003ca <__adddf3+0x24e>
 8000376:	ea94 0f05 	teq	r4, r5
 800037a:	bf08      	it	eq
 800037c:	ea90 0f02 	teqeq	r0, r2
 8000380:	d005      	beq.n	800038e <__adddf3+0x212>
 8000382:	ea54 0c00 	orrs.w	ip, r4, r0
 8000386:	bf04      	itt	eq
 8000388:	4619      	moveq	r1, r3
 800038a:	4610      	moveq	r0, r2
 800038c:	bd30      	pop	{r4, r5, pc}
 800038e:	ea91 0f03 	teq	r1, r3
 8000392:	bf1e      	ittt	ne
 8000394:	2100      	movne	r1, #0
 8000396:	2000      	movne	r0, #0
 8000398:	bd30      	popne	{r4, r5, pc}
 800039a:	ea5f 5c54 	movs.w	ip, r4, lsr #21
 800039e:	d105      	bne.n	80003ac <__adddf3+0x230>
 80003a0:	0040      	lsls	r0, r0, #1
 80003a2:	4149      	adcs	r1, r1
 80003a4:	bf28      	it	cs
 80003a6:	f041 4100 	orrcs.w	r1, r1, #2147483648	; 0x80000000
 80003aa:	bd30      	pop	{r4, r5, pc}
 80003ac:	f514 0480 	adds.w	r4, r4, #4194304	; 0x400000
 80003b0:	bf3c      	itt	cc
 80003b2:	f501 1180 	addcc.w	r1, r1, #1048576	; 0x100000
 80003b6:	bd30      	popcc	{r4, r5, pc}
 80003b8:	f001 4500 	and.w	r5, r1, #2147483648	; 0x80000000
 80003bc:	f045 41fe 	orr.w	r1, r5, #2130706432	; 0x7f000000
 80003c0:	f441 0170 	orr.w	r1, r1, #15728640	; 0xf00000
 80003c4:	f04f 0000 	mov.w	r0, #0
 80003c8:	bd30      	pop	{r4, r5, pc}
 80003ca:	ea7f 5c64 	mvns.w	ip, r4, asr #21
 80003ce:	bf1a      	itte	ne
 80003d0:	4619      	movne	r1, r3
 80003d2:	4610      	movne	r0, r2
 80003d4:	ea7f 5c65 	mvnseq.w	ip, r5, asr #21
 80003d8:	bf1c      	itt	ne
 80003da:	460b      	movne	r3, r1
 80003dc:	4602      	movne	r2, r0
 80003de:	ea50 3401 	orrs.w	r4, r0, r1, lsl #12
 80003e2:	bf06      	itte	eq
 80003e4:	ea52 3503 	orrseq.w	r5, r2, r3, lsl #12
 80003e8:	ea91 0f03 	teqeq	r1, r3
 80003ec:	f441 2100 	orrne.w	r1, r1, #524288	; 0x80000
 80003f0:	bd30      	pop	{r4, r5, pc}
 80003f2:	bf00      	nop

080003f4 <__aeabi_ui2d>:
 80003f4:	f090 0f00 	teq	r0, #0
 80003f8:	bf04      	itt	eq
 80003fa:	2100      	moveq	r1, #0
 80003fc:	4770      	bxeq	lr
 80003fe:	b530      	push	{r4, r5, lr}
 8000400:	f44f 6480 	mov.w	r4, #1024	; 0x400
 8000404:	f104 0432 	add.w	r4, r4, #50	; 0x32
 8000408:	f04f 0500 	mov.w	r5, #0
 800040c:	f04f 0100 	mov.w	r1, #0
 8000410:	e750      	b.n	80002b4 <__adddf3+0x138>
 8000412:	bf00      	nop

08000414 <__aeabi_i2d>:
 8000414:	f090 0f00 	teq	r0, #0
 8000418:	bf04      	itt	eq
 800041a:	2100      	moveq	r1, #0
 800041c:	4770      	bxeq	lr
 800041e:	b530      	push	{r4, r5, lr}
 8000420:	f44f 6480 	mov.w	r4, #1024	; 0x400
 8000424:	f104 0432 	add.w	r4, r4, #50	; 0x32
 8000428:	f010 4500 	ands.w	r5, r0, #2147483648	; 0x80000000
 800042c:	bf48      	it	mi
 800042e:	4240      	negmi	r0, r0
 8000430:	f04f 0100 	mov.w	r1, #0
 8000434:	e73e      	b.n	80002b4 <__adddf3+0x138>
 8000436:	bf00      	nop

08000438 <__aeabi_f2d>:
 8000438:	0042      	lsls	r2, r0, #1
 800043a:	ea4f 01e2 	mov.w	r1, r2, asr #3
 800043e:	ea4f 0131 	mov.w	r1, r1, rrx
 8000442:	ea4f 7002 	mov.w	r0, r2, lsl #28
 8000446:	bf1f      	itttt	ne
 8000448:	f012 437f 	andsne.w	r3, r2, #4278190080	; 0xff000000
 800044c:	f093 4f7f 	teqne	r3, #4278190080	; 0xff000000
 8000450:	f081 5160 	eorne.w	r1, r1, #939524096	; 0x38000000
 8000454:	4770      	bxne	lr
 8000456:	f032 427f 	bics.w	r2, r2, #4278190080	; 0xff000000
 800045a:	bf08      	it	eq
 800045c:	4770      	bxeq	lr
 800045e:	f093 4f7f 	teq	r3, #4278190080	; 0xff000000
 8000462:	bf04      	itt	eq
 8000464:	f441 2100 	orreq.w	r1, r1, #524288	; 0x80000
 8000468:	4770      	bxeq	lr
 800046a:	b530      	push	{r4, r5, lr}
 800046c:	f44f 7460 	mov.w	r4, #896	; 0x380
 8000470:	f001 4500 	and.w	r5, r1, #2147483648	; 0x80000000
 8000474:	f021 4100 	bic.w	r1, r1, #2147483648	; 0x80000000
 8000478:	e71c      	b.n	80002b4 <__adddf3+0x138>
 800047a:	bf00      	nop

0800047c <__aeabi_ul2d>:
 800047c:	ea50 0201 	orrs.w	r2, r0, r1
 8000480:	bf08      	it	eq
 8000482:	4770      	bxeq	lr
 8000484:	b530      	push	{r4, r5, lr}
 8000486:	f04f 0500 	mov.w	r5, #0
 800048a:	e00a      	b.n	80004a2 <__aeabi_l2d+0x16>

0800048c <__aeabi_l2d>:
 800048c:	ea50 0201 	orrs.w	r2, r0, r1
 8000490:	bf08      	it	eq
 8000492:	4770      	bxeq	lr
 8000494:	b530      	push	{r4, r5, lr}
 8000496:	f011 4500 	ands.w	r5, r1, #2147483648	; 0x80000000
 800049a:	d502      	bpl.n	80004a2 <__aeabi_l2d+0x16>
 800049c:	4240      	negs	r0, r0
 800049e:	eb61 0141 	sbc.w	r1, r1, r1, lsl #1
 80004a2:	f44f 6480 	mov.w	r4, #1024	; 0x400
 80004a6:	f104 0432 	add.w	r4, r4, #50	; 0x32
 80004aa:	ea5f 5c91 	movs.w	ip, r1, lsr #22
 80004ae:	f43f aed8 	beq.w	8000262 <__adddf3+0xe6>
 80004b2:	f04f 0203 	mov.w	r2, #3
 80004b6:	ea5f 0cdc 	movs.w	ip, ip, lsr #3
 80004ba:	bf18      	it	ne
 80004bc:	3203      	addne	r2, #3
 80004be:	ea5f 0cdc 	movs.w	ip, ip, lsr #3
 80004c2:	bf18      	it	ne
 80004c4:	3203      	addne	r2, #3
 80004c6:	eb02 02dc 	add.w	r2, r2, ip, lsr #3
 80004ca:	f1c2 0320 	rsb	r3, r2, #32
 80004ce:	fa00 fc03 	lsl.w	ip, r0, r3
 80004d2:	fa20 f002 	lsr.w	r0, r0, r2
 80004d6:	fa01 fe03 	lsl.w	lr, r1, r3
 80004da:	ea40 000e 	orr.w	r0, r0, lr
 80004de:	fa21 f102 	lsr.w	r1, r1, r2
 80004e2:	4414      	add	r4, r2
 80004e4:	e6bd      	b.n	8000262 <__adddf3+0xe6>
 80004e6:	bf00      	nop

080004e8 <__aeabi_dmul>:
 80004e8:	b570      	push	{r4, r5, r6, lr}
 80004ea:	f04f 0cff 	mov.w	ip, #255	; 0xff
 80004ee:	f44c 6ce0 	orr.w	ip, ip, #1792	; 0x700
 80004f2:	ea1c 5411 	ands.w	r4, ip, r1, lsr #20
 80004f6:	bf1d      	ittte	ne
 80004f8:	ea1c 5513 	andsne.w	r5, ip, r3, lsr #20
 80004fc:	ea94 0f0c 	teqne	r4, ip
 8000500:	ea95 0f0c 	teqne	r5, ip
 8000504:	f000 f8de 	bleq	80006c4 <__aeabi_dmul+0x1dc>
 8000508:	442c      	add	r4, r5
 800050a:	ea81 0603 	eor.w	r6, r1, r3
 800050e:	ea21 514c 	bic.w	r1, r1, ip, lsl #21
 8000512:	ea23 534c 	bic.w	r3, r3, ip, lsl #21
 8000516:	ea50 3501 	orrs.w	r5, r0, r1, lsl #12
 800051a:	bf18      	it	ne
 800051c:	ea52 3503 	orrsne.w	r5, r2, r3, lsl #12
 8000520:	f441 1180 	orr.w	r1, r1, #1048576	; 0x100000
 8000524:	f443 1380 	orr.w	r3, r3, #1048576	; 0x100000
 8000528:	d038      	beq.n	800059c <__aeabi_dmul+0xb4>
 800052a:	fba0 ce02 	umull	ip, lr, r0, r2
 800052e:	f04f 0500 	mov.w	r5, #0
 8000532:	fbe1 e502 	umlal	lr, r5, r1, r2
 8000536:	f006 4200 	and.w	r2, r6, #2147483648	; 0x80000000
 800053a:	fbe0 e503 	umlal	lr, r5, r0, r3
 800053e:	f04f 0600 	mov.w	r6, #0
 8000542:	fbe1 5603 	umlal	r5, r6, r1, r3
 8000546:	f09c 0f00 	teq	ip, #0
 800054a:	bf18      	it	ne
 800054c:	f04e 0e01 	orrne.w	lr, lr, #1
 8000550:	f1a4 04ff 	sub.w	r4, r4, #255	; 0xff
 8000554:	f5b6 7f00 	cmp.w	r6, #512	; 0x200
 8000558:	f564 7440 	sbc.w	r4, r4, #768	; 0x300
 800055c:	d204      	bcs.n	8000568 <__aeabi_dmul+0x80>
 800055e:	ea5f 0e4e 	movs.w	lr, lr, lsl #1
 8000562:	416d      	adcs	r5, r5
 8000564:	eb46 0606 	adc.w	r6, r6, r6
 8000568:	ea42 21c6 	orr.w	r1, r2, r6, lsl #11
 800056c:	ea41 5155 	orr.w	r1, r1, r5, lsr #21
 8000570:	ea4f 20c5 	mov.w	r0, r5, lsl #11
 8000574:	ea40 505e 	orr.w	r0, r0, lr, lsr #21
 8000578:	ea4f 2ece 	mov.w	lr, lr, lsl #11
 800057c:	f1b4 0cfd 	subs.w	ip, r4, #253	; 0xfd
 8000580:	bf88      	it	hi
 8000582:	f5bc 6fe0 	cmphi.w	ip, #1792	; 0x700
 8000586:	d81e      	bhi.n	80005c6 <__aeabi_dmul+0xde>
 8000588:	f1be 4f00 	cmp.w	lr, #2147483648	; 0x80000000
 800058c:	bf08      	it	eq
 800058e:	ea5f 0e50 	movseq.w	lr, r0, lsr #1
 8000592:	f150 0000 	adcs.w	r0, r0, #0
 8000596:	eb41 5104 	adc.w	r1, r1, r4, lsl #20
 800059a:	bd70      	pop	{r4, r5, r6, pc}
 800059c:	f006 4600 	and.w	r6, r6, #2147483648	; 0x80000000
 80005a0:	ea46 0101 	orr.w	r1, r6, r1
 80005a4:	ea40 0002 	orr.w	r0, r0, r2
 80005a8:	ea81 0103 	eor.w	r1, r1, r3
 80005ac:	ebb4 045c 	subs.w	r4, r4, ip, lsr #1
 80005b0:	bfc2      	ittt	gt
 80005b2:	ebd4 050c 	rsbsgt	r5, r4, ip
 80005b6:	ea41 5104 	orrgt.w	r1, r1, r4, lsl #20
 80005ba:	bd70      	popgt	{r4, r5, r6, pc}
 80005bc:	f441 1180 	orr.w	r1, r1, #1048576	; 0x100000
 80005c0:	f04f 0e00 	mov.w	lr, #0
 80005c4:	3c01      	subs	r4, #1
 80005c6:	f300 80ab 	bgt.w	8000720 <__aeabi_dmul+0x238>
 80005ca:	f114 0f36 	cmn.w	r4, #54	; 0x36
 80005ce:	bfde      	ittt	le
 80005d0:	2000      	movle	r0, #0
 80005d2:	f001 4100 	andle.w	r1, r1, #2147483648	; 0x80000000
 80005d6:	bd70      	pople	{r4, r5, r6, pc}
 80005d8:	f1c4 0400 	rsb	r4, r4, #0
 80005dc:	3c20      	subs	r4, #32
 80005de:	da35      	bge.n	800064c <__aeabi_dmul+0x164>
 80005e0:	340c      	adds	r4, #12
 80005e2:	dc1b      	bgt.n	800061c <__aeabi_dmul+0x134>
 80005e4:	f104 0414 	add.w	r4, r4, #20
 80005e8:	f1c4 0520 	rsb	r5, r4, #32
 80005ec:	fa00 f305 	lsl.w	r3, r0, r5
 80005f0:	fa20 f004 	lsr.w	r0, r0, r4
 80005f4:	fa01 f205 	lsl.w	r2, r1, r5
 80005f8:	ea40 0002 	orr.w	r0, r0, r2
 80005fc:	f001 4200 	and.w	r2, r1, #2147483648	; 0x80000000
 8000600:	f021 4100 	bic.w	r1, r1, #2147483648	; 0x80000000
 8000604:	eb10 70d3 	adds.w	r0, r0, r3, lsr #31
 8000608:	fa21 f604 	lsr.w	r6, r1, r4
 800060c:	eb42 0106 	adc.w	r1, r2, r6
 8000610:	ea5e 0e43 	orrs.w	lr, lr, r3, lsl #1
 8000614:	bf08      	it	eq
 8000616:	ea20 70d3 	biceq.w	r0, r0, r3, lsr #31
 800061a:	bd70      	pop	{r4, r5, r6, pc}
 800061c:	f1c4 040c 	rsb	r4, r4, #12
 8000620:	f1c4 0520 	rsb	r5, r4, #32
 8000624:	fa00 f304 	lsl.w	r3, r0, r4
 8000628:	fa20 f005 	lsr.w	r0, r0, r5
 800062c:	fa01 f204 	lsl.w	r2, r1, r4
 8000630:	ea40 0002 	orr.w	r0, r0, r2
 8000634:	f001 4100 	and.w	r1, r1, #2147483648	; 0x80000000
 8000638:	eb10 70d3 	adds.w	r0, r0, r3, lsr #31
 800063c:	f141 0100 	adc.w	r1, r1, #0
 8000640:	ea5e 0e43 	orrs.w	lr, lr, r3, lsl #1
 8000644:	bf08      	it	eq
 8000646:	ea20 70d3 	biceq.w	r0, r0, r3, lsr #31
 800064a:	bd70      	pop	{r4, r5, r6, pc}
 800064c:	f1c4 0520 	rsb	r5, r4, #32
 8000650:	fa00 f205 	lsl.w	r2, r0, r5
 8000654:	ea4e 0e02 	orr.w	lr, lr, r2
 8000658:	fa20 f304 	lsr.w	r3, r0, r4
 800065c:	fa01 f205 	lsl.w	r2, r1, r5
 8000660:	ea43 0302 	orr.w	r3, r3, r2
 8000664:	fa21 f004 	lsr.w	r0, r1, r4
 8000668:	f001 4100 	and.w	r1, r1, #2147483648	; 0x80000000
 800066c:	fa21 f204 	lsr.w	r2, r1, r4
 8000670:	ea20 0002 	bic.w	r0, r0, r2
 8000674:	eb00 70d3 	add.w	r0, r0, r3, lsr #31
 8000678:	ea5e 0e43 	orrs.w	lr, lr, r3, lsl #1
 800067c:	bf08      	it	eq
 800067e:	ea20 70d3 	biceq.w	r0, r0, r3, lsr #31
 8000682:	bd70      	pop	{r4, r5, r6, pc}
 8000684:	f094 0f00 	teq	r4, #0
 8000688:	d10f      	bne.n	80006aa <__aeabi_dmul+0x1c2>
 800068a:	f001 4600 	and.w	r6, r1, #2147483648	; 0x80000000
 800068e:	0040      	lsls	r0, r0, #1
 8000690:	eb41 0101 	adc.w	r1, r1, r1
 8000694:	f411 1f80 	tst.w	r1, #1048576	; 0x100000
 8000698:	bf08      	it	eq
 800069a:	3c01      	subeq	r4, #1
 800069c:	d0f7      	beq.n	800068e <__aeabi_dmul+0x1a6>
 800069e:	ea41 0106 	orr.w	r1, r1, r6
 80006a2:	f095 0f00 	teq	r5, #0
 80006a6:	bf18      	it	ne
 80006a8:	4770      	bxne	lr
 80006aa:	f003 4600 	and.w	r6, r3, #2147483648	; 0x80000000
 80006ae:	0052      	lsls	r2, r2, #1
 80006b0:	eb43 0303 	adc.w	r3, r3, r3
 80006b4:	f413 1f80 	tst.w	r3, #1048576	; 0x100000
 80006b8:	bf08      	it	eq
 80006ba:	3d01      	subeq	r5, #1
 80006bc:	d0f7      	beq.n	80006ae <__aeabi_dmul+0x1c6>
 80006be:	ea43 0306 	orr.w	r3, r3, r6
 80006c2:	4770      	bx	lr
 80006c4:	ea94 0f0c 	teq	r4, ip
 80006c8:	ea0c 5513 	and.w	r5, ip, r3, lsr #20
 80006cc:	bf18      	it	ne
 80006ce:	ea95 0f0c 	teqne	r5, ip
 80006d2:	d00c      	beq.n	80006ee <__aeabi_dmul+0x206>
 80006d4:	ea50 0641 	orrs.w	r6, r0, r1, lsl #1
 80006d8:	bf18      	it	ne
 80006da:	ea52 0643 	orrsne.w	r6, r2, r3, lsl #1
 80006de:	d1d1      	bne.n	8000684 <__aeabi_dmul+0x19c>
 80006e0:	ea81 0103 	eor.w	r1, r1, r3
 80006e4:	f001 4100 	and.w	r1, r1, #2147483648	; 0x80000000
 80006e8:	f04f 0000 	mov.w	r0, #0
 80006ec:	bd70      	pop	{r4, r5, r6, pc}
 80006ee:	ea50 0641 	orrs.w	r6, r0, r1, lsl #1
 80006f2:	bf06      	itte	eq
 80006f4:	4610      	moveq	r0, r2
 80006f6:	4619      	moveq	r1, r3
 80006f8:	ea52 0643 	orrsne.w	r6, r2, r3, lsl #1
 80006fc:	d019      	beq.n	8000732 <__aeabi_dmul+0x24a>
 80006fe:	ea94 0f0c 	teq	r4, ip
 8000702:	d102      	bne.n	800070a <__aeabi_dmul+0x222>
 8000704:	ea50 3601 	orrs.w	r6, r0, r1, lsl #12
 8000708:	d113      	bne.n	8000732 <__aeabi_dmul+0x24a>
 800070a:	ea95 0f0c 	teq	r5, ip
 800070e:	d105      	bne.n	800071c <__aeabi_dmul+0x234>
 8000710:	ea52 3603 	orrs.w	r6, r2, r3, lsl #12
 8000714:	bf1c      	itt	ne
 8000716:	4610      	movne	r0, r2
 8000718:	4619      	movne	r1, r3
 800071a:	d10a      	bne.n	8000732 <__aeabi_dmul+0x24a>
 800071c:	ea81 0103 	eor.w	r1, r1, r3
 8000720:	f001 4100 	and.w	r1, r1, #2147483648	; 0x80000000
 8000724:	f041 41fe 	orr.w	r1, r1, #2130706432	; 0x7f000000
 8000728:	f441 0170 	orr.w	r1, r1, #15728640	; 0xf00000
 800072c:	f04f 0000 	mov.w	r0, #0
 8000730:	bd70      	pop	{r4, r5, r6, pc}
 8000732:	f041 41fe 	orr.w	r1, r1, #2130706432	; 0x7f000000
 8000736:	f441 0178 	orr.w	r1, r1, #16252928	; 0xf80000
 800073a:	bd70      	pop	{r4, r5, r6, pc}

0800073c <__aeabi_ddiv>:
 800073c:	b570      	push	{r4, r5, r6, lr}
 800073e:	f04f 0cff 	mov.w	ip, #255	; 0xff
 8000742:	f44c 6ce0 	orr.w	ip, ip, #1792	; 0x700
 8000746:	ea1c 5411 	ands.w	r4, ip, r1, lsr #20
 800074a:	bf1d      	ittte	ne
 800074c:	ea1c 5513 	andsne.w	r5, ip, r3, lsr #20
 8000750:	ea94 0f0c 	teqne	r4, ip
 8000754:	ea95 0f0c 	teqne	r5, ip
 8000758:	f000 f8a7 	bleq	80008aa <__aeabi_ddiv+0x16e>
 800075c:	eba4 0405 	sub.w	r4, r4, r5
 8000760:	ea81 0e03 	eor.w	lr, r1, r3
 8000764:	ea52 3503 	orrs.w	r5, r2, r3, lsl #12
 8000768:	ea4f 3101 	mov.w	r1, r1, lsl #12
 800076c:	f000 8088 	beq.w	8000880 <__aeabi_ddiv+0x144>
 8000770:	ea4f 3303 	mov.w	r3, r3, lsl #12
 8000774:	f04f 5580 	mov.w	r5, #268435456	; 0x10000000
 8000778:	ea45 1313 	orr.w	r3, r5, r3, lsr #4
 800077c:	ea43 6312 	orr.w	r3, r3, r2, lsr #24
 8000780:	ea4f 2202 	mov.w	r2, r2, lsl #8
 8000784:	ea45 1511 	orr.w	r5, r5, r1, lsr #4
 8000788:	ea45 6510 	orr.w	r5, r5, r0, lsr #24
 800078c:	ea4f 2600 	mov.w	r6, r0, lsl #8
 8000790:	f00e 4100 	and.w	r1, lr, #2147483648	; 0x80000000
 8000794:	429d      	cmp	r5, r3
 8000796:	bf08      	it	eq
 8000798:	4296      	cmpeq	r6, r2
 800079a:	f144 04fd 	adc.w	r4, r4, #253	; 0xfd
 800079e:	f504 7440 	add.w	r4, r4, #768	; 0x300
 80007a2:	d202      	bcs.n	80007aa <__aeabi_ddiv+0x6e>
 80007a4:	085b      	lsrs	r3, r3, #1
 80007a6:	ea4f 0232 	mov.w	r2, r2, rrx
 80007aa:	1ab6      	subs	r6, r6, r2
 80007ac:	eb65 0503 	sbc.w	r5, r5, r3
 80007b0:	085b      	lsrs	r3, r3, #1
 80007b2:	ea4f 0232 	mov.w	r2, r2, rrx
 80007b6:	f44f 1080 	mov.w	r0, #1048576	; 0x100000
 80007ba:	f44f 2c00 	mov.w	ip, #524288	; 0x80000
 80007be:	ebb6 0e02 	subs.w	lr, r6, r2
 80007c2:	eb75 0e03 	sbcs.w	lr, r5, r3
 80007c6:	bf22      	ittt	cs
 80007c8:	1ab6      	subcs	r6, r6, r2
 80007ca:	4675      	movcs	r5, lr
 80007cc:	ea40 000c 	orrcs.w	r0, r0, ip
 80007d0:	085b      	lsrs	r3, r3, #1
 80007d2:	ea4f 0232 	mov.w	r2, r2, rrx
 80007d6:	ebb6 0e02 	subs.w	lr, r6, r2
 80007da:	eb75 0e03 	sbcs.w	lr, r5, r3
 80007de:	bf22      	ittt	cs
 80007e0:	1ab6      	subcs	r6, r6, r2
 80007e2:	4675      	movcs	r5, lr
 80007e4:	ea40 005c 	orrcs.w	r0, r0, ip, lsr #1
 80007e8:	085b      	lsrs	r3, r3, #1
 80007ea:	ea4f 0232 	mov.w	r2, r2, rrx
 80007ee:	ebb6 0e02 	subs.w	lr, r6, r2
 80007f2:	eb75 0e03 	sbcs.w	lr, r5, r3
 80007f6:	bf22      	ittt	cs
 80007f8:	1ab6      	subcs	r6, r6, r2
 80007fa:	4675      	movcs	r5, lr
 80007fc:	ea40 009c 	orrcs.w	r0, r0, ip, lsr #2
 8000800:	085b      	lsrs	r3, r3, #1
 8000802:	ea4f 0232 	mov.w	r2, r2, rrx
 8000806:	ebb6 0e02 	subs.w	lr, r6, r2
 800080a:	eb75 0e03 	sbcs.w	lr, r5, r3
 800080e:	bf22      	ittt	cs
 8000810:	1ab6      	subcs	r6, r6, r2
 8000812:	4675      	movcs	r5, lr
 8000814:	ea40 00dc 	orrcs.w	r0, r0, ip, lsr #3
 8000818:	ea55 0e06 	orrs.w	lr, r5, r6
 800081c:	d018      	beq.n	8000850 <__aeabi_ddiv+0x114>
 800081e:	ea4f 1505 	mov.w	r5, r5, lsl #4
 8000822:	ea45 7516 	orr.w	r5, r5, r6, lsr #28
 8000826:	ea4f 1606 	mov.w	r6, r6, lsl #4
 800082a:	ea4f 03c3 	mov.w	r3, r3, lsl #3
 800082e:	ea43 7352 	orr.w	r3, r3, r2, lsr #29
 8000832:	ea4f 02c2 	mov.w	r2, r2, lsl #3
 8000836:	ea5f 1c1c 	movs.w	ip, ip, lsr #4
 800083a:	d1c0      	bne.n	80007be <__aeabi_ddiv+0x82>
 800083c:	f411 1f80 	tst.w	r1, #1048576	; 0x100000
 8000840:	d10b      	bne.n	800085a <__aeabi_ddiv+0x11e>
 8000842:	ea41 0100 	orr.w	r1, r1, r0
 8000846:	f04f 0000 	mov.w	r0, #0
 800084a:	f04f 4c00 	mov.w	ip, #2147483648	; 0x80000000
 800084e:	e7b6      	b.n	80007be <__aeabi_ddiv+0x82>
 8000850:	f411 1f80 	tst.w	r1, #1048576	; 0x100000
 8000854:	bf04      	itt	eq
 8000856:	4301      	orreq	r1, r0
 8000858:	2000      	moveq	r0, #0
 800085a:	f1b4 0cfd 	subs.w	ip, r4, #253	; 0xfd
 800085e:	bf88      	it	hi
 8000860:	f5bc 6fe0 	cmphi.w	ip, #1792	; 0x700
 8000864:	f63f aeaf 	bhi.w	80005c6 <__aeabi_dmul+0xde>
 8000868:	ebb5 0c03 	subs.w	ip, r5, r3
 800086c:	bf04      	itt	eq
 800086e:	ebb6 0c02 	subseq.w	ip, r6, r2
 8000872:	ea5f 0c50 	movseq.w	ip, r0, lsr #1
 8000876:	f150 0000 	adcs.w	r0, r0, #0
 800087a:	eb41 5104 	adc.w	r1, r1, r4, lsl #20
 800087e:	bd70      	pop	{r4, r5, r6, pc}
 8000880:	f00e 4e00 	and.w	lr, lr, #2147483648	; 0x80000000
 8000884:	ea4e 3111 	orr.w	r1, lr, r1, lsr #12
 8000888:	eb14 045c 	adds.w	r4, r4, ip, lsr #1
 800088c:	bfc2      	ittt	gt
 800088e:	ebd4 050c 	rsbsgt	r5, r4, ip
 8000892:	ea41 5104 	orrgt.w	r1, r1, r4, lsl #20
 8000896:	bd70      	popgt	{r4, r5, r6, pc}
 8000898:	f441 1180 	orr.w	r1, r1, #1048576	; 0x100000
 800089c:	f04f 0e00 	mov.w	lr, #0
 80008a0:	3c01      	subs	r4, #1
 80008a2:	e690      	b.n	80005c6 <__aeabi_dmul+0xde>
 80008a4:	ea45 0e06 	orr.w	lr, r5, r6
 80008a8:	e68d      	b.n	80005c6 <__aeabi_dmul+0xde>
 80008aa:	ea0c 5513 	and.w	r5, ip, r3, lsr #20
 80008ae:	ea94 0f0c 	teq	r4, ip
 80008b2:	bf08      	it	eq
 80008b4:	ea95 0f0c 	teqeq	r5, ip
 80008b8:	f43f af3b 	beq.w	8000732 <__aeabi_dmul+0x24a>
 80008bc:	ea94 0f0c 	teq	r4, ip
 80008c0:	d10a      	bne.n	80008d8 <__aeabi_ddiv+0x19c>
 80008c2:	ea50 3401 	orrs.w	r4, r0, r1, lsl #12
 80008c6:	f47f af34 	bne.w	8000732 <__aeabi_dmul+0x24a>
 80008ca:	ea95 0f0c 	teq	r5, ip
 80008ce:	f47f af25 	bne.w	800071c <__aeabi_dmul+0x234>
 80008d2:	4610      	mov	r0, r2
 80008d4:	4619      	mov	r1, r3
 80008d6:	e72c      	b.n	8000732 <__aeabi_dmul+0x24a>
 80008d8:	ea95 0f0c 	teq	r5, ip
 80008dc:	d106      	bne.n	80008ec <__aeabi_ddiv+0x1b0>
 80008de:	ea52 3503 	orrs.w	r5, r2, r3, lsl #12
 80008e2:	f43f aefd 	beq.w	80006e0 <__aeabi_dmul+0x1f8>
 80008e6:	4610      	mov	r0, r2
 80008e8:	4619      	mov	r1, r3
 80008ea:	e722      	b.n	8000732 <__aeabi_dmul+0x24a>
 80008ec:	ea50 0641 	orrs.w	r6, r0, r1, lsl #1
 80008f0:	bf18      	it	ne
 80008f2:	ea52 0643 	orrsne.w	r6, r2, r3, lsl #1
 80008f6:	f47f aec5 	bne.w	8000684 <__aeabi_dmul+0x19c>
 80008fa:	ea50 0441 	orrs.w	r4, r0, r1, lsl #1
 80008fe:	f47f af0d 	bne.w	800071c <__aeabi_dmul+0x234>
 8000902:	ea52 0543 	orrs.w	r5, r2, r3, lsl #1
 8000906:	f47f aeeb 	bne.w	80006e0 <__aeabi_dmul+0x1f8>
 800090a:	e712      	b.n	8000732 <__aeabi_dmul+0x24a>

0800090c <__aeabi_d2uiz>:
 800090c:	004a      	lsls	r2, r1, #1
 800090e:	d211      	bcs.n	8000934 <__aeabi_d2uiz+0x28>
 8000910:	f512 1200 	adds.w	r2, r2, #2097152	; 0x200000
 8000914:	d211      	bcs.n	800093a <__aeabi_d2uiz+0x2e>
 8000916:	d50d      	bpl.n	8000934 <__aeabi_d2uiz+0x28>
 8000918:	f46f 7378 	mvn.w	r3, #992	; 0x3e0
 800091c:	ebb3 5262 	subs.w	r2, r3, r2, asr #21
 8000920:	d40e      	bmi.n	8000940 <__aeabi_d2uiz+0x34>
 8000922:	ea4f 23c1 	mov.w	r3, r1, lsl #11
 8000926:	f043 4300 	orr.w	r3, r3, #2147483648	; 0x80000000
 800092a:	ea43 5350 	orr.w	r3, r3, r0, lsr #21
 800092e:	fa23 f002 	lsr.w	r0, r3, r2
 8000932:	4770      	bx	lr
 8000934:	f04f 0000 	mov.w	r0, #0
 8000938:	4770      	bx	lr
 800093a:	ea50 3001 	orrs.w	r0, r0, r1, lsl #12
 800093e:	d102      	bne.n	8000946 <__aeabi_d2uiz+0x3a>
 8000940:	f04f 30ff 	mov.w	r0, #4294967295
 8000944:	4770      	bx	lr
 8000946:	f04f 0000 	mov.w	r0, #0
 800094a:	4770      	bx	lr

0800094c <xDelay>:
/******************************************************************************
* private Callbacks Definitions
*******************************************************************************/

void xDelay(u32 time)
{
 800094c:	b480      	push	{r7}
 800094e:	b085      	sub	sp, #20
 8000950:	af00      	add	r7, sp, #0
 8000952:	6078      	str	r0, [r7, #4]
	u32 i;
	u32 j;
	for(i = time;i > 0;i--)
 8000954:	687b      	ldr	r3, [r7, #4]
 8000956:	60fb      	str	r3, [r7, #12]
 8000958:	e00b      	b.n	8000972 <xDelay+0x26>
		for(j = 10;j > 0;j--);
 800095a:	230a      	movs	r3, #10
 800095c:	60bb      	str	r3, [r7, #8]
 800095e:	e002      	b.n	8000966 <xDelay+0x1a>
 8000960:	68bb      	ldr	r3, [r7, #8]
 8000962:	3b01      	subs	r3, #1
 8000964:	60bb      	str	r3, [r7, #8]
 8000966:	68bb      	ldr	r3, [r7, #8]
 8000968:	2b00      	cmp	r3, #0
 800096a:	d1f9      	bne.n	8000960 <xDelay+0x14>
	for(i = time;i > 0;i--)
 800096c:	68fb      	ldr	r3, [r7, #12]
 800096e:	3b01      	subs	r3, #1
 8000970:	60fb      	str	r3, [r7, #12]
 8000972:	68fb      	ldr	r3, [r7, #12]
 8000974:	2b00      	cmp	r3, #0
 8000976:	d1f0      	bne.n	800095a <xDelay+0xe>
}
 8000978:	bf00      	nop
 800097a:	3714      	adds	r7, #20
 800097c:	46bd      	mov	sp, r7
 800097e:	bc80      	pop	{r7}
 8000980:	4770      	bx	lr
	...

08000984 <ECU1_Callback>:

#define _delay_ms(ms) xDelay(ms)


static void ECU1_Callback(void)
{
 8000984:	b580      	push	{r7, lr}
 8000986:	b088      	sub	sp, #32
 8000988:	af00      	add	r7, sp, #0
#if _APP_DEBUG_ == 1
	 LCD_voidClear(&myLCD);
	LCD_voidSendString(&myLCD, addString("Ana ECU1 Ya Bro"));
#endif

	u16 LOC_u8TxBuffer = MASTER_ACK ;
 800098a:	232b      	movs	r3, #43	; 0x2b
 800098c:	833b      	strh	r3, [r7, #24]
	u16 LOC_u8RxBuffer = 0 ;
 800098e:	2300      	movs	r3, #0
 8000990:	82fb      	strh	r3, [r7, #22]
	u8 LOC_u8userName[NAME_MAX_SIZE+1] = {0} ;
 8000992:	f107 0308 	add.w	r3, r7, #8
 8000996:	2200      	movs	r2, #0
 8000998:	601a      	str	r2, [r3, #0]
 800099a:	605a      	str	r2, [r3, #4]
 800099c:	f8c3 2007 	str.w	r2, [r3, #7]
	u8 LOC_u8ID[ID_SIZE+1] = {0} ;
 80009a0:	463b      	mov	r3, r7
 80009a2:	2200      	movs	r2, #0
 80009a4:	601a      	str	r2, [r3, #0]
 80009a6:	605a      	str	r2, [r3, #4]

	u8 LOC_u8Counter = 0 ,LOC_u8NameCounter = 0 ,LOC_u8IDCounter = 0 ;
 80009a8:	2300      	movs	r3, #0
 80009aa:	77fb      	strb	r3, [r7, #31]
 80009ac:	2300      	movs	r3, #0
 80009ae:	77bb      	strb	r3, [r7, #30]
 80009b0:	2300      	movs	r3, #0
 80009b2:	777b      	strb	r3, [r7, #29]

	// Make Slave Pin Low to initiate transaction
	GPIO_voidSetPinValue(ECU1_PORT_PIN, LOW);
 80009b4:	2200      	movs	r2, #0
 80009b6:	2104      	movs	r1, #4
 80009b8:	2002      	movs	r0, #2
 80009ba:	f002 fe53 	bl	8003664 <GPIO_voidSetPinValue>
	// Send Master NACK
	SPI_voidSend_RecieveDataSynch(SPI_1, NULL , &LOC_u8RxBuffer);
 80009be:	f107 0316 	add.w	r3, r7, #22
 80009c2:	461a      	mov	r2, r3
 80009c4:	2100      	movs	r1, #0
 80009c6:	2000      	movs	r0, #0
 80009c8:	f003 f890 	bl	8003aec <SPI_voidSend_RecieveDataSynch>
	// Send Master Ack
	do
	{
		SPI_voidSend_RecieveDataSynch(SPI_1, &LOC_u8TxBuffer, &LOC_u8RxBuffer);
 80009cc:	f107 0216 	add.w	r2, r7, #22
 80009d0:	f107 0318 	add.w	r3, r7, #24
 80009d4:	4619      	mov	r1, r3
 80009d6:	2000      	movs	r0, #0
 80009d8:	f003 f888 	bl	8003aec <SPI_voidSend_RecieveDataSynch>
#if _APP_DEBUG_ == 1
		//LCD_voidSendChar(&myLCD, LOC_u8RxBuffer) ;
#endif
		if( (LOC_u8RxBuffer >= 'a'  && LOC_u8RxBuffer <= 'z') || (LOC_u8RxBuffer >= 'A'  && LOC_u8RxBuffer <= 'Z') )
 80009dc:	8afb      	ldrh	r3, [r7, #22]
 80009de:	2b60      	cmp	r3, #96	; 0x60
 80009e0:	d902      	bls.n	80009e8 <ECU1_Callback+0x64>
 80009e2:	8afb      	ldrh	r3, [r7, #22]
 80009e4:	2b7a      	cmp	r3, #122	; 0x7a
 80009e6:	d905      	bls.n	80009f4 <ECU1_Callback+0x70>
 80009e8:	8afb      	ldrh	r3, [r7, #22]
 80009ea:	2b40      	cmp	r3, #64	; 0x40
 80009ec:	d90e      	bls.n	8000a0c <ECU1_Callback+0x88>
 80009ee:	8afb      	ldrh	r3, [r7, #22]
 80009f0:	2b5a      	cmp	r3, #90	; 0x5a
 80009f2:	d80b      	bhi.n	8000a0c <ECU1_Callback+0x88>
		{
			// UserName Field
			LOC_u8userName[LOC_u8NameCounter] = LOC_u8RxBuffer ;
 80009f4:	8afa      	ldrh	r2, [r7, #22]
 80009f6:	7fbb      	ldrb	r3, [r7, #30]
 80009f8:	b2d2      	uxtb	r2, r2
 80009fa:	f107 0120 	add.w	r1, r7, #32
 80009fe:	440b      	add	r3, r1
 8000a00:	f803 2c18 	strb.w	r2, [r3, #-24]
			LOC_u8NameCounter++ ;
 8000a04:	7fbb      	ldrb	r3, [r7, #30]
 8000a06:	3301      	adds	r3, #1
 8000a08:	77bb      	strb	r3, [r7, #30]
 8000a0a:	e010      	b.n	8000a2e <ECU1_Callback+0xaa>
#if _APP_DEBUG_ == 1
		//LCD_voidSendChar(&myLCD, LOC_u8RxBuffer) ;
#endif
		}
		else if (LOC_u8RxBuffer >= '0' && LOC_u8RxBuffer <= '9')
 8000a0c:	8afb      	ldrh	r3, [r7, #22]
 8000a0e:	2b2f      	cmp	r3, #47	; 0x2f
 8000a10:	d90d      	bls.n	8000a2e <ECU1_Callback+0xaa>
 8000a12:	8afb      	ldrh	r3, [r7, #22]
 8000a14:	2b39      	cmp	r3, #57	; 0x39
 8000a16:	d80a      	bhi.n	8000a2e <ECU1_Callback+0xaa>
		{
			// ID Field
			LOC_u8ID[LOC_u8IDCounter] = LOC_u8RxBuffer ;
 8000a18:	8afa      	ldrh	r2, [r7, #22]
 8000a1a:	7f7b      	ldrb	r3, [r7, #29]
 8000a1c:	b2d2      	uxtb	r2, r2
 8000a1e:	f107 0120 	add.w	r1, r7, #32
 8000a22:	440b      	add	r3, r1
 8000a24:	f803 2c20 	strb.w	r2, [r3, #-32]
			LOC_u8IDCounter++ ;
 8000a28:	7f7b      	ldrb	r3, [r7, #29]
 8000a2a:	3301      	adds	r3, #1
 8000a2c:	777b      	strb	r3, [r7, #29]
		}
		else
		{
			// Invalid
		}
	}while(LOC_u8RxBuffer != VALID_ID_SYMBOL);
 8000a2e:	8afb      	ldrh	r3, [r7, #22]
 8000a30:	2b24      	cmp	r3, #36	; 0x24
 8000a32:	d1cb      	bne.n	80009cc <ECU1_Callback+0x48>
	LOC_u8userName[LOC_u8NameCounter] = '\0';
 8000a34:	7fbb      	ldrb	r3, [r7, #30]
 8000a36:	f107 0220 	add.w	r2, r7, #32
 8000a3a:	4413      	add	r3, r2
 8000a3c:	2200      	movs	r2, #0
 8000a3e:	f803 2c18 	strb.w	r2, [r3, #-24]
	LOC_u8ID[LOC_u8IDCounter] ='\0';
 8000a42:	7f7b      	ldrb	r3, [r7, #29]
 8000a44:	f107 0220 	add.w	r2, r7, #32
 8000a48:	4413      	add	r3, r2
 8000a4a:	2200      	movs	r2, #0
 8000a4c:	f803 2c20 	strb.w	r2, [r3, #-32]

	// When Come VALID_ID_SYMBOL check username exist or not
	if(Glob_u8NumberOfCurrentUsers == 0  || Glob_u8NumberOfAvailableSlots == 0)
 8000a50:	4b4a      	ldr	r3, [pc, #296]	; (8000b7c <ECU1_Callback+0x1f8>)
 8000a52:	781b      	ldrb	r3, [r3, #0]
 8000a54:	2b00      	cmp	r3, #0
 8000a56:	d003      	beq.n	8000a60 <ECU1_Callback+0xdc>
 8000a58:	4b49      	ldr	r3, [pc, #292]	; (8000b80 <ECU1_Callback+0x1fc>)
 8000a5a:	781b      	ldrb	r3, [r3, #0]
 8000a5c:	2b00      	cmp	r3, #0
 8000a5e:	d10a      	bne.n	8000a76 <ECU1_Callback+0xf2>
	{
		// Send invaild
		// NOT_VALID_ID
		LOC_u8TxBuffer = NOT_VALID_ID ;
 8000a60:	2330      	movs	r3, #48	; 0x30
 8000a62:	833b      	strh	r3, [r7, #24]
		SPI_voidSend_RecieveDataSynch(SPI_1, &LOC_u8TxBuffer, &LOC_u8RxBuffer);
 8000a64:	f107 0216 	add.w	r2, r7, #22
 8000a68:	f107 0318 	add.w	r3, r7, #24
 8000a6c:	4619      	mov	r1, r3
 8000a6e:	2000      	movs	r0, #0
 8000a70:	f003 f83c 	bl	8003aec <SPI_voidSend_RecieveDataSynch>
 8000a74:	e079      	b.n	8000b6a <ECU1_Callback+0x1e6>
	}
	else
	{
		/*	Searching	*/
		LOC_u8Counter = 0 ;
 8000a76:	2300      	movs	r3, #0
 8000a78:	77fb      	strb	r3, [r7, #31]
		u8 LOC_u8Result = 1 ;
 8000a7a:	2301      	movs	r3, #1
 8000a7c:	773b      	strb	r3, [r7, #28]
		u8 userIdx = 10  ;
 8000a7e:	230a      	movs	r3, #10
 8000a80:	76fb      	strb	r3, [r7, #27]
		for(LOC_u8Counter = 0 ; LOC_u8Counter < Glob_u8NumberOfCurrentUsers ; LOC_u8Counter++)
 8000a82:	2300      	movs	r3, #0
 8000a84:	77fb      	strb	r3, [r7, #31]
 8000a86:	e01d      	b.n	8000ac4 <ECU1_Callback+0x140>
		{
			// Name Searching
			LOC_u8Result = compTwoStrings(LOC_u8userName, &Glob_u8DriverArr[LOC_u8Counter][0][0]);
 8000a88:	7ffb      	ldrb	r3, [r7, #31]
 8000a8a:	2216      	movs	r2, #22
 8000a8c:	fb02 f303 	mul.w	r3, r2, r3
 8000a90:	4a3c      	ldr	r2, [pc, #240]	; (8000b84 <ECU1_Callback+0x200>)
 8000a92:	441a      	add	r2, r3
 8000a94:	f107 0308 	add.w	r3, r7, #8
 8000a98:	4611      	mov	r1, r2
 8000a9a:	4618      	mov	r0, r3
 8000a9c:	f000 fe0c 	bl	80016b8 <compTwoStrings>
 8000aa0:	4603      	mov	r3, r0
 8000aa2:	773b      	strb	r3, [r7, #28]
			if(LOC_u8Result == 0)
 8000aa4:	7f3b      	ldrb	r3, [r7, #28]
 8000aa6:	2b00      	cmp	r3, #0
 8000aa8:	d109      	bne.n	8000abe <ECU1_Callback+0x13a>
			{
				userIdx = LOC_u8Counter ;
 8000aaa:	7ffb      	ldrb	r3, [r7, #31]
 8000aac:	76fb      	strb	r3, [r7, #27]
				if(Glob_u8InGarage[userIdx] == 1)
 8000aae:	7efb      	ldrb	r3, [r7, #27]
 8000ab0:	4a35      	ldr	r2, [pc, #212]	; (8000b88 <ECU1_Callback+0x204>)
 8000ab2:	5cd3      	ldrb	r3, [r2, r3]
 8000ab4:	2b01      	cmp	r3, #1
 8000ab6:	d10b      	bne.n	8000ad0 <ECU1_Callback+0x14c>
				{
					// Wrong Gate
					LOC_u8Result = 1 ;
 8000ab8:	2301      	movs	r3, #1
 8000aba:	773b      	strb	r3, [r7, #28]

				}
				break ;
 8000abc:	e008      	b.n	8000ad0 <ECU1_Callback+0x14c>
		for(LOC_u8Counter = 0 ; LOC_u8Counter < Glob_u8NumberOfCurrentUsers ; LOC_u8Counter++)
 8000abe:	7ffb      	ldrb	r3, [r7, #31]
 8000ac0:	3301      	adds	r3, #1
 8000ac2:	77fb      	strb	r3, [r7, #31]
 8000ac4:	4b2d      	ldr	r3, [pc, #180]	; (8000b7c <ECU1_Callback+0x1f8>)
 8000ac6:	781b      	ldrb	r3, [r3, #0]
 8000ac8:	7ffa      	ldrb	r2, [r7, #31]
 8000aca:	429a      	cmp	r2, r3
 8000acc:	d3dc      	bcc.n	8000a88 <ECU1_Callback+0x104>
 8000ace:	e000      	b.n	8000ad2 <ECU1_Callback+0x14e>
				break ;
 8000ad0:	bf00      	nop
			}

		}
		if(LOC_u8Result == 0 && userIdx <= Glob_u8NumberOfCurrentUsers)
 8000ad2:	7f3b      	ldrb	r3, [r7, #28]
 8000ad4:	2b00      	cmp	r3, #0
 8000ad6:	d114      	bne.n	8000b02 <ECU1_Callback+0x17e>
 8000ad8:	4b28      	ldr	r3, [pc, #160]	; (8000b7c <ECU1_Callback+0x1f8>)
 8000ada:	781b      	ldrb	r3, [r3, #0]
 8000adc:	7efa      	ldrb	r2, [r7, #27]
 8000ade:	429a      	cmp	r2, r3
 8000ae0:	d80f      	bhi.n	8000b02 <ECU1_Callback+0x17e>
		{
			LOC_u8Result = 1 ;
 8000ae2:	2301      	movs	r3, #1
 8000ae4:	773b      	strb	r3, [r7, #28]
			// ID Verify
			LOC_u8Result = compTwoStrings(LOC_u8ID, &Glob_u8DriverArr[userIdx][1][0]);
 8000ae6:	7efb      	ldrb	r3, [r7, #27]
 8000ae8:	2216      	movs	r2, #22
 8000aea:	fb02 f303 	mul.w	r3, r2, r3
 8000aee:	330b      	adds	r3, #11
 8000af0:	4a24      	ldr	r2, [pc, #144]	; (8000b84 <ECU1_Callback+0x200>)
 8000af2:	441a      	add	r2, r3
 8000af4:	463b      	mov	r3, r7
 8000af6:	4611      	mov	r1, r2
 8000af8:	4618      	mov	r0, r3
 8000afa:	f000 fddd 	bl	80016b8 <compTwoStrings>
 8000afe:	4603      	mov	r3, r0
 8000b00:	773b      	strb	r3, [r7, #28]
		}

		if(LOC_u8Result == 0)
 8000b02:	7f3b      	ldrb	r3, [r7, #28]
 8000b04:	2b00      	cmp	r3, #0
 8000b06:	d121      	bne.n	8000b4c <ECU1_Callback+0x1c8>
		{

			// Valid Name and ID Send VALID_ID
			do
			{
				LOC_u8TxBuffer = VALID_ID ;
 8000b08:	2331      	movs	r3, #49	; 0x31
 8000b0a:	833b      	strh	r3, [r7, #24]
				SPI_voidSend_RecieveDataSynch(SPI_1, &LOC_u8TxBuffer, &LOC_u8RxBuffer);
 8000b0c:	f107 0216 	add.w	r2, r7, #22
 8000b10:	f107 0318 	add.w	r3, r7, #24
 8000b14:	4619      	mov	r1, r3
 8000b16:	2000      	movs	r0, #0
 8000b18:	f002 ffe8 	bl	8003aec <SPI_voidSend_RecieveDataSynch>
			}while(VALID_ID_SYMBOL == LOC_u8RxBuffer) ;
 8000b1c:	8afb      	ldrh	r3, [r7, #22]
 8000b1e:	2b24      	cmp	r3, #36	; 0x24
 8000b20:	d0f2      	beq.n	8000b08 <ECU1_Callback+0x184>

			Glob_u8NumberOfAvailableSlots-- ;
 8000b22:	4b17      	ldr	r3, [pc, #92]	; (8000b80 <ECU1_Callback+0x1fc>)
 8000b24:	781b      	ldrb	r3, [r3, #0]
 8000b26:	3b01      	subs	r3, #1
 8000b28:	b2da      	uxtb	r2, r3
 8000b2a:	4b15      	ldr	r3, [pc, #84]	; (8000b80 <ECU1_Callback+0x1fc>)
 8000b2c:	701a      	strb	r2, [r3, #0]
			HAL_7SegmentWriteNumber(&mySegment, Glob_u8NumberOfAvailableSlots);
 8000b2e:	4b14      	ldr	r3, [pc, #80]	; (8000b80 <ECU1_Callback+0x1fc>)
 8000b30:	781b      	ldrb	r3, [r3, #0]
 8000b32:	4619      	mov	r1, r3
 8000b34:	4815      	ldr	r0, [pc, #84]	; (8000b8c <ECU1_Callback+0x208>)
 8000b36:	f001 fe33 	bl	80027a0 <HAL_7SegmentWriteNumber>
			Glob_u8InGarage[userIdx] = 1;
 8000b3a:	7efb      	ldrb	r3, [r7, #27]
 8000b3c:	4a12      	ldr	r2, [pc, #72]	; (8000b88 <ECU1_Callback+0x204>)
 8000b3e:	2101      	movs	r1, #1
 8000b40:	54d1      	strb	r1, [r2, r3]
			Glob_u8OutGarage[userIdx] = 0;
 8000b42:	7efb      	ldrb	r3, [r7, #27]
 8000b44:	4a12      	ldr	r2, [pc, #72]	; (8000b90 <ECU1_Callback+0x20c>)
 8000b46:	2100      	movs	r1, #0
 8000b48:	54d1      	strb	r1, [r2, r3]
 8000b4a:	e00e      	b.n	8000b6a <ECU1_Callback+0x1e6>

		}
		else
		{
			// invalid Name and ID Send NOT_VALID_ID
			LOC_u8TxBuffer = NOT_VALID_ID ;
 8000b4c:	2330      	movs	r3, #48	; 0x30
 8000b4e:	833b      	strh	r3, [r7, #24]
			do
			{
				LOC_u8TxBuffer = '0' ;
 8000b50:	2330      	movs	r3, #48	; 0x30
 8000b52:	833b      	strh	r3, [r7, #24]
				SPI_voidSend_RecieveDataSynch(SPI_1, &LOC_u8TxBuffer, &LOC_u8RxBuffer);
 8000b54:	f107 0216 	add.w	r2, r7, #22
 8000b58:	f107 0318 	add.w	r3, r7, #24
 8000b5c:	4619      	mov	r1, r3
 8000b5e:	2000      	movs	r0, #0
 8000b60:	f002 ffc4 	bl	8003aec <SPI_voidSend_RecieveDataSynch>
			}while(VALID_ID_SYMBOL == LOC_u8RxBuffer) ;
 8000b64:	8afb      	ldrh	r3, [r7, #22]
 8000b66:	2b24      	cmp	r3, #36	; 0x24
 8000b68:	d0f2      	beq.n	8000b50 <ECU1_Callback+0x1cc>
		}

	}

	// Make Slave Pin High to end transaction
	GPIO_voidSetPinValue(ECU1_PORT_PIN, HIGH);
 8000b6a:	2201      	movs	r2, #1
 8000b6c:	2104      	movs	r1, #4
 8000b6e:	2002      	movs	r0, #2
 8000b70:	f002 fd78 	bl	8003664 <GPIO_voidSetPinValue>




}
 8000b74:	bf00      	nop
 8000b76:	3720      	adds	r7, #32
 8000b78:	46bd      	mov	sp, r7
 8000b7a:	bd80      	pop	{r7, pc}
 8000b7c:	2000016c 	.word	0x2000016c
 8000b80:	20000011 	.word	0x20000011
 8000b84:	20000170 	.word	0x20000170
 8000b88:	200000a0 	.word	0x200000a0
 8000b8c:	20000000 	.word	0x20000000
 8000b90:	20000018 	.word	0x20000018

08000b94 <ECU3_Callback>:
static void ECU3_Callback(void)
{
 8000b94:	b580      	push	{r7, lr}
 8000b96:	b088      	sub	sp, #32
 8000b98:	af00      	add	r7, sp, #0
#if _APP_DEBUG_ == 1
	 LCD_voidClear(&myLCD);
	LCD_voidSendString(&myLCD, addString("Ana ECU1 Ya Bro"));
#endif

	u16 LOC_u8TxBuffer = MASTER_ACK ;
 8000b9a:	232b      	movs	r3, #43	; 0x2b
 8000b9c:	833b      	strh	r3, [r7, #24]
	u16 LOC_u8RxBuffer = 0 ;
 8000b9e:	2300      	movs	r3, #0
 8000ba0:	82fb      	strh	r3, [r7, #22]
	u8 LOC_u8userName[NAME_MAX_SIZE+1] = {0} ;
 8000ba2:	f107 0308 	add.w	r3, r7, #8
 8000ba6:	2200      	movs	r2, #0
 8000ba8:	601a      	str	r2, [r3, #0]
 8000baa:	605a      	str	r2, [r3, #4]
 8000bac:	f8c3 2007 	str.w	r2, [r3, #7]
	u8 LOC_u8ID[ID_SIZE+1] = {0} ;
 8000bb0:	463b      	mov	r3, r7
 8000bb2:	2200      	movs	r2, #0
 8000bb4:	601a      	str	r2, [r3, #0]
 8000bb6:	605a      	str	r2, [r3, #4]

	u8 LOC_u8Counter = 0 ,LOC_u8NameCounter = 0 ,LOC_u8IDCounter = 0 ;
 8000bb8:	2300      	movs	r3, #0
 8000bba:	77fb      	strb	r3, [r7, #31]
 8000bbc:	2300      	movs	r3, #0
 8000bbe:	77bb      	strb	r3, [r7, #30]
 8000bc0:	2300      	movs	r3, #0
 8000bc2:	777b      	strb	r3, [r7, #29]

	// Make Slave Pin Low to initiate transaction
	GPIO_voidSetPinValue(ECU3_PORT_PIN, LOW);
 8000bc4:	2200      	movs	r2, #0
 8000bc6:	2100      	movs	r1, #0
 8000bc8:	2003      	movs	r0, #3
 8000bca:	f002 fd4b 	bl	8003664 <GPIO_voidSetPinValue>
	// Send Master NACK
	SPI_voidSend_RecieveDataSynch(SPI_1, NULL , &LOC_u8RxBuffer);
 8000bce:	f107 0316 	add.w	r3, r7, #22
 8000bd2:	461a      	mov	r2, r3
 8000bd4:	2100      	movs	r1, #0
 8000bd6:	2000      	movs	r0, #0
 8000bd8:	f002 ff88 	bl	8003aec <SPI_voidSend_RecieveDataSynch>
	// Send Master Ack
	do
	{
		SPI_voidSend_RecieveDataSynch(SPI_1, &LOC_u8TxBuffer, &LOC_u8RxBuffer);
 8000bdc:	f107 0216 	add.w	r2, r7, #22
 8000be0:	f107 0318 	add.w	r3, r7, #24
 8000be4:	4619      	mov	r1, r3
 8000be6:	2000      	movs	r0, #0
 8000be8:	f002 ff80 	bl	8003aec <SPI_voidSend_RecieveDataSynch>
#if _APP_DEBUG_ == 1
		//LCD_voidSendChar(&myLCD, LOC_u8RxBuffer) ;
#endif
		if( (LOC_u8RxBuffer >= 'a'  && LOC_u8RxBuffer <= 'z') || (LOC_u8RxBuffer >= 'A'  && LOC_u8RxBuffer <= 'Z') )
 8000bec:	8afb      	ldrh	r3, [r7, #22]
 8000bee:	2b60      	cmp	r3, #96	; 0x60
 8000bf0:	d902      	bls.n	8000bf8 <ECU3_Callback+0x64>
 8000bf2:	8afb      	ldrh	r3, [r7, #22]
 8000bf4:	2b7a      	cmp	r3, #122	; 0x7a
 8000bf6:	d905      	bls.n	8000c04 <ECU3_Callback+0x70>
 8000bf8:	8afb      	ldrh	r3, [r7, #22]
 8000bfa:	2b40      	cmp	r3, #64	; 0x40
 8000bfc:	d90e      	bls.n	8000c1c <ECU3_Callback+0x88>
 8000bfe:	8afb      	ldrh	r3, [r7, #22]
 8000c00:	2b5a      	cmp	r3, #90	; 0x5a
 8000c02:	d80b      	bhi.n	8000c1c <ECU3_Callback+0x88>
		{
			// UserName Field
			LOC_u8userName[LOC_u8NameCounter] = LOC_u8RxBuffer ;
 8000c04:	8afa      	ldrh	r2, [r7, #22]
 8000c06:	7fbb      	ldrb	r3, [r7, #30]
 8000c08:	b2d2      	uxtb	r2, r2
 8000c0a:	f107 0120 	add.w	r1, r7, #32
 8000c0e:	440b      	add	r3, r1
 8000c10:	f803 2c18 	strb.w	r2, [r3, #-24]
			LOC_u8NameCounter++ ;
 8000c14:	7fbb      	ldrb	r3, [r7, #30]
 8000c16:	3301      	adds	r3, #1
 8000c18:	77bb      	strb	r3, [r7, #30]
 8000c1a:	e010      	b.n	8000c3e <ECU3_Callback+0xaa>
#if _APP_DEBUG_ == 1
		//LCD_voidSendChar(&myLCD, LOC_u8RxBuffer) ;
#endif
		}
		else if (LOC_u8RxBuffer >= '0' && LOC_u8RxBuffer <= '9')
 8000c1c:	8afb      	ldrh	r3, [r7, #22]
 8000c1e:	2b2f      	cmp	r3, #47	; 0x2f
 8000c20:	d90d      	bls.n	8000c3e <ECU3_Callback+0xaa>
 8000c22:	8afb      	ldrh	r3, [r7, #22]
 8000c24:	2b39      	cmp	r3, #57	; 0x39
 8000c26:	d80a      	bhi.n	8000c3e <ECU3_Callback+0xaa>
		{
			// ID Field
			LOC_u8ID[LOC_u8IDCounter] = LOC_u8RxBuffer ;
 8000c28:	8afa      	ldrh	r2, [r7, #22]
 8000c2a:	7f7b      	ldrb	r3, [r7, #29]
 8000c2c:	b2d2      	uxtb	r2, r2
 8000c2e:	f107 0120 	add.w	r1, r7, #32
 8000c32:	440b      	add	r3, r1
 8000c34:	f803 2c20 	strb.w	r2, [r3, #-32]
			LOC_u8IDCounter++ ;
 8000c38:	7f7b      	ldrb	r3, [r7, #29]
 8000c3a:	3301      	adds	r3, #1
 8000c3c:	777b      	strb	r3, [r7, #29]
		}
		else
		{
			// Invalid
		}
	}while(LOC_u8RxBuffer != VALID_ID_SYMBOL);
 8000c3e:	8afb      	ldrh	r3, [r7, #22]
 8000c40:	2b24      	cmp	r3, #36	; 0x24
 8000c42:	d1cb      	bne.n	8000bdc <ECU3_Callback+0x48>
	LOC_u8userName[LOC_u8NameCounter] = '\0';
 8000c44:	7fbb      	ldrb	r3, [r7, #30]
 8000c46:	f107 0220 	add.w	r2, r7, #32
 8000c4a:	4413      	add	r3, r2
 8000c4c:	2200      	movs	r2, #0
 8000c4e:	f803 2c18 	strb.w	r2, [r3, #-24]
	LOC_u8ID[LOC_u8IDCounter] ='\0';
 8000c52:	7f7b      	ldrb	r3, [r7, #29]
 8000c54:	f107 0220 	add.w	r2, r7, #32
 8000c58:	4413      	add	r3, r2
 8000c5a:	2200      	movs	r2, #0
 8000c5c:	f803 2c20 	strb.w	r2, [r3, #-32]

	// When Come VALID_ID_SYMBOL check username exist or not
	if(Glob_u8NumberOfCurrentUsers == 0 || Glob_u8NumberOfAvailableSlots == MAX_SLOTS_IN_GARAGE)
 8000c60:	4b4a      	ldr	r3, [pc, #296]	; (8000d8c <ECU3_Callback+0x1f8>)
 8000c62:	781b      	ldrb	r3, [r3, #0]
 8000c64:	2b00      	cmp	r3, #0
 8000c66:	d003      	beq.n	8000c70 <ECU3_Callback+0xdc>
 8000c68:	4b49      	ldr	r3, [pc, #292]	; (8000d90 <ECU3_Callback+0x1fc>)
 8000c6a:	781b      	ldrb	r3, [r3, #0]
 8000c6c:	2b03      	cmp	r3, #3
 8000c6e:	d10a      	bne.n	8000c86 <ECU3_Callback+0xf2>
	{
		// Send invaild
		// NOT_VALID_ID
		LOC_u8TxBuffer = NOT_VALID_ID ;
 8000c70:	2330      	movs	r3, #48	; 0x30
 8000c72:	833b      	strh	r3, [r7, #24]
		SPI_voidSend_RecieveDataSynch(SPI_1, &LOC_u8TxBuffer, &LOC_u8RxBuffer);
 8000c74:	f107 0216 	add.w	r2, r7, #22
 8000c78:	f107 0318 	add.w	r3, r7, #24
 8000c7c:	4619      	mov	r1, r3
 8000c7e:	2000      	movs	r0, #0
 8000c80:	f002 ff34 	bl	8003aec <SPI_voidSend_RecieveDataSynch>
 8000c84:	e079      	b.n	8000d7a <ECU3_Callback+0x1e6>
	}
	else
	{
		/*	Searching	*/
		LOC_u8Counter = 0 ;
 8000c86:	2300      	movs	r3, #0
 8000c88:	77fb      	strb	r3, [r7, #31]
		u8 LOC_u8Result = 1 ;
 8000c8a:	2301      	movs	r3, #1
 8000c8c:	773b      	strb	r3, [r7, #28]
		u8 userIdx = 10  ;
 8000c8e:	230a      	movs	r3, #10
 8000c90:	76fb      	strb	r3, [r7, #27]
		for(LOC_u8Counter = 0 ; LOC_u8Counter < Glob_u8NumberOfCurrentUsers ; LOC_u8Counter++)
 8000c92:	2300      	movs	r3, #0
 8000c94:	77fb      	strb	r3, [r7, #31]
 8000c96:	e01d      	b.n	8000cd4 <ECU3_Callback+0x140>
		{
			// Name Searching
			LOC_u8Result = compTwoStrings(LOC_u8userName, &Glob_u8DriverArr[LOC_u8Counter][0][0]);
 8000c98:	7ffb      	ldrb	r3, [r7, #31]
 8000c9a:	2216      	movs	r2, #22
 8000c9c:	fb02 f303 	mul.w	r3, r2, r3
 8000ca0:	4a3c      	ldr	r2, [pc, #240]	; (8000d94 <ECU3_Callback+0x200>)
 8000ca2:	441a      	add	r2, r3
 8000ca4:	f107 0308 	add.w	r3, r7, #8
 8000ca8:	4611      	mov	r1, r2
 8000caa:	4618      	mov	r0, r3
 8000cac:	f000 fd04 	bl	80016b8 <compTwoStrings>
 8000cb0:	4603      	mov	r3, r0
 8000cb2:	773b      	strb	r3, [r7, #28]
			if(LOC_u8Result == 0)
 8000cb4:	7f3b      	ldrb	r3, [r7, #28]
 8000cb6:	2b00      	cmp	r3, #0
 8000cb8:	d109      	bne.n	8000cce <ECU3_Callback+0x13a>
			{
				userIdx = LOC_u8Counter ;
 8000cba:	7ffb      	ldrb	r3, [r7, #31]
 8000cbc:	76fb      	strb	r3, [r7, #27]
				if(Glob_u8OutGarage[userIdx] == 1)
 8000cbe:	7efb      	ldrb	r3, [r7, #27]
 8000cc0:	4a35      	ldr	r2, [pc, #212]	; (8000d98 <ECU3_Callback+0x204>)
 8000cc2:	5cd3      	ldrb	r3, [r2, r3]
 8000cc4:	2b01      	cmp	r3, #1
 8000cc6:	d10b      	bne.n	8000ce0 <ECU3_Callback+0x14c>
				{
					// Wrong Out Gate    
					LOC_u8Result = 1 ;
 8000cc8:	2301      	movs	r3, #1
 8000cca:	773b      	strb	r3, [r7, #28]
				}
				break ;
 8000ccc:	e008      	b.n	8000ce0 <ECU3_Callback+0x14c>
		for(LOC_u8Counter = 0 ; LOC_u8Counter < Glob_u8NumberOfCurrentUsers ; LOC_u8Counter++)
 8000cce:	7ffb      	ldrb	r3, [r7, #31]
 8000cd0:	3301      	adds	r3, #1
 8000cd2:	77fb      	strb	r3, [r7, #31]
 8000cd4:	4b2d      	ldr	r3, [pc, #180]	; (8000d8c <ECU3_Callback+0x1f8>)
 8000cd6:	781b      	ldrb	r3, [r3, #0]
 8000cd8:	7ffa      	ldrb	r2, [r7, #31]
 8000cda:	429a      	cmp	r2, r3
 8000cdc:	d3dc      	bcc.n	8000c98 <ECU3_Callback+0x104>
 8000cde:	e000      	b.n	8000ce2 <ECU3_Callback+0x14e>
				break ;
 8000ce0:	bf00      	nop
			}

		}
		if(LOC_u8Result == 0 && userIdx <= Glob_u8NumberOfCurrentUsers)
 8000ce2:	7f3b      	ldrb	r3, [r7, #28]
 8000ce4:	2b00      	cmp	r3, #0
 8000ce6:	d114      	bne.n	8000d12 <ECU3_Callback+0x17e>
 8000ce8:	4b28      	ldr	r3, [pc, #160]	; (8000d8c <ECU3_Callback+0x1f8>)
 8000cea:	781b      	ldrb	r3, [r3, #0]
 8000cec:	7efa      	ldrb	r2, [r7, #27]
 8000cee:	429a      	cmp	r2, r3
 8000cf0:	d80f      	bhi.n	8000d12 <ECU3_Callback+0x17e>
		{
			LOC_u8Result = 1 ;
 8000cf2:	2301      	movs	r3, #1
 8000cf4:	773b      	strb	r3, [r7, #28]
			// ID Verify
			LOC_u8Result = compTwoStrings(LOC_u8ID, &Glob_u8DriverArr[userIdx][1][0]);
 8000cf6:	7efb      	ldrb	r3, [r7, #27]
 8000cf8:	2216      	movs	r2, #22
 8000cfa:	fb02 f303 	mul.w	r3, r2, r3
 8000cfe:	330b      	adds	r3, #11
 8000d00:	4a24      	ldr	r2, [pc, #144]	; (8000d94 <ECU3_Callback+0x200>)
 8000d02:	441a      	add	r2, r3
 8000d04:	463b      	mov	r3, r7
 8000d06:	4611      	mov	r1, r2
 8000d08:	4618      	mov	r0, r3
 8000d0a:	f000 fcd5 	bl	80016b8 <compTwoStrings>
 8000d0e:	4603      	mov	r3, r0
 8000d10:	773b      	strb	r3, [r7, #28]
		}

		if(LOC_u8Result == 0)
 8000d12:	7f3b      	ldrb	r3, [r7, #28]
 8000d14:	2b00      	cmp	r3, #0
 8000d16:	d121      	bne.n	8000d5c <ECU3_Callback+0x1c8>
	//LCD_voidSendString(&myLCD, addString("VALID"));
#endif
			// Valid Name and ID Send VALID_ID
			do
			{
				LOC_u8TxBuffer = VALID_ID ;
 8000d18:	2331      	movs	r3, #49	; 0x31
 8000d1a:	833b      	strh	r3, [r7, #24]
				SPI_voidSend_RecieveDataSynch(SPI_1, &LOC_u8TxBuffer, &LOC_u8RxBuffer);
 8000d1c:	f107 0216 	add.w	r2, r7, #22
 8000d20:	f107 0318 	add.w	r3, r7, #24
 8000d24:	4619      	mov	r1, r3
 8000d26:	2000      	movs	r0, #0
 8000d28:	f002 fee0 	bl	8003aec <SPI_voidSend_RecieveDataSynch>
			}while(VALID_ID_SYMBOL == LOC_u8RxBuffer) ;
 8000d2c:	8afb      	ldrh	r3, [r7, #22]
 8000d2e:	2b24      	cmp	r3, #36	; 0x24
 8000d30:	d0f2      	beq.n	8000d18 <ECU3_Callback+0x184>
			Glob_u8NumberOfAvailableSlots++ ;
 8000d32:	4b17      	ldr	r3, [pc, #92]	; (8000d90 <ECU3_Callback+0x1fc>)
 8000d34:	781b      	ldrb	r3, [r3, #0]
 8000d36:	3301      	adds	r3, #1
 8000d38:	b2da      	uxtb	r2, r3
 8000d3a:	4b15      	ldr	r3, [pc, #84]	; (8000d90 <ECU3_Callback+0x1fc>)
 8000d3c:	701a      	strb	r2, [r3, #0]
			HAL_7SegmentWriteNumber(&mySegment, Glob_u8NumberOfAvailableSlots);
 8000d3e:	4b14      	ldr	r3, [pc, #80]	; (8000d90 <ECU3_Callback+0x1fc>)
 8000d40:	781b      	ldrb	r3, [r3, #0]
 8000d42:	4619      	mov	r1, r3
 8000d44:	4815      	ldr	r0, [pc, #84]	; (8000d9c <ECU3_Callback+0x208>)
 8000d46:	f001 fd2b 	bl	80027a0 <HAL_7SegmentWriteNumber>
			Glob_u8InGarage[userIdx] = 0;
 8000d4a:	7efb      	ldrb	r3, [r7, #27]
 8000d4c:	4a14      	ldr	r2, [pc, #80]	; (8000da0 <ECU3_Callback+0x20c>)
 8000d4e:	2100      	movs	r1, #0
 8000d50:	54d1      	strb	r1, [r2, r3]
			Glob_u8OutGarage[userIdx] = 1;
 8000d52:	7efb      	ldrb	r3, [r7, #27]
 8000d54:	4a10      	ldr	r2, [pc, #64]	; (8000d98 <ECU3_Callback+0x204>)
 8000d56:	2101      	movs	r1, #1
 8000d58:	54d1      	strb	r1, [r2, r3]
 8000d5a:	e00e      	b.n	8000d7a <ECU3_Callback+0x1e6>

		}
		else
		{
			// invalid Name and ID Send NOT_VALID_ID
			LOC_u8TxBuffer = NOT_VALID_ID ;
 8000d5c:	2330      	movs	r3, #48	; 0x30
 8000d5e:	833b      	strh	r3, [r7, #24]
			do
			{
				LOC_u8TxBuffer = '0' ;
 8000d60:	2330      	movs	r3, #48	; 0x30
 8000d62:	833b      	strh	r3, [r7, #24]
				SPI_voidSend_RecieveDataSynch(SPI_1, &LOC_u8TxBuffer, &LOC_u8RxBuffer);
 8000d64:	f107 0216 	add.w	r2, r7, #22
 8000d68:	f107 0318 	add.w	r3, r7, #24
 8000d6c:	4619      	mov	r1, r3
 8000d6e:	2000      	movs	r0, #0
 8000d70:	f002 febc 	bl	8003aec <SPI_voidSend_RecieveDataSynch>
			}while(VALID_ID_SYMBOL == LOC_u8RxBuffer) ;
 8000d74:	8afb      	ldrh	r3, [r7, #22]
 8000d76:	2b24      	cmp	r3, #36	; 0x24
 8000d78:	d0f2      	beq.n	8000d60 <ECU3_Callback+0x1cc>
		}

	}

	// Make Slave Pin High to end transaction
	GPIO_voidSetPinValue(ECU3_PORT_PIN, HIGH);
 8000d7a:	2201      	movs	r2, #1
 8000d7c:	2100      	movs	r1, #0
 8000d7e:	2003      	movs	r0, #3
 8000d80:	f002 fc70 	bl	8003664 <GPIO_voidSetPinValue>





}
 8000d84:	bf00      	nop
 8000d86:	3720      	adds	r7, #32
 8000d88:	46bd      	mov	sp, r7
 8000d8a:	bd80      	pop	{r7, pc}
 8000d8c:	2000016c 	.word	0x2000016c
 8000d90:	20000011 	.word	0x20000011
 8000d94:	20000170 	.word	0x20000170
 8000d98:	20000018 	.word	0x20000018
 8000d9c:	20000000 	.word	0x20000000
 8000da0:	200000a0 	.word	0x200000a0

08000da4 <System_voidFillAdminsData>:
* private Functions Definitions
*******************************************************************************/

/*********************************** START SYSTEM FCN	*************************/
static void System_voidFillAdminsData(void)
{
 8000da4:	b480      	push	{r7}
 8000da6:	af00      	add	r7, sp, #0
	/*	1st Driver	*/
	Glob_u8AdminArr[0][0][0] = 'M'	;
 8000da8:	4b2f      	ldr	r3, [pc, #188]	; (8000e68 <System_voidFillAdminsData+0xc4>)
 8000daa:	224d      	movs	r2, #77	; 0x4d
 8000dac:	701a      	strb	r2, [r3, #0]
	Glob_u8AdminArr[0][0][1] = 'o'	;
 8000dae:	4b2e      	ldr	r3, [pc, #184]	; (8000e68 <System_voidFillAdminsData+0xc4>)
 8000db0:	226f      	movs	r2, #111	; 0x6f
 8000db2:	705a      	strb	r2, [r3, #1]
	Glob_u8AdminArr[0][0][2] = 'h'	;
 8000db4:	4b2c      	ldr	r3, [pc, #176]	; (8000e68 <System_voidFillAdminsData+0xc4>)
 8000db6:	2268      	movs	r2, #104	; 0x68
 8000db8:	709a      	strb	r2, [r3, #2]
	Glob_u8AdminArr[0][0][3] = 'a'	;
 8000dba:	4b2b      	ldr	r3, [pc, #172]	; (8000e68 <System_voidFillAdminsData+0xc4>)
 8000dbc:	2261      	movs	r2, #97	; 0x61
 8000dbe:	70da      	strb	r2, [r3, #3]
	Glob_u8AdminArr[0][0][4] = 'm'	;
 8000dc0:	4b29      	ldr	r3, [pc, #164]	; (8000e68 <System_voidFillAdminsData+0xc4>)
 8000dc2:	226d      	movs	r2, #109	; 0x6d
 8000dc4:	711a      	strb	r2, [r3, #4]
	Glob_u8AdminArr[0][0][5] = 'e'	;
 8000dc6:	4b28      	ldr	r3, [pc, #160]	; (8000e68 <System_voidFillAdminsData+0xc4>)
 8000dc8:	2265      	movs	r2, #101	; 0x65
 8000dca:	715a      	strb	r2, [r3, #5]
	Glob_u8AdminArr[0][0][6] = 'd'	;
 8000dcc:	4b26      	ldr	r3, [pc, #152]	; (8000e68 <System_voidFillAdminsData+0xc4>)
 8000dce:	2264      	movs	r2, #100	; 0x64
 8000dd0:	719a      	strb	r2, [r3, #6]
	Glob_u8AdminArr[0][1][7] = '\0'	;
 8000dd2:	4b25      	ldr	r3, [pc, #148]	; (8000e68 <System_voidFillAdminsData+0xc4>)
 8000dd4:	2200      	movs	r2, #0
 8000dd6:	749a      	strb	r2, [r3, #18]

	Glob_u8AdminArr[0][1][0] = '0'	;
 8000dd8:	4b23      	ldr	r3, [pc, #140]	; (8000e68 <System_voidFillAdminsData+0xc4>)
 8000dda:	2230      	movs	r2, #48	; 0x30
 8000ddc:	72da      	strb	r2, [r3, #11]
	Glob_u8AdminArr[0][1][1] = '0'	;
 8000dde:	4b22      	ldr	r3, [pc, #136]	; (8000e68 <System_voidFillAdminsData+0xc4>)
 8000de0:	2230      	movs	r2, #48	; 0x30
 8000de2:	731a      	strb	r2, [r3, #12]
	Glob_u8AdminArr[0][1][2] = '0'	;
 8000de4:	4b20      	ldr	r3, [pc, #128]	; (8000e68 <System_voidFillAdminsData+0xc4>)
 8000de6:	2230      	movs	r2, #48	; 0x30
 8000de8:	735a      	strb	r2, [r3, #13]
	Glob_u8AdminArr[0][1][3] = '0'	;
 8000dea:	4b1f      	ldr	r3, [pc, #124]	; (8000e68 <System_voidFillAdminsData+0xc4>)
 8000dec:	2230      	movs	r2, #48	; 0x30
 8000dee:	739a      	strb	r2, [r3, #14]
	Glob_u8AdminArr[0][1][4] = '0'	;
 8000df0:	4b1d      	ldr	r3, [pc, #116]	; (8000e68 <System_voidFillAdminsData+0xc4>)
 8000df2:	2230      	movs	r2, #48	; 0x30
 8000df4:	73da      	strb	r2, [r3, #15]
	Glob_u8AdminArr[0][1][5] = '0'	;
 8000df6:	4b1c      	ldr	r3, [pc, #112]	; (8000e68 <System_voidFillAdminsData+0xc4>)
 8000df8:	2230      	movs	r2, #48	; 0x30
 8000dfa:	741a      	strb	r2, [r3, #16]
	Glob_u8AdminArr[0][1][6] = '1'	;
 8000dfc:	4b1a      	ldr	r3, [pc, #104]	; (8000e68 <System_voidFillAdminsData+0xc4>)
 8000dfe:	2231      	movs	r2, #49	; 0x31
 8000e00:	745a      	strb	r2, [r3, #17]
	Glob_u8AdminArr[0][1][7] = '\0'	;
 8000e02:	4b19      	ldr	r3, [pc, #100]	; (8000e68 <System_voidFillAdminsData+0xc4>)
 8000e04:	2200      	movs	r2, #0
 8000e06:	749a      	strb	r2, [r3, #18]

	/*	2nd Driver	*/
	Glob_u8AdminArr[1][0][0] = 'a'	;
 8000e08:	4b17      	ldr	r3, [pc, #92]	; (8000e68 <System_voidFillAdminsData+0xc4>)
 8000e0a:	2261      	movs	r2, #97	; 0x61
 8000e0c:	759a      	strb	r2, [r3, #22]
	Glob_u8AdminArr[1][0][1] = 'l'	;
 8000e0e:	4b16      	ldr	r3, [pc, #88]	; (8000e68 <System_voidFillAdminsData+0xc4>)
 8000e10:	226c      	movs	r2, #108	; 0x6c
 8000e12:	75da      	strb	r2, [r3, #23]
	Glob_u8AdminArr[1][0][2] = 'i'	;
 8000e14:	4b14      	ldr	r3, [pc, #80]	; (8000e68 <System_voidFillAdminsData+0xc4>)
 8000e16:	2269      	movs	r2, #105	; 0x69
 8000e18:	761a      	strb	r2, [r3, #24]
	Glob_u8AdminArr[1][0][3] = '\0'	;
 8000e1a:	4b13      	ldr	r3, [pc, #76]	; (8000e68 <System_voidFillAdminsData+0xc4>)
 8000e1c:	2200      	movs	r2, #0
 8000e1e:	765a      	strb	r2, [r3, #25]

	Glob_u8AdminArr[1][1][0] = '1'	;
 8000e20:	4b11      	ldr	r3, [pc, #68]	; (8000e68 <System_voidFillAdminsData+0xc4>)
 8000e22:	2231      	movs	r2, #49	; 0x31
 8000e24:	f883 2021 	strb.w	r2, [r3, #33]	; 0x21
	Glob_u8AdminArr[1][1][1] = '2'	;
 8000e28:	4b0f      	ldr	r3, [pc, #60]	; (8000e68 <System_voidFillAdminsData+0xc4>)
 8000e2a:	2232      	movs	r2, #50	; 0x32
 8000e2c:	f883 2022 	strb.w	r2, [r3, #34]	; 0x22
	Glob_u8AdminArr[1][1][2] = '3'	;
 8000e30:	4b0d      	ldr	r3, [pc, #52]	; (8000e68 <System_voidFillAdminsData+0xc4>)
 8000e32:	2233      	movs	r2, #51	; 0x33
 8000e34:	f883 2023 	strb.w	r2, [r3, #35]	; 0x23
	Glob_u8AdminArr[1][1][3] = '4'	;
 8000e38:	4b0b      	ldr	r3, [pc, #44]	; (8000e68 <System_voidFillAdminsData+0xc4>)
 8000e3a:	2234      	movs	r2, #52	; 0x34
 8000e3c:	f883 2024 	strb.w	r2, [r3, #36]	; 0x24
	Glob_u8AdminArr[1][1][4] = '5'	;
 8000e40:	4b09      	ldr	r3, [pc, #36]	; (8000e68 <System_voidFillAdminsData+0xc4>)
 8000e42:	2235      	movs	r2, #53	; 0x35
 8000e44:	f883 2025 	strb.w	r2, [r3, #37]	; 0x25
	Glob_u8AdminArr[1][1][5] = '6'	;
 8000e48:	4b07      	ldr	r3, [pc, #28]	; (8000e68 <System_voidFillAdminsData+0xc4>)
 8000e4a:	2236      	movs	r2, #54	; 0x36
 8000e4c:	f883 2026 	strb.w	r2, [r3, #38]	; 0x26
	Glob_u8AdminArr[1][1][6] = '7'	;
 8000e50:	4b05      	ldr	r3, [pc, #20]	; (8000e68 <System_voidFillAdminsData+0xc4>)
 8000e52:	2237      	movs	r2, #55	; 0x37
 8000e54:	f883 2027 	strb.w	r2, [r3, #39]	; 0x27
	Glob_u8AdminArr[1][1][7] = '\0'	;
 8000e58:	4b03      	ldr	r3, [pc, #12]	; (8000e68 <System_voidFillAdminsData+0xc4>)
 8000e5a:	2200      	movs	r2, #0
 8000e5c:	f883 2028 	strb.w	r2, [r3, #40]	; 0x28

}
 8000e60:	bf00      	nop
 8000e62:	46bd      	mov	sp, r7
 8000e64:	bc80      	pop	{r7}
 8000e66:	4770      	bx	lr
 8000e68:	20000140 	.word	0x20000140

08000e6c <System_voidFillDriverssData>:
static void System_voidFillDriverssData(void)
{
 8000e6c:	b480      	push	{r7}
 8000e6e:	af00      	add	r7, sp, #0
	/*	1st Driver	*/
	Glob_u8DriverArr[0][0][0] = 'M'	;
 8000e70:	4b31      	ldr	r3, [pc, #196]	; (8000f38 <System_voidFillDriverssData+0xcc>)
 8000e72:	224d      	movs	r2, #77	; 0x4d
 8000e74:	701a      	strb	r2, [r3, #0]
	Glob_u8DriverArr[0][0][1] = 'o'	;
 8000e76:	4b30      	ldr	r3, [pc, #192]	; (8000f38 <System_voidFillDriverssData+0xcc>)
 8000e78:	226f      	movs	r2, #111	; 0x6f
 8000e7a:	705a      	strb	r2, [r3, #1]
	Glob_u8DriverArr[0][0][2] = 'h'	;
 8000e7c:	4b2e      	ldr	r3, [pc, #184]	; (8000f38 <System_voidFillDriverssData+0xcc>)
 8000e7e:	2268      	movs	r2, #104	; 0x68
 8000e80:	709a      	strb	r2, [r3, #2]
	Glob_u8DriverArr[0][0][3] = 'a'	;
 8000e82:	4b2d      	ldr	r3, [pc, #180]	; (8000f38 <System_voidFillDriverssData+0xcc>)
 8000e84:	2261      	movs	r2, #97	; 0x61
 8000e86:	70da      	strb	r2, [r3, #3]
	Glob_u8DriverArr[0][0][4] = 'm'	;
 8000e88:	4b2b      	ldr	r3, [pc, #172]	; (8000f38 <System_voidFillDriverssData+0xcc>)
 8000e8a:	226d      	movs	r2, #109	; 0x6d
 8000e8c:	711a      	strb	r2, [r3, #4]
	Glob_u8DriverArr[0][0][5] = 'e'	;
 8000e8e:	4b2a      	ldr	r3, [pc, #168]	; (8000f38 <System_voidFillDriverssData+0xcc>)
 8000e90:	2265      	movs	r2, #101	; 0x65
 8000e92:	715a      	strb	r2, [r3, #5]
	Glob_u8DriverArr[0][0][6] = 'd'	;
 8000e94:	4b28      	ldr	r3, [pc, #160]	; (8000f38 <System_voidFillDriverssData+0xcc>)
 8000e96:	2264      	movs	r2, #100	; 0x64
 8000e98:	719a      	strb	r2, [r3, #6]
	Glob_u8DriverArr[0][1][7] = '\0'	;
 8000e9a:	4b27      	ldr	r3, [pc, #156]	; (8000f38 <System_voidFillDriverssData+0xcc>)
 8000e9c:	2200      	movs	r2, #0
 8000e9e:	749a      	strb	r2, [r3, #18]

	Glob_u8DriverArr[0][1][0] = '0'	;
 8000ea0:	4b25      	ldr	r3, [pc, #148]	; (8000f38 <System_voidFillDriverssData+0xcc>)
 8000ea2:	2230      	movs	r2, #48	; 0x30
 8000ea4:	72da      	strb	r2, [r3, #11]
	Glob_u8DriverArr[0][1][1] = '0'	;
 8000ea6:	4b24      	ldr	r3, [pc, #144]	; (8000f38 <System_voidFillDriverssData+0xcc>)
 8000ea8:	2230      	movs	r2, #48	; 0x30
 8000eaa:	731a      	strb	r2, [r3, #12]
	Glob_u8DriverArr[0][1][2] = '0'	;
 8000eac:	4b22      	ldr	r3, [pc, #136]	; (8000f38 <System_voidFillDriverssData+0xcc>)
 8000eae:	2230      	movs	r2, #48	; 0x30
 8000eb0:	735a      	strb	r2, [r3, #13]
	Glob_u8DriverArr[0][1][3] = '0'	;
 8000eb2:	4b21      	ldr	r3, [pc, #132]	; (8000f38 <System_voidFillDriverssData+0xcc>)
 8000eb4:	2230      	movs	r2, #48	; 0x30
 8000eb6:	739a      	strb	r2, [r3, #14]
	Glob_u8DriverArr[0][1][4] = '0'	;
 8000eb8:	4b1f      	ldr	r3, [pc, #124]	; (8000f38 <System_voidFillDriverssData+0xcc>)
 8000eba:	2230      	movs	r2, #48	; 0x30
 8000ebc:	73da      	strb	r2, [r3, #15]
	Glob_u8DriverArr[0][1][5] = '0'	;
 8000ebe:	4b1e      	ldr	r3, [pc, #120]	; (8000f38 <System_voidFillDriverssData+0xcc>)
 8000ec0:	2230      	movs	r2, #48	; 0x30
 8000ec2:	741a      	strb	r2, [r3, #16]
	Glob_u8DriverArr[0][1][6] = '1'	;
 8000ec4:	4b1c      	ldr	r3, [pc, #112]	; (8000f38 <System_voidFillDriverssData+0xcc>)
 8000ec6:	2231      	movs	r2, #49	; 0x31
 8000ec8:	745a      	strb	r2, [r3, #17]
	Glob_u8DriverArr[0][1][7] = '\0'	;
 8000eca:	4b1b      	ldr	r3, [pc, #108]	; (8000f38 <System_voidFillDriverssData+0xcc>)
 8000ecc:	2200      	movs	r2, #0
 8000ece:	749a      	strb	r2, [r3, #18]

	/*	2nd Driver	*/
	Glob_u8DriverArr[1][0][0] = 'a'	;
 8000ed0:	4b19      	ldr	r3, [pc, #100]	; (8000f38 <System_voidFillDriverssData+0xcc>)
 8000ed2:	2261      	movs	r2, #97	; 0x61
 8000ed4:	759a      	strb	r2, [r3, #22]
	Glob_u8DriverArr[1][0][1] = 'l'	;
 8000ed6:	4b18      	ldr	r3, [pc, #96]	; (8000f38 <System_voidFillDriverssData+0xcc>)
 8000ed8:	226c      	movs	r2, #108	; 0x6c
 8000eda:	75da      	strb	r2, [r3, #23]
	Glob_u8DriverArr[1][0][2] = 'i'	;
 8000edc:	4b16      	ldr	r3, [pc, #88]	; (8000f38 <System_voidFillDriverssData+0xcc>)
 8000ede:	2269      	movs	r2, #105	; 0x69
 8000ee0:	761a      	strb	r2, [r3, #24]
	Glob_u8DriverArr[1][0][3] = '\0'	;
 8000ee2:	4b15      	ldr	r3, [pc, #84]	; (8000f38 <System_voidFillDriverssData+0xcc>)
 8000ee4:	2200      	movs	r2, #0
 8000ee6:	765a      	strb	r2, [r3, #25]

	Glob_u8DriverArr[1][1][0] = '1'	;
 8000ee8:	4b13      	ldr	r3, [pc, #76]	; (8000f38 <System_voidFillDriverssData+0xcc>)
 8000eea:	2231      	movs	r2, #49	; 0x31
 8000eec:	f883 2021 	strb.w	r2, [r3, #33]	; 0x21
	Glob_u8DriverArr[1][1][1] = '2'	;
 8000ef0:	4b11      	ldr	r3, [pc, #68]	; (8000f38 <System_voidFillDriverssData+0xcc>)
 8000ef2:	2232      	movs	r2, #50	; 0x32
 8000ef4:	f883 2022 	strb.w	r2, [r3, #34]	; 0x22
	Glob_u8DriverArr[1][1][2] = '3'	;
 8000ef8:	4b0f      	ldr	r3, [pc, #60]	; (8000f38 <System_voidFillDriverssData+0xcc>)
 8000efa:	2233      	movs	r2, #51	; 0x33
 8000efc:	f883 2023 	strb.w	r2, [r3, #35]	; 0x23
	Glob_u8DriverArr[1][1][3] = '4'	;
 8000f00:	4b0d      	ldr	r3, [pc, #52]	; (8000f38 <System_voidFillDriverssData+0xcc>)
 8000f02:	2234      	movs	r2, #52	; 0x34
 8000f04:	f883 2024 	strb.w	r2, [r3, #36]	; 0x24
	Glob_u8DriverArr[1][1][4] = '5'	;
 8000f08:	4b0b      	ldr	r3, [pc, #44]	; (8000f38 <System_voidFillDriverssData+0xcc>)
 8000f0a:	2235      	movs	r2, #53	; 0x35
 8000f0c:	f883 2025 	strb.w	r2, [r3, #37]	; 0x25
	Glob_u8DriverArr[1][1][5] = '6'	;
 8000f10:	4b09      	ldr	r3, [pc, #36]	; (8000f38 <System_voidFillDriverssData+0xcc>)
 8000f12:	2236      	movs	r2, #54	; 0x36
 8000f14:	f883 2026 	strb.w	r2, [r3, #38]	; 0x26
	Glob_u8DriverArr[1][1][6] = '7'	;
 8000f18:	4b07      	ldr	r3, [pc, #28]	; (8000f38 <System_voidFillDriverssData+0xcc>)
 8000f1a:	2237      	movs	r2, #55	; 0x37
 8000f1c:	f883 2027 	strb.w	r2, [r3, #39]	; 0x27
	Glob_u8DriverArr[1][1][7] = '\0'	;
 8000f20:	4b05      	ldr	r3, [pc, #20]	; (8000f38 <System_voidFillDriverssData+0xcc>)
 8000f22:	2200      	movs	r2, #0
 8000f24:	f883 2028 	strb.w	r2, [r3, #40]	; 0x28

	// Data
	Glob_u8NumberOfCurrentUsers = 2 ;
 8000f28:	4b04      	ldr	r3, [pc, #16]	; (8000f3c <System_voidFillDriverssData+0xd0>)
 8000f2a:	2202      	movs	r2, #2
 8000f2c:	701a      	strb	r2, [r3, #0]

}
 8000f2e:	bf00      	nop
 8000f30:	46bd      	mov	sp, r7
 8000f32:	bc80      	pop	{r7}
 8000f34:	4770      	bx	lr
 8000f36:	bf00      	nop
 8000f38:	20000170 	.word	0x20000170
 8000f3c:	2000016c 	.word	0x2000016c

08000f40 <System_u8ValidateAdminData>:

static u8 System_u8ValidateAdminData(void)
{
 8000f40:	b580      	push	{r7, lr}
 8000f42:	b088      	sub	sp, #32
 8000f44:	af00      	add	r7, sp, #0
	u16 LOC_u8ReceivedData = 0 , LOC_u8Counter = 0 ;
 8000f46:	2300      	movs	r3, #0
 8000f48:	837b      	strh	r3, [r7, #26]
 8000f4a:	2300      	movs	r3, #0
 8000f4c:	83fb      	strh	r3, [r7, #30]
	u8 LOC_u8userName[NAME_MAX_SIZE+1] = {0} ;
 8000f4e:	f107 030c 	add.w	r3, r7, #12
 8000f52:	2200      	movs	r2, #0
 8000f54:	601a      	str	r2, [r3, #0]
 8000f56:	605a      	str	r2, [r3, #4]
 8000f58:	f8c3 2007 	str.w	r2, [r3, #7]
	u8 LOC_u8Password[ID_SIZE+1] = {0} ;
 8000f5c:	1d3b      	adds	r3, r7, #4
 8000f5e:	2200      	movs	r2, #0
 8000f60:	601a      	str	r2, [r3, #0]
 8000f62:	605a      	str	r2, [r3, #4]
	u8 LOC_u8Flag = 0 ;
 8000f64:	2300      	movs	r3, #0
 8000f66:	777b      	strb	r3, [r7, #29]

	LCD_voidSetCursorType(&myLCD, CURS_OFF) ;
 8000f68:	210c      	movs	r1, #12
 8000f6a:	4871      	ldr	r0, [pc, #452]	; (8001130 <System_u8ValidateAdminData+0x1f0>)
 8000f6c:	f001 fa27 	bl	80023be <LCD_voidSetCursorType>
	LCD_voidClear(&myLCD);
 8000f70:	486f      	ldr	r0, [pc, #444]	; (8001130 <System_u8ValidateAdminData+0x1f0>)
 8000f72:	f001 fa68 	bl	8002446 <LCD_voidClear>
	LCD_voidSendString(&myLCD,addString("Admin Username"));
 8000f76:	496f      	ldr	r1, [pc, #444]	; (8001134 <System_u8ValidateAdminData+0x1f4>)
 8000f78:	486d      	ldr	r0, [pc, #436]	; (8001130 <System_u8ValidateAdminData+0x1f0>)
 8000f7a:	f001 fa03 	bl	8002384 <LCD_voidSendString>
	LCD_voidGotoXY(&myLCD,0,1);
 8000f7e:	2201      	movs	r2, #1
 8000f80:	2100      	movs	r1, #0
 8000f82:	486b      	ldr	r0, [pc, #428]	; (8001130 <System_u8ValidateAdminData+0x1f0>)
 8000f84:	f001 fa2a 	bl	80023dc <LCD_voidGotoXY>
	LCD_voidSetCursorType(&myLCD, CURS_ON_BLINK) ;
 8000f88:	210f      	movs	r1, #15
 8000f8a:	4869      	ldr	r0, [pc, #420]	; (8001130 <System_u8ValidateAdminData+0x1f0>)
 8000f8c:	f001 fa17 	bl	80023be <LCD_voidSetCursorType>

	/*	Get User Name By USART	*/
	do
	{
		USART_voidReceiveDataSynch(USART_1, &LOC_u8ReceivedData);
 8000f90:	f107 031a 	add.w	r3, r7, #26
 8000f94:	4619      	mov	r1, r3
 8000f96:	2000      	movs	r0, #0
 8000f98:	f002 ffca 	bl	8003f30 <USART_voidReceiveDataSynch>
		USART_voidSendDataSynch(USART_1, &LOC_u8ReceivedData);
 8000f9c:	f107 031a 	add.w	r3, r7, #26
 8000fa0:	4619      	mov	r1, r3
 8000fa2:	2000      	movs	r0, #0
 8000fa4:	f002 ff6c 	bl	8003e80 <USART_voidSendDataSynch>
		LOC_u8userName[LOC_u8Counter] = (u8)LOC_u8ReceivedData;
 8000fa8:	8b7a      	ldrh	r2, [r7, #26]
 8000faa:	8bfb      	ldrh	r3, [r7, #30]
 8000fac:	b2d2      	uxtb	r2, r2
 8000fae:	f107 0120 	add.w	r1, r7, #32
 8000fb2:	440b      	add	r3, r1
 8000fb4:	f803 2c14 	strb.w	r2, [r3, #-20]
		LCD_voidSendChar(&myLCD, (u8)LOC_u8ReceivedData );
 8000fb8:	8b7b      	ldrh	r3, [r7, #26]
 8000fba:	b2db      	uxtb	r3, r3
 8000fbc:	4619      	mov	r1, r3
 8000fbe:	485c      	ldr	r0, [pc, #368]	; (8001130 <System_u8ValidateAdminData+0x1f0>)
 8000fc0:	f001 f903 	bl	80021ca <LCD_voidSendChar>
		LOC_u8Counter++ ;
 8000fc4:	8bfb      	ldrh	r3, [r7, #30]
 8000fc6:	3301      	adds	r3, #1
 8000fc8:	83fb      	strh	r3, [r7, #30]
	}
	while((NAME_MAX_SIZE >= LOC_u8Counter) && (UART_TERMINATE_CHAR != LOC_u8ReceivedData));
 8000fca:	8bfb      	ldrh	r3, [r7, #30]
 8000fcc:	2b0a      	cmp	r3, #10
 8000fce:	d802      	bhi.n	8000fd6 <System_u8ValidateAdminData+0x96>
 8000fd0:	8b7b      	ldrh	r3, [r7, #26]
 8000fd2:	2b0d      	cmp	r3, #13
 8000fd4:	d1dc      	bne.n	8000f90 <System_u8ValidateAdminData+0x50>
	LOC_u8userName[LOC_u8Counter-1] = '\0';
 8000fd6:	8bfb      	ldrh	r3, [r7, #30]
 8000fd8:	3b01      	subs	r3, #1
 8000fda:	f107 0220 	add.w	r2, r7, #32
 8000fde:	4413      	add	r3, r2
 8000fe0:	2200      	movs	r2, #0
 8000fe2:	f803 2c14 	strb.w	r2, [r3, #-20]
	LCD_voidSetCursorType(&myLCD, CURS_OFF) ;
 8000fe6:	210c      	movs	r1, #12
 8000fe8:	4851      	ldr	r0, [pc, #324]	; (8001130 <System_u8ValidateAdminData+0x1f0>)
 8000fea:	f001 f9e8 	bl	80023be <LCD_voidSetCursorType>
	LCD_voidGotoXY(&myLCD,0,2);
 8000fee:	2202      	movs	r2, #2
 8000ff0:	2100      	movs	r1, #0
 8000ff2:	484f      	ldr	r0, [pc, #316]	; (8001130 <System_u8ValidateAdminData+0x1f0>)
 8000ff4:	f001 f9f2 	bl	80023dc <LCD_voidGotoXY>
	LCD_voidSendString(&myLCD,addString("Admin Password"));
 8000ff8:	494f      	ldr	r1, [pc, #316]	; (8001138 <System_u8ValidateAdminData+0x1f8>)
 8000ffa:	484d      	ldr	r0, [pc, #308]	; (8001130 <System_u8ValidateAdminData+0x1f0>)
 8000ffc:	f001 f9c2 	bl	8002384 <LCD_voidSendString>
	LCD_voidGotoXY(&myLCD,0,3);
 8001000:	2203      	movs	r2, #3
 8001002:	2100      	movs	r1, #0
 8001004:	484a      	ldr	r0, [pc, #296]	; (8001130 <System_u8ValidateAdminData+0x1f0>)
 8001006:	f001 f9e9 	bl	80023dc <LCD_voidGotoXY>
	LOC_u8Counter = 0 ;
 800100a:	2300      	movs	r3, #0
 800100c:	83fb      	strh	r3, [r7, #30]
	/*	Get Password By USART	*/
	LCD_voidSetCursorType(&myLCD, CURS_ON_BLINK) ;
 800100e:	210f      	movs	r1, #15
 8001010:	4847      	ldr	r0, [pc, #284]	; (8001130 <System_u8ValidateAdminData+0x1f0>)
 8001012:	f001 f9d4 	bl	80023be <LCD_voidSetCursorType>
	do
	{
		USART_voidReceiveDataSynch(USART_1, &LOC_u8ReceivedData);
 8001016:	f107 031a 	add.w	r3, r7, #26
 800101a:	4619      	mov	r1, r3
 800101c:	2000      	movs	r0, #0
 800101e:	f002 ff87 	bl	8003f30 <USART_voidReceiveDataSynch>
		USART_voidSendDataSynch(USART_1, &LOC_u8ReceivedData);
 8001022:	f107 031a 	add.w	r3, r7, #26
 8001026:	4619      	mov	r1, r3
 8001028:	2000      	movs	r0, #0
 800102a:	f002 ff29 	bl	8003e80 <USART_voidSendDataSynch>
		LOC_u8Password[LOC_u8Counter] = (u8)LOC_u8ReceivedData;
 800102e:	8b7a      	ldrh	r2, [r7, #26]
 8001030:	8bfb      	ldrh	r3, [r7, #30]
 8001032:	b2d2      	uxtb	r2, r2
 8001034:	f107 0120 	add.w	r1, r7, #32
 8001038:	440b      	add	r3, r1
 800103a:	f803 2c1c 	strb.w	r2, [r3, #-28]
		LCD_voidSendChar(&myLCD, '*' );
 800103e:	212a      	movs	r1, #42	; 0x2a
 8001040:	483b      	ldr	r0, [pc, #236]	; (8001130 <System_u8ValidateAdminData+0x1f0>)
 8001042:	f001 f8c2 	bl	80021ca <LCD_voidSendChar>

		LOC_u8Counter++ ;
 8001046:	8bfb      	ldrh	r3, [r7, #30]
 8001048:	3301      	adds	r3, #1
 800104a:	83fb      	strh	r3, [r7, #30]

	}
	while((ID_SIZE >= LOC_u8Counter) && (UART_TERMINATE_CHAR != LOC_u8ReceivedData));
 800104c:	8bfb      	ldrh	r3, [r7, #30]
 800104e:	2b07      	cmp	r3, #7
 8001050:	d802      	bhi.n	8001058 <System_u8ValidateAdminData+0x118>
 8001052:	8b7b      	ldrh	r3, [r7, #26]
 8001054:	2b0d      	cmp	r3, #13
 8001056:	d1de      	bne.n	8001016 <System_u8ValidateAdminData+0xd6>
	LOC_u8Password[LOC_u8Counter-1] = '\0' ;
 8001058:	8bfb      	ldrh	r3, [r7, #30]
 800105a:	3b01      	subs	r3, #1
 800105c:	f107 0220 	add.w	r2, r7, #32
 8001060:	4413      	add	r3, r2
 8001062:	2200      	movs	r2, #0
 8001064:	f803 2c1c 	strb.w	r2, [r3, #-28]

	/*	Validate if Exist or not	*/
	if(!(compTwoStrings(LOC_u8userName , &Glob_u8AdminArr[0][0][0])))
 8001068:	f107 030c 	add.w	r3, r7, #12
 800106c:	4933      	ldr	r1, [pc, #204]	; (800113c <System_u8ValidateAdminData+0x1fc>)
 800106e:	4618      	mov	r0, r3
 8001070:	f000 fb22 	bl	80016b8 <compTwoStrings>
 8001074:	4603      	mov	r3, r0
 8001076:	2b00      	cmp	r3, #0
 8001078:	d135      	bne.n	80010e6 <System_u8ValidateAdminData+0x1a6>
	{
		// Check password
		if(!(compTwoStrings(LOC_u8Password , &Glob_u8AdminArr[0][1][0])))
 800107a:	1d3b      	adds	r3, r7, #4
 800107c:	4930      	ldr	r1, [pc, #192]	; (8001140 <System_u8ValidateAdminData+0x200>)
 800107e:	4618      	mov	r0, r3
 8001080:	f000 fb1a 	bl	80016b8 <compTwoStrings>
 8001084:	4603      	mov	r3, r0
 8001086:	2b00      	cmp	r3, #0
 8001088:	d10a      	bne.n	80010a0 <System_u8ValidateAdminData+0x160>
		{
			// Valid User Name and password
			LOC_u8Flag = 1 ;
 800108a:	2301      	movs	r3, #1
 800108c:	777b      	strb	r3, [r7, #29]
			Glob_LogginSeesionExpired = 0 ;
 800108e:	4b2d      	ldr	r3, [pc, #180]	; (8001144 <System_u8ValidateAdminData+0x204>)
 8001090:	2200      	movs	r2, #0
 8001092:	701a      	strb	r2, [r3, #0]
			USART_voidSendStringWithDelimiterSynch(USART_1, addString("\r\n********************* SUCCESSFUL LOGIN ****************************** \r\n\0"), '\0');
 8001094:	2200      	movs	r2, #0
 8001096:	492c      	ldr	r1, [pc, #176]	; (8001148 <System_u8ValidateAdminData+0x208>)
 8001098:	2000      	movs	r0, #0
 800109a:	f003 fa09 	bl	80044b0 <USART_voidSendStringWithDelimiterSynch>
 800109e:	e041      	b.n	8001124 <System_u8ValidateAdminData+0x1e4>

		}
		else
		{
			// invalid-username
			LCD_voidClear(&myLCD);
 80010a0:	4823      	ldr	r0, [pc, #140]	; (8001130 <System_u8ValidateAdminData+0x1f0>)
 80010a2:	f001 f9d0 	bl	8002446 <LCD_voidClear>
			LCD_voidGotoXY(&myLCD, 2, 1);
 80010a6:	2201      	movs	r2, #1
 80010a8:	2102      	movs	r1, #2
 80010aa:	4821      	ldr	r0, [pc, #132]	; (8001130 <System_u8ValidateAdminData+0x1f0>)
 80010ac:	f001 f996 	bl	80023dc <LCD_voidGotoXY>
			LCD_voidSendString(&myLCD, addString("Wrong Admin")) ;
 80010b0:	4926      	ldr	r1, [pc, #152]	; (800114c <System_u8ValidateAdminData+0x20c>)
 80010b2:	481f      	ldr	r0, [pc, #124]	; (8001130 <System_u8ValidateAdminData+0x1f0>)
 80010b4:	f001 f966 	bl	8002384 <LCD_voidSendString>
			LCD_voidGotoXY(&myLCD, 4, 2);
 80010b8:	2202      	movs	r2, #2
 80010ba:	2104      	movs	r1, #4
 80010bc:	481c      	ldr	r0, [pc, #112]	; (8001130 <System_u8ValidateAdminData+0x1f0>)
 80010be:	f001 f98d 	bl	80023dc <LCD_voidGotoXY>
			LCD_voidSendString(&myLCD, addString("Password")) ;
 80010c2:	4923      	ldr	r1, [pc, #140]	; (8001150 <System_u8ValidateAdminData+0x210>)
 80010c4:	481a      	ldr	r0, [pc, #104]	; (8001130 <System_u8ValidateAdminData+0x1f0>)
 80010c6:	f001 f95d 	bl	8002384 <LCD_voidSendString>
			_delay_ms(10);
 80010ca:	200a      	movs	r0, #10
 80010cc:	f7ff fc3e 	bl	800094c <xDelay>
			LOC_u8Flag = 0 ;
 80010d0:	2300      	movs	r3, #0
 80010d2:	777b      	strb	r3, [r7, #29]
			USART_voidSendStringWithDelimiterSynch(USART_1, addString("\r\n********************* UNSUCCESSFUL LOGIN ****************************** \r\n\0"), '\0');
 80010d4:	2200      	movs	r2, #0
 80010d6:	491f      	ldr	r1, [pc, #124]	; (8001154 <System_u8ValidateAdminData+0x214>)
 80010d8:	2000      	movs	r0, #0
 80010da:	f003 f9e9 	bl	80044b0 <USART_voidSendStringWithDelimiterSynch>
			Glob_LogginSeesionExpired = 1;
 80010de:	4b19      	ldr	r3, [pc, #100]	; (8001144 <System_u8ValidateAdminData+0x204>)
 80010e0:	2201      	movs	r2, #1
 80010e2:	701a      	strb	r2, [r3, #0]
 80010e4:	e01e      	b.n	8001124 <System_u8ValidateAdminData+0x1e4>
		}
	}
	else
	{
		// invalid-username
		LCD_voidClear(&myLCD);
 80010e6:	4812      	ldr	r0, [pc, #72]	; (8001130 <System_u8ValidateAdminData+0x1f0>)
 80010e8:	f001 f9ad 	bl	8002446 <LCD_voidClear>
		LCD_voidGotoXY(&myLCD, 2, 1);
 80010ec:	2201      	movs	r2, #1
 80010ee:	2102      	movs	r1, #2
 80010f0:	480f      	ldr	r0, [pc, #60]	; (8001130 <System_u8ValidateAdminData+0x1f0>)
 80010f2:	f001 f973 	bl	80023dc <LCD_voidGotoXY>
		LCD_voidSendString(&myLCD, addString("Wrong Admin")) ;
 80010f6:	4915      	ldr	r1, [pc, #84]	; (800114c <System_u8ValidateAdminData+0x20c>)
 80010f8:	480d      	ldr	r0, [pc, #52]	; (8001130 <System_u8ValidateAdminData+0x1f0>)
 80010fa:	f001 f943 	bl	8002384 <LCD_voidSendString>
		LCD_voidGotoXY(&myLCD, 6, 2);
 80010fe:	2202      	movs	r2, #2
 8001100:	2106      	movs	r1, #6
 8001102:	480b      	ldr	r0, [pc, #44]	; (8001130 <System_u8ValidateAdminData+0x1f0>)
 8001104:	f001 f96a 	bl	80023dc <LCD_voidGotoXY>
		LCD_voidSendString(&myLCD, addString("Name")) ;
 8001108:	4913      	ldr	r1, [pc, #76]	; (8001158 <System_u8ValidateAdminData+0x218>)
 800110a:	4809      	ldr	r0, [pc, #36]	; (8001130 <System_u8ValidateAdminData+0x1f0>)
 800110c:	f001 f93a 	bl	8002384 <LCD_voidSendString>
		USART_voidSendStringWithDelimiterSynch(USART_1, addString("\r\n********************* UNSUCCESSFUL LOGIN ****************************** \r\n\0"), '\0');
 8001110:	2200      	movs	r2, #0
 8001112:	4910      	ldr	r1, [pc, #64]	; (8001154 <System_u8ValidateAdminData+0x214>)
 8001114:	2000      	movs	r0, #0
 8001116:	f003 f9cb 	bl	80044b0 <USART_voidSendStringWithDelimiterSynch>
		Glob_LogginSeesionExpired = 1;
 800111a:	4b0a      	ldr	r3, [pc, #40]	; (8001144 <System_u8ValidateAdminData+0x204>)
 800111c:	2201      	movs	r2, #1
 800111e:	701a      	strb	r2, [r3, #0]
		LOC_u8Flag = 0 ;
 8001120:	2300      	movs	r3, #0
 8001122:	777b      	strb	r3, [r7, #29]
	}

	return LOC_u8Flag ;
 8001124:	7f7b      	ldrb	r3, [r7, #29]
}
 8001126:	4618      	mov	r0, r3
 8001128:	3720      	adds	r7, #32
 800112a:	46bd      	mov	sp, r7
 800112c:	bd80      	pop	{r7, pc}
 800112e:	bf00      	nop
 8001130:	200000a4 	.word	0x200000a4
 8001134:	08004664 	.word	0x08004664
 8001138:	08004674 	.word	0x08004674
 800113c:	20000140 	.word	0x20000140
 8001140:	2000014b 	.word	0x2000014b
 8001144:	20000010 	.word	0x20000010
 8001148:	08004684 	.word	0x08004684
 800114c:	080046d0 	.word	0x080046d0
 8001150:	080046dc 	.word	0x080046dc
 8001154:	080046e8 	.word	0x080046e8
 8001158:	08004738 	.word	0x08004738

0800115c <System_voidAddNewUser>:


static void System_voidAddNewUser(void)
{
 800115c:	b590      	push	{r4, r7, lr}
 800115e:	b083      	sub	sp, #12
 8001160:	af00      	add	r7, sp, #0


	if(MAX_SLOTS_IN_GARAGE > Glob_u8NumberOfCurrentUsers)
 8001162:	4b7c      	ldr	r3, [pc, #496]	; (8001354 <System_voidAddNewUser+0x1f8>)
 8001164:	781b      	ldrb	r3, [r3, #0]
 8001166:	2b02      	cmp	r3, #2
 8001168:	f200 80d7 	bhi.w	800131a <System_voidAddNewUser+0x1be>
	{
		u16 LOC_u8ReceivedData = 0 ; u8 LOC_u8ArrayIndex ;
 800116c:	2300      	movs	r3, #0
 800116e:	80bb      	strh	r3, [r7, #4]
		u8 LOC_u8Counter = 0 ;
 8001170:	2300      	movs	r3, #0
 8001172:	71bb      	strb	r3, [r7, #6]
		// Get Free Array Index
		for(LOC_u8Counter = 0 ; LOC_u8Counter < MAX_SLOTS_IN_GARAGE ; LOC_u8Counter++)
 8001174:	2300      	movs	r3, #0
 8001176:	71bb      	strb	r3, [r7, #6]
 8001178:	e010      	b.n	800119c <System_voidAddNewUser+0x40>
		{
			if(Glob_u8DriverFreeIndex[LOC_u8Counter] == 1)
 800117a:	79bb      	ldrb	r3, [r7, #6]
 800117c:	4a76      	ldr	r2, [pc, #472]	; (8001358 <System_voidAddNewUser+0x1fc>)
 800117e:	5cd3      	ldrb	r3, [r2, r3]
 8001180:	2b01      	cmp	r3, #1
 8001182:	d108      	bne.n	8001196 <System_voidAddNewUser+0x3a>
			{
				LOC_u8ArrayIndex = LOC_u8Counter;
 8001184:	79bb      	ldrb	r3, [r7, #6]
 8001186:	71fb      	strb	r3, [r7, #7]
				Glob_u8DriverFreeIndex[LOC_u8Counter] = 0 ;
 8001188:	79bb      	ldrb	r3, [r7, #6]
 800118a:	4a73      	ldr	r2, [pc, #460]	; (8001358 <System_voidAddNewUser+0x1fc>)
 800118c:	2100      	movs	r1, #0
 800118e:	54d1      	strb	r1, [r2, r3]
				LOC_u8Counter = 0 ;
 8001190:	2300      	movs	r3, #0
 8001192:	71bb      	strb	r3, [r7, #6]
				break ;
 8001194:	e005      	b.n	80011a2 <System_voidAddNewUser+0x46>
		for(LOC_u8Counter = 0 ; LOC_u8Counter < MAX_SLOTS_IN_GARAGE ; LOC_u8Counter++)
 8001196:	79bb      	ldrb	r3, [r7, #6]
 8001198:	3301      	adds	r3, #1
 800119a:	71bb      	strb	r3, [r7, #6]
 800119c:	79bb      	ldrb	r3, [r7, #6]
 800119e:	2b02      	cmp	r3, #2
 80011a0:	d9eb      	bls.n	800117a <System_voidAddNewUser+0x1e>
			}
		}
		// Can Add new Driver
		LCD_voidSetCursorType(&myLCD, CURS_OFF) ;
 80011a2:	210c      	movs	r1, #12
 80011a4:	486d      	ldr	r0, [pc, #436]	; (800135c <System_voidAddNewUser+0x200>)
 80011a6:	f001 f90a 	bl	80023be <LCD_voidSetCursorType>
		LCD_voidClear(&myLCD);
 80011aa:	486c      	ldr	r0, [pc, #432]	; (800135c <System_voidAddNewUser+0x200>)
 80011ac:	f001 f94b 	bl	8002446 <LCD_voidClear>
		USART_voidSendStringWithDelimiterSynch(USART_1, addString("\r\n********************* Adding Driver Data ****************************** \r\n\0"), '\0');
 80011b0:	2200      	movs	r2, #0
 80011b2:	496b      	ldr	r1, [pc, #428]	; (8001360 <System_voidAddNewUser+0x204>)
 80011b4:	2000      	movs	r0, #0
 80011b6:	f003 f97b 	bl	80044b0 <USART_voidSendStringWithDelimiterSynch>

		LCD_voidSendString(&myLCD,addString("Driver Username"));
 80011ba:	496a      	ldr	r1, [pc, #424]	; (8001364 <System_voidAddNewUser+0x208>)
 80011bc:	4867      	ldr	r0, [pc, #412]	; (800135c <System_voidAddNewUser+0x200>)
 80011be:	f001 f8e1 	bl	8002384 <LCD_voidSendString>
		LCD_voidGotoXY(&myLCD,0,1);
 80011c2:	2201      	movs	r2, #1
 80011c4:	2100      	movs	r1, #0
 80011c6:	4865      	ldr	r0, [pc, #404]	; (800135c <System_voidAddNewUser+0x200>)
 80011c8:	f001 f908 	bl	80023dc <LCD_voidGotoXY>
		LCD_voidSetCursorType(&myLCD, CURS_ON_BLINK) ;
 80011cc:	210f      	movs	r1, #15
 80011ce:	4863      	ldr	r0, [pc, #396]	; (800135c <System_voidAddNewUser+0x200>)
 80011d0:	f001 f8f5 	bl	80023be <LCD_voidSetCursorType>
		// Take Name
		while((LOC_u8ReceivedData != UART_TERMINATE_CHAR) && LOC_u8Counter <= NAME_MAX_SIZE)
 80011d4:	e02a      	b.n	800122c <System_voidAddNewUser+0xd0>
		{
			USART_voidReceiveDataSynch(USART_1, &LOC_u8ReceivedData);
 80011d6:	1d3b      	adds	r3, r7, #4
 80011d8:	4619      	mov	r1, r3
 80011da:	2000      	movs	r0, #0
 80011dc:	f002 fea8 	bl	8003f30 <USART_voidReceiveDataSynch>

			if((LOC_u8ReceivedData >= 'a'  && LOC_u8ReceivedData <= 'z') || (LOC_u8ReceivedData >= 'A'  && LOC_u8ReceivedData <= 'Z'))
 80011e0:	88bb      	ldrh	r3, [r7, #4]
 80011e2:	2b60      	cmp	r3, #96	; 0x60
 80011e4:	d902      	bls.n	80011ec <System_voidAddNewUser+0x90>
 80011e6:	88bb      	ldrh	r3, [r7, #4]
 80011e8:	2b7a      	cmp	r3, #122	; 0x7a
 80011ea:	d905      	bls.n	80011f8 <System_voidAddNewUser+0x9c>
 80011ec:	88bb      	ldrh	r3, [r7, #4]
 80011ee:	2b40      	cmp	r3, #64	; 0x40
 80011f0:	d91c      	bls.n	800122c <System_voidAddNewUser+0xd0>
 80011f2:	88bb      	ldrh	r3, [r7, #4]
 80011f4:	2b5a      	cmp	r3, #90	; 0x5a
 80011f6:	d819      	bhi.n	800122c <System_voidAddNewUser+0xd0>
			{
				USART_voidSendDataSynch(USART_1, &LOC_u8ReceivedData);
 80011f8:	1d3b      	adds	r3, r7, #4
 80011fa:	4619      	mov	r1, r3
 80011fc:	2000      	movs	r0, #0
 80011fe:	f002 fe3f 	bl	8003e80 <USART_voidSendDataSynch>
				LCD_voidSendChar(&myLCD, (u8)LOC_u8ReceivedData );
 8001202:	88bb      	ldrh	r3, [r7, #4]
 8001204:	b2db      	uxtb	r3, r3
 8001206:	4619      	mov	r1, r3
 8001208:	4854      	ldr	r0, [pc, #336]	; (800135c <System_voidAddNewUser+0x200>)
 800120a:	f000 ffde 	bl	80021ca <LCD_voidSendChar>
				// Save it on Array
				Glob_u8DriverArr[LOC_u8ArrayIndex][0][LOC_u8Counter] = (u8)LOC_u8ReceivedData ;
 800120e:	88b9      	ldrh	r1, [r7, #4]
 8001210:	79fa      	ldrb	r2, [r7, #7]
 8001212:	79bb      	ldrb	r3, [r7, #6]
 8001214:	b2cc      	uxtb	r4, r1
 8001216:	4954      	ldr	r1, [pc, #336]	; (8001368 <System_voidAddNewUser+0x20c>)
 8001218:	2016      	movs	r0, #22
 800121a:	fb00 f202 	mul.w	r2, r0, r2
 800121e:	440a      	add	r2, r1
 8001220:	4413      	add	r3, r2
 8001222:	4622      	mov	r2, r4
 8001224:	701a      	strb	r2, [r3, #0]
				LOC_u8Counter++ ;
 8001226:	79bb      	ldrb	r3, [r7, #6]
 8001228:	3301      	adds	r3, #1
 800122a:	71bb      	strb	r3, [r7, #6]
		while((LOC_u8ReceivedData != UART_TERMINATE_CHAR) && LOC_u8Counter <= NAME_MAX_SIZE)
 800122c:	88bb      	ldrh	r3, [r7, #4]
 800122e:	2b0d      	cmp	r3, #13
 8001230:	d002      	beq.n	8001238 <System_voidAddNewUser+0xdc>
 8001232:	79bb      	ldrb	r3, [r7, #6]
 8001234:	2b0a      	cmp	r3, #10
 8001236:	d9ce      	bls.n	80011d6 <System_voidAddNewUser+0x7a>
			else
			{
				// Unsupported
			}
		}
		Glob_u8DriverArr[LOC_u8ArrayIndex][0][++LOC_u8Counter] = (u8)'\0' ;
 8001238:	79fa      	ldrb	r2, [r7, #7]
 800123a:	79bb      	ldrb	r3, [r7, #6]
 800123c:	3301      	adds	r3, #1
 800123e:	71bb      	strb	r3, [r7, #6]
 8001240:	79bb      	ldrb	r3, [r7, #6]
 8001242:	4949      	ldr	r1, [pc, #292]	; (8001368 <System_voidAddNewUser+0x20c>)
 8001244:	2016      	movs	r0, #22
 8001246:	fb00 f202 	mul.w	r2, r0, r2
 800124a:	440a      	add	r2, r1
 800124c:	4413      	add	r3, r2
 800124e:	2200      	movs	r2, #0
 8001250:	701a      	strb	r2, [r3, #0]
		// Take ID
		USART_voidSendStringWithDelimiterSynch(USART_1, addString("\r\n\0"), '\0');
 8001252:	2200      	movs	r2, #0
 8001254:	4945      	ldr	r1, [pc, #276]	; (800136c <System_voidAddNewUser+0x210>)
 8001256:	2000      	movs	r0, #0
 8001258:	f003 f92a 	bl	80044b0 <USART_voidSendStringWithDelimiterSynch>

		LCD_voidSetCursorType(&myLCD, CURS_OFF) ;
 800125c:	210c      	movs	r1, #12
 800125e:	483f      	ldr	r0, [pc, #252]	; (800135c <System_voidAddNewUser+0x200>)
 8001260:	f001 f8ad 	bl	80023be <LCD_voidSetCursorType>
		LCD_voidGotoXY(&myLCD,0,2);
 8001264:	2202      	movs	r2, #2
 8001266:	2100      	movs	r1, #0
 8001268:	483c      	ldr	r0, [pc, #240]	; (800135c <System_voidAddNewUser+0x200>)
 800126a:	f001 f8b7 	bl	80023dc <LCD_voidGotoXY>
		LCD_voidSendString(&myLCD,addString("Driver ID"));
 800126e:	4940      	ldr	r1, [pc, #256]	; (8001370 <System_voidAddNewUser+0x214>)
 8001270:	483a      	ldr	r0, [pc, #232]	; (800135c <System_voidAddNewUser+0x200>)
 8001272:	f001 f887 	bl	8002384 <LCD_voidSendString>
		LCD_voidGotoXY(&myLCD,0,3);
 8001276:	2203      	movs	r2, #3
 8001278:	2100      	movs	r1, #0
 800127a:	4838      	ldr	r0, [pc, #224]	; (800135c <System_voidAddNewUser+0x200>)
 800127c:	f001 f8ae 	bl	80023dc <LCD_voidGotoXY>
		LOC_u8Counter = 0 ;
 8001280:	2300      	movs	r3, #0
 8001282:	71bb      	strb	r3, [r7, #6]
		LOC_u8ReceivedData = 0 ;
 8001284:	2300      	movs	r3, #0
 8001286:	80bb      	strh	r3, [r7, #4]

		LCD_voidSetCursorType(&myLCD, CURS_ON_BLINK) ;
 8001288:	210f      	movs	r1, #15
 800128a:	4834      	ldr	r0, [pc, #208]	; (800135c <System_voidAddNewUser+0x200>)
 800128c:	f001 f897 	bl	80023be <LCD_voidSetCursorType>

		do
		{
			USART_voidReceiveDataSynch(USART_1, &LOC_u8ReceivedData);
 8001290:	1d3b      	adds	r3, r7, #4
 8001292:	4619      	mov	r1, r3
 8001294:	2000      	movs	r0, #0
 8001296:	f002 fe4b 	bl	8003f30 <USART_voidReceiveDataSynch>
			if((LOC_u8ReceivedData >= '0'  && LOC_u8ReceivedData <= '9'))
 800129a:	88bb      	ldrh	r3, [r7, #4]
 800129c:	2b2f      	cmp	r3, #47	; 0x2f
 800129e:	d91d      	bls.n	80012dc <System_voidAddNewUser+0x180>
 80012a0:	88bb      	ldrh	r3, [r7, #4]
 80012a2:	2b39      	cmp	r3, #57	; 0x39
 80012a4:	d81a      	bhi.n	80012dc <System_voidAddNewUser+0x180>
			{
				USART_voidSendDataSynch(USART_1, &LOC_u8ReceivedData);
 80012a6:	1d3b      	adds	r3, r7, #4
 80012a8:	4619      	mov	r1, r3
 80012aa:	2000      	movs	r0, #0
 80012ac:	f002 fde8 	bl	8003e80 <USART_voidSendDataSynch>
				LCD_voidSendChar(&myLCD, (u8)LOC_u8ReceivedData );
 80012b0:	88bb      	ldrh	r3, [r7, #4]
 80012b2:	b2db      	uxtb	r3, r3
 80012b4:	4619      	mov	r1, r3
 80012b6:	4829      	ldr	r0, [pc, #164]	; (800135c <System_voidAddNewUser+0x200>)
 80012b8:	f000 ff87 	bl	80021ca <LCD_voidSendChar>
				// Save it on Array
				Glob_u8DriverArr[LOC_u8ArrayIndex][1][LOC_u8Counter] = (u8)LOC_u8ReceivedData ;
 80012bc:	88b9      	ldrh	r1, [r7, #4]
 80012be:	79fa      	ldrb	r2, [r7, #7]
 80012c0:	79bb      	ldrb	r3, [r7, #6]
 80012c2:	b2cc      	uxtb	r4, r1
 80012c4:	4928      	ldr	r1, [pc, #160]	; (8001368 <System_voidAddNewUser+0x20c>)
 80012c6:	2016      	movs	r0, #22
 80012c8:	fb00 f202 	mul.w	r2, r0, r2
 80012cc:	440a      	add	r2, r1
 80012ce:	4413      	add	r3, r2
 80012d0:	330b      	adds	r3, #11
 80012d2:	4622      	mov	r2, r4
 80012d4:	701a      	strb	r2, [r3, #0]
				LOC_u8Counter++ ;
 80012d6:	79bb      	ldrb	r3, [r7, #6]
 80012d8:	3301      	adds	r3, #1
 80012da:	71bb      	strb	r3, [r7, #6]
			else
			{
				// Unsupported
			}
		}
		while((ID_SIZE >= LOC_u8Counter) && (UART_TERMINATE_CHAR != LOC_u8ReceivedData));
 80012dc:	79bb      	ldrb	r3, [r7, #6]
 80012de:	2b07      	cmp	r3, #7
 80012e0:	d802      	bhi.n	80012e8 <System_voidAddNewUser+0x18c>
 80012e2:	88bb      	ldrh	r3, [r7, #4]
 80012e4:	2b0d      	cmp	r3, #13
 80012e6:	d1d3      	bne.n	8001290 <System_voidAddNewUser+0x134>
		Glob_u8DriverArr[LOC_u8ArrayIndex][1][LOC_u8Counter] = '\0' ;
 80012e8:	79fa      	ldrb	r2, [r7, #7]
 80012ea:	79bb      	ldrb	r3, [r7, #6]
 80012ec:	491e      	ldr	r1, [pc, #120]	; (8001368 <System_voidAddNewUser+0x20c>)
 80012ee:	2016      	movs	r0, #22
 80012f0:	fb00 f202 	mul.w	r2, r0, r2
 80012f4:	440a      	add	r2, r1
 80012f6:	4413      	add	r3, r2
 80012f8:	330b      	adds	r3, #11
 80012fa:	2200      	movs	r2, #0
 80012fc:	701a      	strb	r2, [r3, #0]


		Glob_u8NumberOfCurrentUsers++ ;
 80012fe:	4b15      	ldr	r3, [pc, #84]	; (8001354 <System_voidAddNewUser+0x1f8>)
 8001300:	781b      	ldrb	r3, [r3, #0]
 8001302:	3301      	adds	r3, #1
 8001304:	b2da      	uxtb	r2, r3
 8001306:	4b13      	ldr	r3, [pc, #76]	; (8001354 <System_voidAddNewUser+0x1f8>)
 8001308:	701a      	strb	r2, [r3, #0]
		USART_voidSendStringWithDelimiterSynch(USART_1, addString("\r\n********************* DONE ****************************** \r\n\0"), '\0');
 800130a:	2200      	movs	r2, #0
 800130c:	4919      	ldr	r1, [pc, #100]	; (8001374 <System_voidAddNewUser+0x218>)
 800130e:	2000      	movs	r0, #0
 8001310:	f003 f8ce 	bl	80044b0 <USART_voidSendStringWithDelimiterSynch>
		LCD_AddDriver();
 8001314:	f000 fc22 	bl	8001b5c <LCD_AddDriver>
		LCD_voidMainScreen();
	}



}
 8001318:	e018      	b.n	800134c <System_voidAddNewUser+0x1f0>
		LCD_voidSetCursorType(&myLCD, CURS_OFF ) ;
 800131a:	210c      	movs	r1, #12
 800131c:	480f      	ldr	r0, [pc, #60]	; (800135c <System_voidAddNewUser+0x200>)
 800131e:	f001 f84e 	bl	80023be <LCD_voidSetCursorType>
		LCD_voidClear(&myLCD);
 8001322:	480e      	ldr	r0, [pc, #56]	; (800135c <System_voidAddNewUser+0x200>)
 8001324:	f001 f88f 	bl	8002446 <LCD_voidClear>
		LCD_voidSendString(&myLCD,addString("PARKING GARAGE"));
 8001328:	4913      	ldr	r1, [pc, #76]	; (8001378 <System_voidAddNewUser+0x21c>)
 800132a:	480c      	ldr	r0, [pc, #48]	; (800135c <System_voidAddNewUser+0x200>)
 800132c:	f001 f82a 	bl	8002384 <LCD_voidSendString>
		LCD_voidGotoXY(&myLCD,2,1);
 8001330:	2201      	movs	r2, #1
 8001332:	2102      	movs	r1, #2
 8001334:	4809      	ldr	r0, [pc, #36]	; (800135c <System_voidAddNewUser+0x200>)
 8001336:	f001 f851 	bl	80023dc <LCD_voidGotoXY>
		LCD_voidSendString(&myLCD,addString("FULL CAPACITY"));
 800133a:	4910      	ldr	r1, [pc, #64]	; (800137c <System_voidAddNewUser+0x220>)
 800133c:	4807      	ldr	r0, [pc, #28]	; (800135c <System_voidAddNewUser+0x200>)
 800133e:	f001 f821 	bl	8002384 <LCD_voidSendString>
		_delay_ms(200);
 8001342:	20c8      	movs	r0, #200	; 0xc8
 8001344:	f7ff fb02 	bl	800094c <xDelay>
		LCD_voidMainScreen();
 8001348:	f000 fb5a 	bl	8001a00 <LCD_voidMainScreen>
}
 800134c:	bf00      	nop
 800134e:	370c      	adds	r7, #12
 8001350:	46bd      	mov	sp, r7
 8001352:	bd90      	pop	{r4, r7, pc}
 8001354:	2000016c 	.word	0x2000016c
 8001358:	20000014 	.word	0x20000014
 800135c:	200000a4 	.word	0x200000a4
 8001360:	08004740 	.word	0x08004740
 8001364:	08004790 	.word	0x08004790
 8001368:	20000170 	.word	0x20000170
 800136c:	080047a0 	.word	0x080047a0
 8001370:	080047a4 	.word	0x080047a4
 8001374:	080047b0 	.word	0x080047b0
 8001378:	080047f0 	.word	0x080047f0
 800137c:	08004800 	.word	0x08004800

08001380 <System_VoidDeleteUser>:
static void System_VoidDeleteUser(DeletingDrivers_t copy_DeleteType)
{
 8001380:	b580      	push	{r7, lr}
 8001382:	b08a      	sub	sp, #40	; 0x28
 8001384:	af00      	add	r7, sp, #0
 8001386:	4603      	mov	r3, r0
 8001388:	71fb      	strb	r3, [r7, #7]

	if(Glob_u8NumberOfCurrentUsers != 0)
 800138a:	4bbd      	ldr	r3, [pc, #756]	; (8001680 <System_VoidDeleteUser+0x300>)
 800138c:	781b      	ldrb	r3, [r3, #0]
 800138e:	2b00      	cmp	r3, #0
 8001390:	f000 814f 	beq.w	8001632 <System_VoidDeleteUser+0x2b2>
	{
		u8 LOC_u8Counter = 0 ;
 8001394:	2300      	movs	r3, #0
 8001396:	f887 3027 	strb.w	r3, [r7, #39]	; 0x27
		if(copy_DeleteType == DELT_ONE_DRIVER)
 800139a:	79fb      	ldrb	r3, [r7, #7]
 800139c:	2b00      	cmp	r3, #0
 800139e:	f040 812b 	bne.w	80015f8 <System_VoidDeleteUser+0x278>
		{
			// Search For Users
			LCD_voidSetCursorType(&myLCD, CURS_OFF) ;
 80013a2:	210c      	movs	r1, #12
 80013a4:	48b7      	ldr	r0, [pc, #732]	; (8001684 <System_VoidDeleteUser+0x304>)
 80013a6:	f001 f80a 	bl	80023be <LCD_voidSetCursorType>
			LCD_voidClear(&myLCD);
 80013aa:	48b6      	ldr	r0, [pc, #728]	; (8001684 <System_VoidDeleteUser+0x304>)
 80013ac:	f001 f84b 	bl	8002446 <LCD_voidClear>
			USART_voidSendStringWithDelimiterSynch(USART_1, addString("\r\n********************* Delete Driver ****************************** \r\n\0"), '\0');
 80013b0:	2200      	movs	r2, #0
 80013b2:	49b5      	ldr	r1, [pc, #724]	; (8001688 <System_VoidDeleteUser+0x308>)
 80013b4:	2000      	movs	r0, #0
 80013b6:	f003 f87b 	bl	80044b0 <USART_voidSendStringWithDelimiterSynch>

			LCD_voidSendString(&myLCD,addString("Driver Username"));
 80013ba:	49b4      	ldr	r1, [pc, #720]	; (800168c <System_VoidDeleteUser+0x30c>)
 80013bc:	48b1      	ldr	r0, [pc, #708]	; (8001684 <System_VoidDeleteUser+0x304>)
 80013be:	f000 ffe1 	bl	8002384 <LCD_voidSendString>
			LCD_voidGotoXY(&myLCD,0,1);
 80013c2:	2201      	movs	r2, #1
 80013c4:	2100      	movs	r1, #0
 80013c6:	48af      	ldr	r0, [pc, #700]	; (8001684 <System_VoidDeleteUser+0x304>)
 80013c8:	f001 f808 	bl	80023dc <LCD_voidGotoXY>
			LCD_voidSetCursorType(&myLCD, CURS_ON_BLINK) ;
 80013cc:	210f      	movs	r1, #15
 80013ce:	48ad      	ldr	r0, [pc, #692]	; (8001684 <System_VoidDeleteUser+0x304>)
 80013d0:	f000 fff5 	bl	80023be <LCD_voidSetCursorType>

			u8 LOC_u8username[NAME_MAX_SIZE+1];
			u8 LOC_u8ID[ID_SIZE+1];
			u16 LOC_u8ReceivedData = 0 ;
 80013d4:	2300      	movs	r3, #0
 80013d6:	81fb      	strh	r3, [r7, #14]

			// Take Name
			while((LOC_u8ReceivedData != UART_TERMINATE_CHAR) && LOC_u8Counter <= NAME_MAX_SIZE)
 80013d8:	e02b      	b.n	8001432 <System_VoidDeleteUser+0xb2>
			{
				USART_voidReceiveDataSynch(USART_1, &LOC_u8ReceivedData);
 80013da:	f107 030e 	add.w	r3, r7, #14
 80013de:	4619      	mov	r1, r3
 80013e0:	2000      	movs	r0, #0
 80013e2:	f002 fda5 	bl	8003f30 <USART_voidReceiveDataSynch>

				if((LOC_u8ReceivedData >= 'a'  && LOC_u8ReceivedData <= 'z') || (LOC_u8ReceivedData >= 'A'  && LOC_u8ReceivedData <= 'Z'))
 80013e6:	89fb      	ldrh	r3, [r7, #14]
 80013e8:	2b60      	cmp	r3, #96	; 0x60
 80013ea:	d902      	bls.n	80013f2 <System_VoidDeleteUser+0x72>
 80013ec:	89fb      	ldrh	r3, [r7, #14]
 80013ee:	2b7a      	cmp	r3, #122	; 0x7a
 80013f0:	d905      	bls.n	80013fe <System_VoidDeleteUser+0x7e>
 80013f2:	89fb      	ldrh	r3, [r7, #14]
 80013f4:	2b40      	cmp	r3, #64	; 0x40
 80013f6:	d91c      	bls.n	8001432 <System_VoidDeleteUser+0xb2>
 80013f8:	89fb      	ldrh	r3, [r7, #14]
 80013fa:	2b5a      	cmp	r3, #90	; 0x5a
 80013fc:	d819      	bhi.n	8001432 <System_VoidDeleteUser+0xb2>
				{
					USART_voidSendDataSynch(USART_1, &LOC_u8ReceivedData);
 80013fe:	f107 030e 	add.w	r3, r7, #14
 8001402:	4619      	mov	r1, r3
 8001404:	2000      	movs	r0, #0
 8001406:	f002 fd3b 	bl	8003e80 <USART_voidSendDataSynch>
					LCD_voidSendChar(&myLCD, (u8)LOC_u8ReceivedData );
 800140a:	89fb      	ldrh	r3, [r7, #14]
 800140c:	b2db      	uxtb	r3, r3
 800140e:	4619      	mov	r1, r3
 8001410:	489c      	ldr	r0, [pc, #624]	; (8001684 <System_VoidDeleteUser+0x304>)
 8001412:	f000 feda 	bl	80021ca <LCD_voidSendChar>
					// Save it on Array
					LOC_u8username[LOC_u8Counter] = (u8)LOC_u8ReceivedData ;
 8001416:	89fa      	ldrh	r2, [r7, #14]
 8001418:	f897 3027 	ldrb.w	r3, [r7, #39]	; 0x27
 800141c:	b2d2      	uxtb	r2, r2
 800141e:	f107 0128 	add.w	r1, r7, #40	; 0x28
 8001422:	440b      	add	r3, r1
 8001424:	f803 2c10 	strb.w	r2, [r3, #-16]
					LOC_u8Counter++ ;
 8001428:	f897 3027 	ldrb.w	r3, [r7, #39]	; 0x27
 800142c:	3301      	adds	r3, #1
 800142e:	f887 3027 	strb.w	r3, [r7, #39]	; 0x27
			while((LOC_u8ReceivedData != UART_TERMINATE_CHAR) && LOC_u8Counter <= NAME_MAX_SIZE)
 8001432:	89fb      	ldrh	r3, [r7, #14]
 8001434:	2b0d      	cmp	r3, #13
 8001436:	d003      	beq.n	8001440 <System_VoidDeleteUser+0xc0>
 8001438:	f897 3027 	ldrb.w	r3, [r7, #39]	; 0x27
 800143c:	2b0a      	cmp	r3, #10
 800143e:	d9cc      	bls.n	80013da <System_VoidDeleteUser+0x5a>
				{
					// Unsupported
				}
			}

			LOC_u8username[LOC_u8Counter] = (u8)'\0' ;
 8001440:	f897 3027 	ldrb.w	r3, [r7, #39]	; 0x27
 8001444:	f107 0228 	add.w	r2, r7, #40	; 0x28
 8001448:	4413      	add	r3, r2
 800144a:	2200      	movs	r2, #0
 800144c:	f803 2c10 	strb.w	r2, [r3, #-16]
			LOC_u8ReceivedData = 0 ;
 8001450:	2300      	movs	r3, #0
 8001452:	81fb      	strh	r3, [r7, #14]
			LOC_u8Counter = 0 ;
 8001454:	2300      	movs	r3, #0
 8001456:	f887 3027 	strb.w	r3, [r7, #39]	; 0x27
			USART_voidSendStringWithDelimiterSynch(USART_1, addString("\r\n\0"), '\0');
 800145a:	2200      	movs	r2, #0
 800145c:	498c      	ldr	r1, [pc, #560]	; (8001690 <System_VoidDeleteUser+0x310>)
 800145e:	2000      	movs	r0, #0
 8001460:	f003 f826 	bl	80044b0 <USART_voidSendStringWithDelimiterSynch>

			LCD_voidSetCursorType(&myLCD, CURS_OFF) ;
 8001464:	210c      	movs	r1, #12
 8001466:	4887      	ldr	r0, [pc, #540]	; (8001684 <System_VoidDeleteUser+0x304>)
 8001468:	f000 ffa9 	bl	80023be <LCD_voidSetCursorType>
			LCD_voidGotoXY(&myLCD,0,2);
 800146c:	2202      	movs	r2, #2
 800146e:	2100      	movs	r1, #0
 8001470:	4884      	ldr	r0, [pc, #528]	; (8001684 <System_VoidDeleteUser+0x304>)
 8001472:	f000 ffb3 	bl	80023dc <LCD_voidGotoXY>
			LCD_voidSendString(&myLCD,addString("Driver ID"));
 8001476:	4987      	ldr	r1, [pc, #540]	; (8001694 <System_VoidDeleteUser+0x314>)
 8001478:	4882      	ldr	r0, [pc, #520]	; (8001684 <System_VoidDeleteUser+0x304>)
 800147a:	f000 ff83 	bl	8002384 <LCD_voidSendString>
			LCD_voidGotoXY(&myLCD,0,3);
 800147e:	2203      	movs	r2, #3
 8001480:	2100      	movs	r1, #0
 8001482:	4880      	ldr	r0, [pc, #512]	; (8001684 <System_VoidDeleteUser+0x304>)
 8001484:	f000 ffaa 	bl	80023dc <LCD_voidGotoXY>
			LOC_u8Counter = 0 ;
 8001488:	2300      	movs	r3, #0
 800148a:	f887 3027 	strb.w	r3, [r7, #39]	; 0x27
			LOC_u8ReceivedData = 0 ;
 800148e:	2300      	movs	r3, #0
 8001490:	81fb      	strh	r3, [r7, #14]

			LCD_voidSetCursorType(&myLCD, CURS_ON_BLINK) ;
 8001492:	210f      	movs	r1, #15
 8001494:	487b      	ldr	r0, [pc, #492]	; (8001684 <System_VoidDeleteUser+0x304>)
 8001496:	f000 ff92 	bl	80023be <LCD_voidSetCursorType>

			do
			{
				USART_voidReceiveDataSynch(USART_1, &LOC_u8ReceivedData);
 800149a:	f107 030e 	add.w	r3, r7, #14
 800149e:	4619      	mov	r1, r3
 80014a0:	2000      	movs	r0, #0
 80014a2:	f002 fd45 	bl	8003f30 <USART_voidReceiveDataSynch>
				if((LOC_u8ReceivedData >= '0'  && LOC_u8ReceivedData <= '9'))
 80014a6:	89fb      	ldrh	r3, [r7, #14]
 80014a8:	2b2f      	cmp	r3, #47	; 0x2f
 80014aa:	d91c      	bls.n	80014e6 <System_VoidDeleteUser+0x166>
 80014ac:	89fb      	ldrh	r3, [r7, #14]
 80014ae:	2b39      	cmp	r3, #57	; 0x39
 80014b0:	d819      	bhi.n	80014e6 <System_VoidDeleteUser+0x166>
				{
					USART_voidSendDataSynch(USART_1, &LOC_u8ReceivedData);
 80014b2:	f107 030e 	add.w	r3, r7, #14
 80014b6:	4619      	mov	r1, r3
 80014b8:	2000      	movs	r0, #0
 80014ba:	f002 fce1 	bl	8003e80 <USART_voidSendDataSynch>
					LCD_voidSendChar(&myLCD, (u8)LOC_u8ReceivedData );
 80014be:	89fb      	ldrh	r3, [r7, #14]
 80014c0:	b2db      	uxtb	r3, r3
 80014c2:	4619      	mov	r1, r3
 80014c4:	486f      	ldr	r0, [pc, #444]	; (8001684 <System_VoidDeleteUser+0x304>)
 80014c6:	f000 fe80 	bl	80021ca <LCD_voidSendChar>
					// Save it on Array
					LOC_u8ID[LOC_u8Counter] = (u8)LOC_u8ReceivedData ;
 80014ca:	89fa      	ldrh	r2, [r7, #14]
 80014cc:	f897 3027 	ldrb.w	r3, [r7, #39]	; 0x27
 80014d0:	b2d2      	uxtb	r2, r2
 80014d2:	f107 0128 	add.w	r1, r7, #40	; 0x28
 80014d6:	440b      	add	r3, r1
 80014d8:	f803 2c18 	strb.w	r2, [r3, #-24]
					LOC_u8Counter++ ;
 80014dc:	f897 3027 	ldrb.w	r3, [r7, #39]	; 0x27
 80014e0:	3301      	adds	r3, #1
 80014e2:	f887 3027 	strb.w	r3, [r7, #39]	; 0x27
				else
				{
					// Unsupported
				}
			}
			while((ID_SIZE >= LOC_u8Counter) && (UART_TERMINATE_CHAR != LOC_u8ReceivedData));
 80014e6:	f897 3027 	ldrb.w	r3, [r7, #39]	; 0x27
 80014ea:	2b07      	cmp	r3, #7
 80014ec:	d802      	bhi.n	80014f4 <System_VoidDeleteUser+0x174>
 80014ee:	89fb      	ldrh	r3, [r7, #14]
 80014f0:	2b0d      	cmp	r3, #13
 80014f2:	d1d2      	bne.n	800149a <System_VoidDeleteUser+0x11a>
			LOC_u8ID[LOC_u8Counter] = '\0' ;
 80014f4:	f897 3027 	ldrb.w	r3, [r7, #39]	; 0x27
 80014f8:	f107 0228 	add.w	r2, r7, #40	; 0x28
 80014fc:	4413      	add	r3, r2
 80014fe:	2200      	movs	r2, #0
 8001500:	f803 2c18 	strb.w	r2, [r3, #-24]

			/*	Searching	*/
			LOC_u8Counter = 0 ;
 8001504:	2300      	movs	r3, #0
 8001506:	f887 3027 	strb.w	r3, [r7, #39]	; 0x27
			u8 LOC_u8Result = 1 ;
 800150a:	2301      	movs	r3, #1
 800150c:	f887 3026 	strb.w	r3, [r7, #38]	; 0x26
			u8 DriverIndex = 10  ;
 8001510:	230a      	movs	r3, #10
 8001512:	f887 3025 	strb.w	r3, [r7, #37]	; 0x25
			for(LOC_u8Counter = 0 ; LOC_u8Counter < Glob_u8NumberOfCurrentUsers ; LOC_u8Counter++)
 8001516:	2300      	movs	r3, #0
 8001518:	f887 3027 	strb.w	r3, [r7, #39]	; 0x27
 800151c:	e01d      	b.n	800155a <System_VoidDeleteUser+0x1da>
			{
				// Name Searching
				LOC_u8Result = compTwoStrings(LOC_u8username, &Glob_u8DriverArr[LOC_u8Counter][0][0]);
 800151e:	f897 3027 	ldrb.w	r3, [r7, #39]	; 0x27
 8001522:	2216      	movs	r2, #22
 8001524:	fb02 f303 	mul.w	r3, r2, r3
 8001528:	4a5b      	ldr	r2, [pc, #364]	; (8001698 <System_VoidDeleteUser+0x318>)
 800152a:	441a      	add	r2, r3
 800152c:	f107 0318 	add.w	r3, r7, #24
 8001530:	4611      	mov	r1, r2
 8001532:	4618      	mov	r0, r3
 8001534:	f000 f8c0 	bl	80016b8 <compTwoStrings>
 8001538:	4603      	mov	r3, r0
 800153a:	f887 3026 	strb.w	r3, [r7, #38]	; 0x26
				if(LOC_u8Result == 0)
 800153e:	f897 3026 	ldrb.w	r3, [r7, #38]	; 0x26
 8001542:	2b00      	cmp	r3, #0
 8001544:	d104      	bne.n	8001550 <System_VoidDeleteUser+0x1d0>
				{
					DriverIndex = LOC_u8Counter ;
 8001546:	f897 3027 	ldrb.w	r3, [r7, #39]	; 0x27
 800154a:	f887 3025 	strb.w	r3, [r7, #37]	; 0x25
					break ;
 800154e:	e00a      	b.n	8001566 <System_VoidDeleteUser+0x1e6>
			for(LOC_u8Counter = 0 ; LOC_u8Counter < Glob_u8NumberOfCurrentUsers ; LOC_u8Counter++)
 8001550:	f897 3027 	ldrb.w	r3, [r7, #39]	; 0x27
 8001554:	3301      	adds	r3, #1
 8001556:	f887 3027 	strb.w	r3, [r7, #39]	; 0x27
 800155a:	4b49      	ldr	r3, [pc, #292]	; (8001680 <System_VoidDeleteUser+0x300>)
 800155c:	781b      	ldrb	r3, [r3, #0]
 800155e:	f897 2027 	ldrb.w	r2, [r7, #39]	; 0x27
 8001562:	429a      	cmp	r2, r3
 8001564:	d3db      	bcc.n	800151e <System_VoidDeleteUser+0x19e>
				}

			}
			if(LOC_u8Result == 0 && DriverIndex >= Glob_u8NumberOfCurrentUsers)
 8001566:	f897 3026 	ldrb.w	r3, [r7, #38]	; 0x26
 800156a:	2b00      	cmp	r3, #0
 800156c:	d119      	bne.n	80015a2 <System_VoidDeleteUser+0x222>
 800156e:	4b44      	ldr	r3, [pc, #272]	; (8001680 <System_VoidDeleteUser+0x300>)
 8001570:	781b      	ldrb	r3, [r3, #0]
 8001572:	f897 2025 	ldrb.w	r2, [r7, #37]	; 0x25
 8001576:	429a      	cmp	r2, r3
 8001578:	d313      	bcc.n	80015a2 <System_VoidDeleteUser+0x222>
			{
				LOC_u8Result = 1 ;
 800157a:	2301      	movs	r3, #1
 800157c:	f887 3026 	strb.w	r3, [r7, #38]	; 0x26
				// ID Verify
				LOC_u8Result = compTwoStrings(LOC_u8ID, &Glob_u8DriverArr[DriverIndex][1][0]);
 8001580:	f897 3025 	ldrb.w	r3, [r7, #37]	; 0x25
 8001584:	2216      	movs	r2, #22
 8001586:	fb02 f303 	mul.w	r3, r2, r3
 800158a:	330b      	adds	r3, #11
 800158c:	4a42      	ldr	r2, [pc, #264]	; (8001698 <System_VoidDeleteUser+0x318>)
 800158e:	441a      	add	r2, r3
 8001590:	f107 0310 	add.w	r3, r7, #16
 8001594:	4611      	mov	r1, r2
 8001596:	4618      	mov	r0, r3
 8001598:	f000 f88e 	bl	80016b8 <compTwoStrings>
 800159c:	4603      	mov	r3, r0
 800159e:	f887 3026 	strb.w	r3, [r7, #38]	; 0x26
			}

			if(LOC_u8Result == 0)
 80015a2:	f897 3026 	ldrb.w	r3, [r7, #38]	; 0x26
 80015a6:	2b00      	cmp	r3, #0
 80015a8:	d112      	bne.n	80015d0 <System_VoidDeleteUser+0x250>
			{
				// Valid Name and ID
				Glob_u8DriverFreeIndex[DriverIndex] = 1 ;
 80015aa:	f897 3025 	ldrb.w	r3, [r7, #37]	; 0x25
 80015ae:	4a3b      	ldr	r2, [pc, #236]	; (800169c <System_VoidDeleteUser+0x31c>)
 80015b0:	2101      	movs	r1, #1
 80015b2:	54d1      	strb	r1, [r2, r3]
				Glob_u8NumberOfCurrentUsers-- ;
 80015b4:	4b32      	ldr	r3, [pc, #200]	; (8001680 <System_VoidDeleteUser+0x300>)
 80015b6:	781b      	ldrb	r3, [r3, #0]
 80015b8:	3b01      	subs	r3, #1
 80015ba:	b2da      	uxtb	r2, r3
 80015bc:	4b30      	ldr	r3, [pc, #192]	; (8001680 <System_VoidDeleteUser+0x300>)
 80015be:	701a      	strb	r2, [r3, #0]
				USART_voidSendStringWithDelimiterSynch(USART_1, addString("\r\n********************* SUCCESSFUL ****************************** \r\n\0"), '\0');
 80015c0:	2200      	movs	r2, #0
 80015c2:	4937      	ldr	r1, [pc, #220]	; (80016a0 <System_VoidDeleteUser+0x320>)
 80015c4:	2000      	movs	r0, #0
 80015c6:	f002 ff73 	bl	80044b0 <USART_voidSendStringWithDelimiterSynch>
				LCD_voidDeleteDriver();
 80015ca:	f000 fae7 	bl	8001b9c <LCD_voidDeleteDriver>
		LCD_voidGotoXY(&myLCD,2,2);
		LCD_voidSendString(&myLCD,addString("Drivers Data"));
		_delay_ms(200);
		LCD_voidMainScreen();
	}
}
 80015ce:	e052      	b.n	8001676 <System_VoidDeleteUser+0x2f6>
				LCD_voidClear(&myLCD);
 80015d0:	482c      	ldr	r0, [pc, #176]	; (8001684 <System_VoidDeleteUser+0x304>)
 80015d2:	f000 ff38 	bl	8002446 <LCD_voidClear>
				LCD_voidGotoXY(&myLCD, 2, 2) ;
 80015d6:	2202      	movs	r2, #2
 80015d8:	2102      	movs	r1, #2
 80015da:	482a      	ldr	r0, [pc, #168]	; (8001684 <System_VoidDeleteUser+0x304>)
 80015dc:	f000 fefe 	bl	80023dc <LCD_voidGotoXY>
				LCD_voidSendString(&myLCD, addString("UNSUCCESSFUL"));
 80015e0:	4930      	ldr	r1, [pc, #192]	; (80016a4 <System_VoidDeleteUser+0x324>)
 80015e2:	4828      	ldr	r0, [pc, #160]	; (8001684 <System_VoidDeleteUser+0x304>)
 80015e4:	f000 fece 	bl	8002384 <LCD_voidSendString>
				USART_voidSendStringWithDelimiterSynch(USART_1, addString("\r\n********************* UNSUCCESSFUL ****************************** \r\n\0"), '\0');
 80015e8:	2200      	movs	r2, #0
 80015ea:	492f      	ldr	r1, [pc, #188]	; (80016a8 <System_VoidDeleteUser+0x328>)
 80015ec:	2000      	movs	r0, #0
 80015ee:	f002 ff5f 	bl	80044b0 <USART_voidSendStringWithDelimiterSynch>
				LCD_voidMainScreen();
 80015f2:	f000 fa05 	bl	8001a00 <LCD_voidMainScreen>
}
 80015f6:	e03e      	b.n	8001676 <System_VoidDeleteUser+0x2f6>
			for(LOC_u8Counter = 0 ; LOC_u8Counter < MAX_SLOTS_IN_GARAGE ; LOC_u8Counter++)
 80015f8:	2300      	movs	r3, #0
 80015fa:	f887 3027 	strb.w	r3, [r7, #39]	; 0x27
 80015fe:	e009      	b.n	8001614 <System_VoidDeleteUser+0x294>
				Glob_u8DriverFreeIndex[LOC_u8Counter] = 1 ;
 8001600:	f897 3027 	ldrb.w	r3, [r7, #39]	; 0x27
 8001604:	4a25      	ldr	r2, [pc, #148]	; (800169c <System_VoidDeleteUser+0x31c>)
 8001606:	2101      	movs	r1, #1
 8001608:	54d1      	strb	r1, [r2, r3]
			for(LOC_u8Counter = 0 ; LOC_u8Counter < MAX_SLOTS_IN_GARAGE ; LOC_u8Counter++)
 800160a:	f897 3027 	ldrb.w	r3, [r7, #39]	; 0x27
 800160e:	3301      	adds	r3, #1
 8001610:	f887 3027 	strb.w	r3, [r7, #39]	; 0x27
 8001614:	f897 3027 	ldrb.w	r3, [r7, #39]	; 0x27
 8001618:	2b02      	cmp	r3, #2
 800161a:	d9f1      	bls.n	8001600 <System_VoidDeleteUser+0x280>
			Glob_u8NumberOfCurrentUsers = 0 ;
 800161c:	4b18      	ldr	r3, [pc, #96]	; (8001680 <System_VoidDeleteUser+0x300>)
 800161e:	2200      	movs	r2, #0
 8001620:	701a      	strb	r2, [r3, #0]
			USART_voidSendStringWithDelimiterSynch(USART_1, addString("\r\n********************* SUCCESSFUL ****************************** \r\n\0"), '\0');
 8001622:	2200      	movs	r2, #0
 8001624:	491e      	ldr	r1, [pc, #120]	; (80016a0 <System_VoidDeleteUser+0x320>)
 8001626:	2000      	movs	r0, #0
 8001628:	f002 ff42 	bl	80044b0 <USART_voidSendStringWithDelimiterSynch>
			LCD_voidDeleteDriver();
 800162c:	f000 fab6 	bl	8001b9c <LCD_voidDeleteDriver>
}
 8001630:	e021      	b.n	8001676 <System_VoidDeleteUser+0x2f6>
		LCD_voidSetCursorType(&myLCD, CURS_OFF ) ;
 8001632:	210c      	movs	r1, #12
 8001634:	4813      	ldr	r0, [pc, #76]	; (8001684 <System_VoidDeleteUser+0x304>)
 8001636:	f000 fec2 	bl	80023be <LCD_voidSetCursorType>
		LCD_voidClear(&myLCD);
 800163a:	4812      	ldr	r0, [pc, #72]	; (8001684 <System_VoidDeleteUser+0x304>)
 800163c:	f000 ff03 	bl	8002446 <LCD_voidClear>
		LCD_voidSendString(&myLCD,addString("PARKING GARAGE"));
 8001640:	491a      	ldr	r1, [pc, #104]	; (80016ac <System_VoidDeleteUser+0x32c>)
 8001642:	4810      	ldr	r0, [pc, #64]	; (8001684 <System_VoidDeleteUser+0x304>)
 8001644:	f000 fe9e 	bl	8002384 <LCD_voidSendString>
		LCD_voidGotoXY(&myLCD,2,1);
 8001648:	2201      	movs	r2, #1
 800164a:	2102      	movs	r1, #2
 800164c:	480d      	ldr	r0, [pc, #52]	; (8001684 <System_VoidDeleteUser+0x304>)
 800164e:	f000 fec5 	bl	80023dc <LCD_voidGotoXY>
		LCD_voidSendString(&myLCD,addString("No Existence"));
 8001652:	4917      	ldr	r1, [pc, #92]	; (80016b0 <System_VoidDeleteUser+0x330>)
 8001654:	480b      	ldr	r0, [pc, #44]	; (8001684 <System_VoidDeleteUser+0x304>)
 8001656:	f000 fe95 	bl	8002384 <LCD_voidSendString>
		LCD_voidGotoXY(&myLCD,2,2);
 800165a:	2202      	movs	r2, #2
 800165c:	2102      	movs	r1, #2
 800165e:	4809      	ldr	r0, [pc, #36]	; (8001684 <System_VoidDeleteUser+0x304>)
 8001660:	f000 febc 	bl	80023dc <LCD_voidGotoXY>
		LCD_voidSendString(&myLCD,addString("Drivers Data"));
 8001664:	4913      	ldr	r1, [pc, #76]	; (80016b4 <System_VoidDeleteUser+0x334>)
 8001666:	4807      	ldr	r0, [pc, #28]	; (8001684 <System_VoidDeleteUser+0x304>)
 8001668:	f000 fe8c 	bl	8002384 <LCD_voidSendString>
		_delay_ms(200);
 800166c:	20c8      	movs	r0, #200	; 0xc8
 800166e:	f7ff f96d 	bl	800094c <xDelay>
		LCD_voidMainScreen();
 8001672:	f000 f9c5 	bl	8001a00 <LCD_voidMainScreen>
}
 8001676:	bf00      	nop
 8001678:	3728      	adds	r7, #40	; 0x28
 800167a:	46bd      	mov	sp, r7
 800167c:	bd80      	pop	{r7, pc}
 800167e:	bf00      	nop
 8001680:	2000016c 	.word	0x2000016c
 8001684:	200000a4 	.word	0x200000a4
 8001688:	08004810 	.word	0x08004810
 800168c:	08004790 	.word	0x08004790
 8001690:	080047a0 	.word	0x080047a0
 8001694:	080047a4 	.word	0x080047a4
 8001698:	20000170 	.word	0x20000170
 800169c:	20000014 	.word	0x20000014
 80016a0:	0800485c 	.word	0x0800485c
 80016a4:	080048a4 	.word	0x080048a4
 80016a8:	080048b4 	.word	0x080048b4
 80016ac:	080047f0 	.word	0x080047f0
 80016b0:	080048fc 	.word	0x080048fc
 80016b4:	0800490c 	.word	0x0800490c

080016b8 <compTwoStrings>:
/*********************************** END SYSTEM FCN	*************************/

u8 compTwoStrings (u8*string1 , u8*string2)
{
 80016b8:	b480      	push	{r7}
 80016ba:	b085      	sub	sp, #20
 80016bc:	af00      	add	r7, sp, #0
 80016be:	6078      	str	r0, [r7, #4]
 80016c0:	6039      	str	r1, [r7, #0]
    u8 LOC_u8Counter=0 ;
 80016c2:	2300      	movs	r3, #0
 80016c4:	73fb      	strb	r3, [r7, #15]
    u8 LOC_u8Flag = 0 ;
 80016c6:	2300      	movs	r3, #0
 80016c8:	73bb      	strb	r3, [r7, #14]
    while(string1[LOC_u8Counter] != '\0' &&string2[LOC_u8Counter] != '\0')
 80016ca:	e00f      	b.n	80016ec <compTwoStrings+0x34>
    {
        if(string1[LOC_u8Counter] != string2[LOC_u8Counter])
 80016cc:	7bfb      	ldrb	r3, [r7, #15]
 80016ce:	687a      	ldr	r2, [r7, #4]
 80016d0:	4413      	add	r3, r2
 80016d2:	781a      	ldrb	r2, [r3, #0]
 80016d4:	7bfb      	ldrb	r3, [r7, #15]
 80016d6:	6839      	ldr	r1, [r7, #0]
 80016d8:	440b      	add	r3, r1
 80016da:	781b      	ldrb	r3, [r3, #0]
 80016dc:	429a      	cmp	r2, r3
 80016de:	d002      	beq.n	80016e6 <compTwoStrings+0x2e>
        {
            LOC_u8Flag = 1;
 80016e0:	2301      	movs	r3, #1
 80016e2:	73bb      	strb	r3, [r7, #14]
            break;
 80016e4:	e00e      	b.n	8001704 <compTwoStrings+0x4c>
        }
        LOC_u8Counter++;
 80016e6:	7bfb      	ldrb	r3, [r7, #15]
 80016e8:	3301      	adds	r3, #1
 80016ea:	73fb      	strb	r3, [r7, #15]
    while(string1[LOC_u8Counter] != '\0' &&string2[LOC_u8Counter] != '\0')
 80016ec:	7bfb      	ldrb	r3, [r7, #15]
 80016ee:	687a      	ldr	r2, [r7, #4]
 80016f0:	4413      	add	r3, r2
 80016f2:	781b      	ldrb	r3, [r3, #0]
 80016f4:	2b00      	cmp	r3, #0
 80016f6:	d005      	beq.n	8001704 <compTwoStrings+0x4c>
 80016f8:	7bfb      	ldrb	r3, [r7, #15]
 80016fa:	683a      	ldr	r2, [r7, #0]
 80016fc:	4413      	add	r3, r2
 80016fe:	781b      	ldrb	r3, [r3, #0]
 8001700:	2b00      	cmp	r3, #0
 8001702:	d1e3      	bne.n	80016cc <compTwoStrings+0x14>
    }
    return LOC_u8Flag ;
 8001704:	7bbb      	ldrb	r3, [r7, #14]
}
 8001706:	4618      	mov	r0, r3
 8001708:	3714      	adds	r7, #20
 800170a:	46bd      	mov	sp, r7
 800170c:	bc80      	pop	{r7}
 800170e:	4770      	bx	lr

08001710 <SPI_voidSetup>:

static SPI_config SPI1_Communication ;

static void SPI_voidSetup(void)
{
 8001710:	b580      	push	{r7, lr}
 8001712:	af00      	add	r7, sp, #0
	GPIO_voidSetPinDirection(ECU1_PORT_PIN,GPIO_OUTPUT_2MHZ_PUSH_PULL) ;
 8001714:	2202      	movs	r2, #2
 8001716:	2104      	movs	r1, #4
 8001718:	2002      	movs	r0, #2
 800171a:	f001 fedd 	bl	80034d8 <GPIO_voidSetPinDirection>
	GPIO_voidSetPinDirection(ECU3_PORT_PIN,GPIO_OUTPUT_2MHZ_PUSH_PULL) ;
 800171e:	2202      	movs	r2, #2
 8001720:	2100      	movs	r1, #0
 8001722:	2003      	movs	r0, #3
 8001724:	f001 fed8 	bl	80034d8 <GPIO_voidSetPinDirection>

	// Force the Slave Select (HIGH) for idle Mode
	GPIO_voidSetPinValue(ECU1_PORT_PIN, HIGH);
 8001728:	2201      	movs	r2, #1
 800172a:	2104      	movs	r1, #4
 800172c:	2002      	movs	r0, #2
 800172e:	f001 ff99 	bl	8003664 <GPIO_voidSetPinValue>
	GPIO_voidSetPinValue(ECU3_PORT_PIN, HIGH);
 8001732:	2201      	movs	r2, #1
 8001734:	2100      	movs	r1, #0
 8001736:	2003      	movs	r0, #3
 8001738:	f001 ff94 	bl	8003664 <GPIO_voidSetPinValue>


	SPI1_Communication.SPI_CommMode = SPI_FULL_DOUPLEX ;
 800173c:	4b13      	ldr	r3, [pc, #76]	; (800178c <SPI_voidSetup+0x7c>)
 800173e:	2200      	movs	r2, #0
 8001740:	805a      	strh	r2, [r3, #2]
	SPI1_Communication.SPI_DataOrder = SPI_MSB_FIRST  ;
 8001742:	4b12      	ldr	r3, [pc, #72]	; (800178c <SPI_voidSetup+0x7c>)
 8001744:	2200      	movs	r2, #0
 8001746:	711a      	strb	r2, [r3, #4]
	SPI1_Communication.SPI_DataSize =SPI_8_BIT_DATA  ;
 8001748:	4b10      	ldr	r3, [pc, #64]	; (800178c <SPI_voidSetup+0x7c>)
 800174a:	2200      	movs	r2, #0
 800174c:	80da      	strh	r2, [r3, #6]
	SPI1_Communication.SPI_IdleLevel = SPI_IDLE_LOW ;
 800174e:	4b0f      	ldr	r3, [pc, #60]	; (800178c <SPI_voidSetup+0x7c>)
 8001750:	2200      	movs	r2, #0
 8001752:	721a      	strb	r2, [r3, #8]
	SPI1_Communication.SPI_DataSampling = SPI_LEADING_EDGE ;
 8001754:	4b0d      	ldr	r3, [pc, #52]	; (800178c <SPI_voidSetup+0x7c>)
 8001756:	2200      	movs	r2, #0
 8001758:	725a      	strb	r2, [r3, #9]
	SPI1_Communication.SPI_BuadRate = SPI_BUAD_PRESCALED_BY_16;
 800175a:	4b0c      	ldr	r3, [pc, #48]	; (800178c <SPI_voidSetup+0x7c>)
 800175c:	2218      	movs	r2, #24
 800175e:	731a      	strb	r2, [r3, #12]
	SPI1_Communication.SPI_Mode = SPI_MASTER ;
 8001760:	4b0a      	ldr	r3, [pc, #40]	; (800178c <SPI_voidSetup+0x7c>)
 8001762:	2204      	movs	r2, #4
 8001764:	701a      	strb	r2, [r3, #0]
	SPI1_Communication.SPI_IRQ =SPI_IRQ_DISABLED ;
 8001766:	4b09      	ldr	r3, [pc, #36]	; (800178c <SPI_voidSetup+0x7c>)
 8001768:	2200      	movs	r2, #0
 800176a:	735a      	strb	r2, [r3, #13]
	SPI1_Communication.SPI_SlaveSelectMangment =SPI_SSM_HW_SLAVE ;
 800176c:	4b07      	ldr	r3, [pc, #28]	; (800178c <SPI_voidSetup+0x7c>)
 800176e:	2200      	movs	r2, #0
 8001770:	815a      	strh	r2, [r3, #10]
	SPI1_Communication.P_IRQ_CallBack = NULL ;
 8001772:	4b06      	ldr	r3, [pc, #24]	; (800178c <SPI_voidSetup+0x7c>)
 8001774:	2200      	movs	r2, #0
 8001776:	611a      	str	r2, [r3, #16]
	SPI_voidInit(SPI_1, &SPI1_Communication) ;
 8001778:	4904      	ldr	r1, [pc, #16]	; (800178c <SPI_voidSetup+0x7c>)
 800177a:	2000      	movs	r0, #0
 800177c:	f002 f934 	bl	80039e8 <SPI_voidInit>
	SPI_VoidGPIO_SetPins(SPI_1);
 8001780:	2000      	movs	r0, #0
 8001782:	f002 f9f9 	bl	8003b78 <SPI_VoidGPIO_SetPins>
}
 8001786:	bf00      	nop
 8001788:	bd80      	pop	{r7, pc}
 800178a:	bf00      	nop
 800178c:	200000ac 	.word	0x200000ac

08001790 <LCD_voidSetup>:

/********************************************** Start of LCD fcn	********************************************************/
static 	USART_Config myUART ;

static void LCD_voidSetup(void)
{
 8001790:	b580      	push	{r7, lr}
 8001792:	af00      	add	r7, sp, #0
	myLCD.LCD_SIZE_Rows = 4 ;
 8001794:	4b15      	ldr	r3, [pc, #84]	; (80017ec <LCD_voidSetup+0x5c>)
 8001796:	2204      	movs	r2, #4
 8001798:	701a      	strb	r2, [r3, #0]
	myLCD.LCD_SIZE_Cols = 16 ;
 800179a:	4b14      	ldr	r3, [pc, #80]	; (80017ec <LCD_voidSetup+0x5c>)
 800179c:	2210      	movs	r2, #16
 800179e:	705a      	strb	r2, [r3, #1]
	myLCD.LCD_PortPins = LCD_PortPin ;
 80017a0:	4b12      	ldr	r3, [pc, #72]	; (80017ec <LCD_voidSetup+0x5c>)
 80017a2:	4a13      	ldr	r2, [pc, #76]	; (80017f0 <LCD_voidSetup+0x60>)
 80017a4:	605a      	str	r2, [r3, #4]
	LCD_voidInit(&myLCD);
 80017a6:	4811      	ldr	r0, [pc, #68]	; (80017ec <LCD_voidSetup+0x5c>)
 80017a8:	f000 fca9 	bl	80020fe <LCD_voidInit>
	/* First time	*/
#if _APP_DEBUG_ == 0
	LCD_voidSendString(&myLCD, addString("Welcome"));
 80017ac:	4911      	ldr	r1, [pc, #68]	; (80017f4 <LCD_voidSetup+0x64>)
 80017ae:	480f      	ldr	r0, [pc, #60]	; (80017ec <LCD_voidSetup+0x5c>)
 80017b0:	f000 fde8 	bl	8002384 <LCD_voidSendString>
	LCD_voidGotoXY(&myLCD,4,1);
 80017b4:	2201      	movs	r2, #1
 80017b6:	2104      	movs	r1, #4
 80017b8:	480c      	ldr	r0, [pc, #48]	; (80017ec <LCD_voidSetup+0x5c>)
 80017ba:	f000 fe0f 	bl	80023dc <LCD_voidGotoXY>
	LCD_voidSendString(&myLCD,addString(" Abnaby Wait"));
 80017be:	490e      	ldr	r1, [pc, #56]	; (80017f8 <LCD_voidSetup+0x68>)
 80017c0:	480a      	ldr	r0, [pc, #40]	; (80017ec <LCD_voidSetup+0x5c>)
 80017c2:	f000 fddf 	bl	8002384 <LCD_voidSendString>
	progressBar(&myLCD,100,0);
 80017c6:	2200      	movs	r2, #0
 80017c8:	2164      	movs	r1, #100	; 0x64
 80017ca:	4808      	ldr	r0, [pc, #32]	; (80017ec <LCD_voidSetup+0x5c>)
 80017cc:	f000 f84a 	bl	8001864 <progressBar>
	LCD_voidGotoXY(&myLCD,0,0);
 80017d0:	2200      	movs	r2, #0
 80017d2:	2100      	movs	r1, #0
 80017d4:	4805      	ldr	r0, [pc, #20]	; (80017ec <LCD_voidSetup+0x5c>)
 80017d6:	f000 fe01 	bl	80023dc <LCD_voidGotoXY>
	LCD_voidSetCursorType(&myLCD, CURS_OFF ) ;
 80017da:	210c      	movs	r1, #12
 80017dc:	4803      	ldr	r0, [pc, #12]	; (80017ec <LCD_voidSetup+0x5c>)
 80017de:	f000 fdee 	bl	80023be <LCD_voidSetCursorType>
	/*	Main Screen	*/
	LCD_voidMainScreen();
 80017e2:	f000 f90d 	bl	8001a00 <LCD_voidMainScreen>
#endif

}
 80017e6:	bf00      	nop
 80017e8:	bd80      	pop	{r7, pc}
 80017ea:	bf00      	nop
 80017ec:	200000a4 	.word	0x200000a4
 80017f0:	2000001c 	.word	0x2000001c
 80017f4:	0800491c 	.word	0x0800491c
 80017f8:	08004924 	.word	0x08004924

080017fc <UART_voidSetup>:

void UART_voidSetup(void)
{
 80017fc:	b580      	push	{r7, lr}
 80017fe:	af00      	add	r7, sp, #0
	/*	GPIO	*/
	USART__VoidGPIO_SetPins(USART_1);
 8001800:	2000      	movs	r0, #0
 8001802:	f002 fd01 	bl	8004208 <USART__VoidGPIO_SetPins>
	/*	UART	*/
	myUART.USART_OperationMode = USART_TRANCIVER ; ;
 8001806:	4b15      	ldr	r3, [pc, #84]	; (800185c <UART_voidSetup+0x60>)
 8001808:	220c      	movs	r2, #12
 800180a:	701a      	strb	r2, [r3, #0]
	myUART.USART_BuadRate = 9600 ;
 800180c:	4b13      	ldr	r3, [pc, #76]	; (800185c <UART_voidSetup+0x60>)
 800180e:	f44f 5216 	mov.w	r2, #9600	; 0x2580
 8001812:	605a      	str	r2, [r3, #4]
	myUART.USART_DataLength = USART_8BIT ;
 8001814:	4b11      	ldr	r3, [pc, #68]	; (800185c <UART_voidSetup+0x60>)
 8001816:	2200      	movs	r2, #0
 8001818:	811a      	strh	r2, [r3, #8]
	myUART.USART_Parity =USART_DISABLE_PARITY ;
 800181a:	4b10      	ldr	r3, [pc, #64]	; (800185c <UART_voidSetup+0x60>)
 800181c:	2200      	movs	r2, #0
 800181e:	815a      	strh	r2, [r3, #10]
	myUART.USART_StopBit = USART_1_STOPBIT ;
 8001820:	4b0e      	ldr	r3, [pc, #56]	; (800185c <UART_voidSetup+0x60>)
 8001822:	2200      	movs	r2, #0
 8001824:	819a      	strh	r2, [r3, #12]
	myUART.USART_HWFlowControl = USART_HW_FLOW_CONTROLLED_DISALBED ;
 8001826:	4b0d      	ldr	r3, [pc, #52]	; (800185c <UART_voidSetup+0x60>)
 8001828:	2200      	movs	r2, #0
 800182a:	81da      	strh	r2, [r3, #14]
	myUART.USART_IdleLevel     =USART_IDLE_LOW ;
 800182c:	4b0b      	ldr	r3, [pc, #44]	; (800185c <UART_voidSetup+0x60>)
 800182e:	2200      	movs	r2, #0
 8001830:	821a      	strh	r2, [r3, #16]
	myUART.USART_DataSampling  = USART_LEADING_EDGE ;
 8001832:	4b0a      	ldr	r3, [pc, #40]	; (800185c <UART_voidSetup+0x60>)
 8001834:	2200      	movs	r2, #0
 8001836:	825a      	strh	r2, [r3, #18]
	myUART.P_IRQ_CallBack = NULL  ;
 8001838:	4b08      	ldr	r3, [pc, #32]	; (800185c <UART_voidSetup+0x60>)
 800183a:	2200      	movs	r2, #0
 800183c:	619a      	str	r2, [r3, #24]
	myUART.USART_IRQ_t =  USART_DISABLE_IRQs ;
 800183e:	4b07      	ldr	r3, [pc, #28]	; (800185c <UART_voidSetup+0x60>)
 8001840:	2200      	movs	r2, #0
 8001842:	82da      	strh	r2, [r3, #22]
	USART_voidInit(USART_1, &myUART);
 8001844:	4905      	ldr	r1, [pc, #20]	; (800185c <UART_voidSetup+0x60>)
 8001846:	2000      	movs	r0, #0
 8001848:	f002 faa2 	bl	8003d90 <USART_voidInit>
	USART_voidSendStringWithDelimiterSynch(USART_1, addString("********************* ADMIN DASHBOARD ****************************** \r\n\0"), '\0');
 800184c:	2200      	movs	r2, #0
 800184e:	4904      	ldr	r1, [pc, #16]	; (8001860 <UART_voidSetup+0x64>)
 8001850:	2000      	movs	r0, #0
 8001852:	f002 fe2d 	bl	80044b0 <USART_voidSendStringWithDelimiterSynch>

}
 8001856:	bf00      	nop
 8001858:	bd80      	pop	{r7, pc}
 800185a:	bf00      	nop
 800185c:	200000c0 	.word	0x200000c0
 8001860:	08004934 	.word	0x08004934

08001864 <progressBar>:
static void progressBar(LCD_Config *myLCD, u8 prcentage, u16 delayOfBar)
{
 8001864:	b580      	push	{r7, lr}
 8001866:	b084      	sub	sp, #16
 8001868:	af00      	add	r7, sp, #0
 800186a:	6078      	str	r0, [r7, #4]
 800186c:	460b      	mov	r3, r1
 800186e:	70fb      	strb	r3, [r7, #3]
 8001870:	4613      	mov	r3, r2
 8001872:	803b      	strh	r3, [r7, #0]
	LCD_voidStoreCustomChar(myLCD ,LCD_ProgrssBarChar , 0);
 8001874:	2200      	movs	r2, #0
 8001876:	4914      	ldr	r1, [pc, #80]	; (80018c8 <progressBar+0x64>)
 8001878:	6878      	ldr	r0, [r7, #4]
 800187a:	f000 fdf7 	bl	800246c <LCD_voidStoreCustomChar>
	LCD_voidGotoXY(myLCD,0,2);
 800187e:	2202      	movs	r2, #2
 8001880:	2100      	movs	r1, #0
 8001882:	6878      	ldr	r0, [r7, #4]
 8001884:	f000 fdaa 	bl	80023dc <LCD_voidGotoXY>
	prcentage = (u8)((prcentage * 16 )/100) ;
 8001888:	78fb      	ldrb	r3, [r7, #3]
 800188a:	011b      	lsls	r3, r3, #4
 800188c:	4a0f      	ldr	r2, [pc, #60]	; (80018cc <progressBar+0x68>)
 800188e:	fb82 1203 	smull	r1, r2, r2, r3
 8001892:	1152      	asrs	r2, r2, #5
 8001894:	17db      	asrs	r3, r3, #31
 8001896:	1ad3      	subs	r3, r2, r3
 8001898:	70fb      	strb	r3, [r7, #3]
	for(int i = 0 ; i < prcentage ; i++)
 800189a:	2300      	movs	r3, #0
 800189c:	60fb      	str	r3, [r7, #12]
 800189e:	e00a      	b.n	80018b6 <progressBar+0x52>
	{
		LCD_voidSendChar(myLCD,0);
 80018a0:	2100      	movs	r1, #0
 80018a2:	6878      	ldr	r0, [r7, #4]
 80018a4:	f000 fc91 	bl	80021ca <LCD_voidSendChar>
		_delay_ms(delayOfBar);
 80018a8:	883b      	ldrh	r3, [r7, #0]
 80018aa:	4618      	mov	r0, r3
 80018ac:	f7ff f84e 	bl	800094c <xDelay>
	for(int i = 0 ; i < prcentage ; i++)
 80018b0:	68fb      	ldr	r3, [r7, #12]
 80018b2:	3301      	adds	r3, #1
 80018b4:	60fb      	str	r3, [r7, #12]
 80018b6:	78fb      	ldrb	r3, [r7, #3]
 80018b8:	68fa      	ldr	r2, [r7, #12]
 80018ba:	429a      	cmp	r2, r3
 80018bc:	dbf0      	blt.n	80018a0 <progressBar+0x3c>
	}

}
 80018be:	bf00      	nop
 80018c0:	3710      	adds	r7, #16
 80018c2:	46bd      	mov	sp, r7
 80018c4:	bd80      	pop	{r7, pc}
 80018c6:	bf00      	nop
 80018c8:	20000028 	.word	0x20000028
 80018cc:	51eb851f 	.word	0x51eb851f

080018d0 <DeletingBar>:
static void DeletingBar(LCD_Config *myLCD, u8 prcentage, u16 delayOfBar)
{
 80018d0:	b580      	push	{r7, lr}
 80018d2:	b084      	sub	sp, #16
 80018d4:	af00      	add	r7, sp, #0
 80018d6:	6078      	str	r0, [r7, #4]
 80018d8:	460b      	mov	r3, r1
 80018da:	70fb      	strb	r3, [r7, #3]
 80018dc:	4613      	mov	r3, r2
 80018de:	803b      	strh	r3, [r7, #0]
	LCD_voidStoreCustomChar(myLCD ,LCD_Deleting , 2);
 80018e0:	2202      	movs	r2, #2
 80018e2:	491d      	ldr	r1, [pc, #116]	; (8001958 <DeletingBar+0x88>)
 80018e4:	6878      	ldr	r0, [r7, #4]
 80018e6:	f000 fdc1 	bl	800246c <LCD_voidStoreCustomChar>
	LCD_voidGotoXY(myLCD,4,1);
 80018ea:	2201      	movs	r2, #1
 80018ec:	2104      	movs	r1, #4
 80018ee:	6878      	ldr	r0, [r7, #4]
 80018f0:	f000 fd74 	bl	80023dc <LCD_voidGotoXY>
	LCD_voidSendString(myLCD, addString("Deleting"));
 80018f4:	4919      	ldr	r1, [pc, #100]	; (800195c <DeletingBar+0x8c>)
 80018f6:	6878      	ldr	r0, [r7, #4]
 80018f8:	f000 fd44 	bl	8002384 <LCD_voidSendString>
	LCD_voidGotoXY(myLCD,0,2);
 80018fc:	2202      	movs	r2, #2
 80018fe:	2100      	movs	r1, #0
 8001900:	6878      	ldr	r0, [r7, #4]
 8001902:	f000 fd6b 	bl	80023dc <LCD_voidGotoXY>
	prcentage = (u8)((prcentage * 16 )/100) ;
 8001906:	78fb      	ldrb	r3, [r7, #3]
 8001908:	011b      	lsls	r3, r3, #4
 800190a:	4a15      	ldr	r2, [pc, #84]	; (8001960 <DeletingBar+0x90>)
 800190c:	fb82 1203 	smull	r1, r2, r2, r3
 8001910:	1152      	asrs	r2, r2, #5
 8001912:	17db      	asrs	r3, r3, #31
 8001914:	1ad3      	subs	r3, r2, r3
 8001916:	70fb      	strb	r3, [r7, #3]
	for(int i = 0 ; i < prcentage ; i++)
 8001918:	2300      	movs	r3, #0
 800191a:	60fb      	str	r3, [r7, #12]
 800191c:	e00a      	b.n	8001934 <DeletingBar+0x64>
	{
		LCD_voidSendChar(myLCD,2);
 800191e:	2102      	movs	r1, #2
 8001920:	6878      	ldr	r0, [r7, #4]
 8001922:	f000 fc52 	bl	80021ca <LCD_voidSendChar>
		_delay_ms(delayOfBar);
 8001926:	883b      	ldrh	r3, [r7, #0]
 8001928:	4618      	mov	r0, r3
 800192a:	f7ff f80f 	bl	800094c <xDelay>
	for(int i = 0 ; i < prcentage ; i++)
 800192e:	68fb      	ldr	r3, [r7, #12]
 8001930:	3301      	adds	r3, #1
 8001932:	60fb      	str	r3, [r7, #12]
 8001934:	78fb      	ldrb	r3, [r7, #3]
 8001936:	68fa      	ldr	r2, [r7, #12]
 8001938:	429a      	cmp	r2, r3
 800193a:	dbf0      	blt.n	800191e <DeletingBar+0x4e>
	}
	LCD_voidGotoXY(myLCD,6,3);
 800193c:	2203      	movs	r2, #3
 800193e:	2106      	movs	r1, #6
 8001940:	6878      	ldr	r0, [r7, #4]
 8001942:	f000 fd4b 	bl	80023dc <LCD_voidGotoXY>
	LCD_voidSendString(myLCD, addString("DONE"));
 8001946:	4907      	ldr	r1, [pc, #28]	; (8001964 <DeletingBar+0x94>)
 8001948:	6878      	ldr	r0, [r7, #4]
 800194a:	f000 fd1b 	bl	8002384 <LCD_voidSendString>
}
 800194e:	bf00      	nop
 8001950:	3710      	adds	r7, #16
 8001952:	46bd      	mov	sp, r7
 8001954:	bd80      	pop	{r7, pc}
 8001956:	bf00      	nop
 8001958:	20000030 	.word	0x20000030
 800195c:	08004980 	.word	0x08004980
 8001960:	51eb851f 	.word	0x51eb851f
 8001964:	0800498c 	.word	0x0800498c

08001968 <AddinggBar>:
static void AddinggBar(LCD_Config *myLCD, u8 prcentage, u16 delayOfBar)
{
 8001968:	b580      	push	{r7, lr}
 800196a:	b084      	sub	sp, #16
 800196c:	af00      	add	r7, sp, #0
 800196e:	6078      	str	r0, [r7, #4]
 8001970:	460b      	mov	r3, r1
 8001972:	70fb      	strb	r3, [r7, #3]
 8001974:	4613      	mov	r3, r2
 8001976:	803b      	strh	r3, [r7, #0]
	LCD_voidStoreCustomChar(myLCD ,LCD_Adding , 4);
 8001978:	2204      	movs	r2, #4
 800197a:	491d      	ldr	r1, [pc, #116]	; (80019f0 <AddinggBar+0x88>)
 800197c:	6878      	ldr	r0, [r7, #4]
 800197e:	f000 fd75 	bl	800246c <LCD_voidStoreCustomChar>
	LCD_voidGotoXY(myLCD,5,1);
 8001982:	2201      	movs	r2, #1
 8001984:	2105      	movs	r1, #5
 8001986:	6878      	ldr	r0, [r7, #4]
 8001988:	f000 fd28 	bl	80023dc <LCD_voidGotoXY>
	LCD_voidSendString(myLCD, addString("Adding"));
 800198c:	4919      	ldr	r1, [pc, #100]	; (80019f4 <AddinggBar+0x8c>)
 800198e:	6878      	ldr	r0, [r7, #4]
 8001990:	f000 fcf8 	bl	8002384 <LCD_voidSendString>
	LCD_voidGotoXY(myLCD,0,2);
 8001994:	2202      	movs	r2, #2
 8001996:	2100      	movs	r1, #0
 8001998:	6878      	ldr	r0, [r7, #4]
 800199a:	f000 fd1f 	bl	80023dc <LCD_voidGotoXY>
	prcentage = (u8)((prcentage * 16 )/100) ;
 800199e:	78fb      	ldrb	r3, [r7, #3]
 80019a0:	011b      	lsls	r3, r3, #4
 80019a2:	4a15      	ldr	r2, [pc, #84]	; (80019f8 <AddinggBar+0x90>)
 80019a4:	fb82 1203 	smull	r1, r2, r2, r3
 80019a8:	1152      	asrs	r2, r2, #5
 80019aa:	17db      	asrs	r3, r3, #31
 80019ac:	1ad3      	subs	r3, r2, r3
 80019ae:	70fb      	strb	r3, [r7, #3]
	for(int i = 0 ; i < prcentage ; i++)
 80019b0:	2300      	movs	r3, #0
 80019b2:	60fb      	str	r3, [r7, #12]
 80019b4:	e00a      	b.n	80019cc <AddinggBar+0x64>
	{
		LCD_voidSendChar(myLCD,4);
 80019b6:	2104      	movs	r1, #4
 80019b8:	6878      	ldr	r0, [r7, #4]
 80019ba:	f000 fc06 	bl	80021ca <LCD_voidSendChar>
		_delay_ms(delayOfBar);
 80019be:	883b      	ldrh	r3, [r7, #0]
 80019c0:	4618      	mov	r0, r3
 80019c2:	f7fe ffc3 	bl	800094c <xDelay>
	for(int i = 0 ; i < prcentage ; i++)
 80019c6:	68fb      	ldr	r3, [r7, #12]
 80019c8:	3301      	adds	r3, #1
 80019ca:	60fb      	str	r3, [r7, #12]
 80019cc:	78fb      	ldrb	r3, [r7, #3]
 80019ce:	68fa      	ldr	r2, [r7, #12]
 80019d0:	429a      	cmp	r2, r3
 80019d2:	dbf0      	blt.n	80019b6 <AddinggBar+0x4e>
	}
	LCD_voidGotoXY(myLCD,6,3);
 80019d4:	2203      	movs	r2, #3
 80019d6:	2106      	movs	r1, #6
 80019d8:	6878      	ldr	r0, [r7, #4]
 80019da:	f000 fcff 	bl	80023dc <LCD_voidGotoXY>
	LCD_voidSendString(myLCD, addString("DONE"));
 80019de:	4907      	ldr	r1, [pc, #28]	; (80019fc <AddinggBar+0x94>)
 80019e0:	6878      	ldr	r0, [r7, #4]
 80019e2:	f000 fccf 	bl	8002384 <LCD_voidSendString>
}
 80019e6:	bf00      	nop
 80019e8:	3710      	adds	r7, #16
 80019ea:	46bd      	mov	sp, r7
 80019ec:	bd80      	pop	{r7, pc}
 80019ee:	bf00      	nop
 80019f0:	20000038 	.word	0x20000038
 80019f4:	08004994 	.word	0x08004994
 80019f8:	51eb851f 	.word	0x51eb851f
 80019fc:	0800498c 	.word	0x0800498c

08001a00 <LCD_voidMainScreen>:

static void LCD_voidMainScreen(void)
{
 8001a00:	b580      	push	{r7, lr}
 8001a02:	af00      	add	r7, sp, #0
	LCD_voidSetCursorType(&myLCD, CURS_OFF ) ;
 8001a04:	210c      	movs	r1, #12
 8001a06:	4813      	ldr	r0, [pc, #76]	; (8001a54 <LCD_voidMainScreen+0x54>)
 8001a08:	f000 fcd9 	bl	80023be <LCD_voidSetCursorType>
	LCD_voidClear(&myLCD);
 8001a0c:	4811      	ldr	r0, [pc, #68]	; (8001a54 <LCD_voidMainScreen+0x54>)
 8001a0e:	f000 fd1a 	bl	8002446 <LCD_voidClear>
	LCD_voidSendString(&myLCD,addString("PARKING GARAGE"));
 8001a12:	4911      	ldr	r1, [pc, #68]	; (8001a58 <LCD_voidMainScreen+0x58>)
 8001a14:	480f      	ldr	r0, [pc, #60]	; (8001a54 <LCD_voidMainScreen+0x54>)
 8001a16:	f000 fcb5 	bl	8002384 <LCD_voidSendString>
	LCD_voidGotoXY(&myLCD,0,1);
 8001a1a:	2201      	movs	r2, #1
 8001a1c:	2100      	movs	r1, #0
 8001a1e:	480d      	ldr	r0, [pc, #52]	; (8001a54 <LCD_voidMainScreen+0x54>)
 8001a20:	f000 fcdc 	bl	80023dc <LCD_voidGotoXY>
	LCD_voidSendString(&myLCD,addString("Select one of : "));
 8001a24:	490d      	ldr	r1, [pc, #52]	; (8001a5c <LCD_voidMainScreen+0x5c>)
 8001a26:	480b      	ldr	r0, [pc, #44]	; (8001a54 <LCD_voidMainScreen+0x54>)
 8001a28:	f000 fcac 	bl	8002384 <LCD_voidSendString>
	LCD_voidGotoXY(&myLCD,0,2);
 8001a2c:	2202      	movs	r2, #2
 8001a2e:	2100      	movs	r1, #0
 8001a30:	4808      	ldr	r0, [pc, #32]	; (8001a54 <LCD_voidMainScreen+0x54>)
 8001a32:	f000 fcd3 	bl	80023dc <LCD_voidGotoXY>
	LCD_voidSendString(&myLCD,addString("1-Admin Options"));
 8001a36:	490a      	ldr	r1, [pc, #40]	; (8001a60 <LCD_voidMainScreen+0x60>)
 8001a38:	4806      	ldr	r0, [pc, #24]	; (8001a54 <LCD_voidMainScreen+0x54>)
 8001a3a:	f000 fca3 	bl	8002384 <LCD_voidSendString>
	LCD_voidGotoXY(&myLCD,0,3);
 8001a3e:	2203      	movs	r2, #3
 8001a40:	2100      	movs	r1, #0
 8001a42:	4804      	ldr	r0, [pc, #16]	; (8001a54 <LCD_voidMainScreen+0x54>)
 8001a44:	f000 fcca 	bl	80023dc <LCD_voidGotoXY>
	LCD_voidSendString(&myLCD,addString("2-Garage Statues"));
 8001a48:	4906      	ldr	r1, [pc, #24]	; (8001a64 <LCD_voidMainScreen+0x64>)
 8001a4a:	4802      	ldr	r0, [pc, #8]	; (8001a54 <LCD_voidMainScreen+0x54>)
 8001a4c:	f000 fc9a 	bl	8002384 <LCD_voidSendString>
}
 8001a50:	bf00      	nop
 8001a52:	bd80      	pop	{r7, pc}
 8001a54:	200000a4 	.word	0x200000a4
 8001a58:	080047f0 	.word	0x080047f0
 8001a5c:	0800499c 	.word	0x0800499c
 8001a60:	080049b0 	.word	0x080049b0
 8001a64:	080049c0 	.word	0x080049c0

08001a68 <LCD_voidAdminOptions>:

static void LCD_voidAdminOptions(void)
{
 8001a68:	b580      	push	{r7, lr}
 8001a6a:	af00      	add	r7, sp, #0
	LCD_voidSetCursorType(&myLCD, CURS_OFF ) ;
 8001a6c:	210c      	movs	r1, #12
 8001a6e:	4815      	ldr	r0, [pc, #84]	; (8001ac4 <LCD_voidAdminOptions+0x5c>)
 8001a70:	f000 fca5 	bl	80023be <LCD_voidSetCursorType>
	LCD_voidClear(&myLCD);
 8001a74:	4813      	ldr	r0, [pc, #76]	; (8001ac4 <LCD_voidAdminOptions+0x5c>)
 8001a76:	f000 fce6 	bl	8002446 <LCD_voidClear>
	LCD_voidSendString(&myLCD,addString("PARKING GARAGE"));
 8001a7a:	4913      	ldr	r1, [pc, #76]	; (8001ac8 <LCD_voidAdminOptions+0x60>)
 8001a7c:	4811      	ldr	r0, [pc, #68]	; (8001ac4 <LCD_voidAdminOptions+0x5c>)
 8001a7e:	f000 fc81 	bl	8002384 <LCD_voidSendString>
	LCD_voidGotoXY(&myLCD,0,1);
 8001a82:	2201      	movs	r2, #1
 8001a84:	2100      	movs	r1, #0
 8001a86:	480f      	ldr	r0, [pc, #60]	; (8001ac4 <LCD_voidAdminOptions+0x5c>)
 8001a88:	f000 fca8 	bl	80023dc <LCD_voidGotoXY>
	LCD_voidSendString(&myLCD,addString("1- Add Driver"));
 8001a8c:	490f      	ldr	r1, [pc, #60]	; (8001acc <LCD_voidAdminOptions+0x64>)
 8001a8e:	480d      	ldr	r0, [pc, #52]	; (8001ac4 <LCD_voidAdminOptions+0x5c>)
 8001a90:	f000 fc78 	bl	8002384 <LCD_voidSendString>
	LCD_voidGotoXY(&myLCD,0,2);
 8001a94:	2202      	movs	r2, #2
 8001a96:	2100      	movs	r1, #0
 8001a98:	480a      	ldr	r0, [pc, #40]	; (8001ac4 <LCD_voidAdminOptions+0x5c>)
 8001a9a:	f000 fc9f 	bl	80023dc <LCD_voidGotoXY>
	LCD_voidSendString(&myLCD,addString("2- Delete Driver"));
 8001a9e:	490c      	ldr	r1, [pc, #48]	; (8001ad0 <LCD_voidAdminOptions+0x68>)
 8001aa0:	4808      	ldr	r0, [pc, #32]	; (8001ac4 <LCD_voidAdminOptions+0x5c>)
 8001aa2:	f000 fc6f 	bl	8002384 <LCD_voidSendString>
	LCD_voidGotoXY(&myLCD,0,3);
 8001aa6:	2203      	movs	r2, #3
 8001aa8:	2100      	movs	r1, #0
 8001aaa:	4806      	ldr	r0, [pc, #24]	; (8001ac4 <LCD_voidAdminOptions+0x5c>)
 8001aac:	f000 fc96 	bl	80023dc <LCD_voidGotoXY>
	LCD_voidSendString(&myLCD,addString("3- Edit Data"));
 8001ab0:	4908      	ldr	r1, [pc, #32]	; (8001ad4 <LCD_voidAdminOptions+0x6c>)
 8001ab2:	4804      	ldr	r0, [pc, #16]	; (8001ac4 <LCD_voidAdminOptions+0x5c>)
 8001ab4:	f000 fc66 	bl	8002384 <LCD_voidSendString>
	LCD_voidSendString(&myLCD,addString("  <B"));
 8001ab8:	4907      	ldr	r1, [pc, #28]	; (8001ad8 <LCD_voidAdminOptions+0x70>)
 8001aba:	4802      	ldr	r0, [pc, #8]	; (8001ac4 <LCD_voidAdminOptions+0x5c>)
 8001abc:	f000 fc62 	bl	8002384 <LCD_voidSendString>
}
 8001ac0:	bf00      	nop
 8001ac2:	bd80      	pop	{r7, pc}
 8001ac4:	200000a4 	.word	0x200000a4
 8001ac8:	080047f0 	.word	0x080047f0
 8001acc:	080049d4 	.word	0x080049d4
 8001ad0:	080049e4 	.word	0x080049e4
 8001ad4:	080049f8 	.word	0x080049f8
 8001ad8:	08004a08 	.word	0x08004a08

08001adc <LCD_voidStatusOptions>:

static void LCD_voidStatusOptions(void)
{
 8001adc:	b580      	push	{r7, lr}
 8001ade:	af00      	add	r7, sp, #0
	LCD_voidSetCursorType(&myLCD, CURS_OFF ) ;
 8001ae0:	210c      	movs	r1, #12
 8001ae2:	4818      	ldr	r0, [pc, #96]	; (8001b44 <LCD_voidStatusOptions+0x68>)
 8001ae4:	f000 fc6b 	bl	80023be <LCD_voidSetCursorType>
	LCD_voidClear(&myLCD);
 8001ae8:	4816      	ldr	r0, [pc, #88]	; (8001b44 <LCD_voidStatusOptions+0x68>)
 8001aea:	f000 fcac 	bl	8002446 <LCD_voidClear>
	LCD_voidSendString(&myLCD,addString("PARKING GARAGE"));
 8001aee:	4916      	ldr	r1, [pc, #88]	; (8001b48 <LCD_voidStatusOptions+0x6c>)
 8001af0:	4814      	ldr	r0, [pc, #80]	; (8001b44 <LCD_voidStatusOptions+0x68>)
 8001af2:	f000 fc47 	bl	8002384 <LCD_voidSendString>
	LCD_voidGotoXY(&myLCD,0,1);
 8001af6:	2201      	movs	r2, #1
 8001af8:	2100      	movs	r1, #0
 8001afa:	4812      	ldr	r0, [pc, #72]	; (8001b44 <LCD_voidStatusOptions+0x68>)
 8001afc:	f000 fc6e 	bl	80023dc <LCD_voidGotoXY>
	LCD_voidSendString(&myLCD,addString("-Available Slots"));
 8001b00:	4912      	ldr	r1, [pc, #72]	; (8001b4c <LCD_voidStatusOptions+0x70>)
 8001b02:	4810      	ldr	r0, [pc, #64]	; (8001b44 <LCD_voidStatusOptions+0x68>)
 8001b04:	f000 fc3e 	bl	8002384 <LCD_voidSendString>
	LCD_voidGotoXY(&myLCD,6,2);
 8001b08:	2202      	movs	r2, #2
 8001b0a:	2106      	movs	r1, #6
 8001b0c:	480d      	ldr	r0, [pc, #52]	; (8001b44 <LCD_voidStatusOptions+0x68>)
 8001b0e:	f000 fc65 	bl	80023dc <LCD_voidGotoXY>
	LCD_voidSendString(&myLCD,addString(" = "));
 8001b12:	490f      	ldr	r1, [pc, #60]	; (8001b50 <LCD_voidStatusOptions+0x74>)
 8001b14:	480b      	ldr	r0, [pc, #44]	; (8001b44 <LCD_voidStatusOptions+0x68>)
 8001b16:	f000 fc35 	bl	8002384 <LCD_voidSendString>
	LCD_voidSendNumber(&myLCD, Glob_u8NumberOfAvailableSlots) ;
 8001b1a:	4b0e      	ldr	r3, [pc, #56]	; (8001b54 <LCD_voidStatusOptions+0x78>)
 8001b1c:	781b      	ldrb	r3, [r3, #0]
 8001b1e:	4619      	mov	r1, r3
 8001b20:	4808      	ldr	r0, [pc, #32]	; (8001b44 <LCD_voidStatusOptions+0x68>)
 8001b22:	f000 fcd4 	bl	80024ce <LCD_voidSendNumber>


	LCD_voidGotoXY(&myLCD,11,3);
 8001b26:	2203      	movs	r2, #3
 8001b28:	210b      	movs	r1, #11
 8001b2a:	4806      	ldr	r0, [pc, #24]	; (8001b44 <LCD_voidStatusOptions+0x68>)
 8001b2c:	f000 fc56 	bl	80023dc <LCD_voidGotoXY>
	LCD_voidSendString(&myLCD,addString("<BACK"));
 8001b30:	4909      	ldr	r1, [pc, #36]	; (8001b58 <LCD_voidStatusOptions+0x7c>)
 8001b32:	4804      	ldr	r0, [pc, #16]	; (8001b44 <LCD_voidStatusOptions+0x68>)
 8001b34:	f000 fc26 	bl	8002384 <LCD_voidSendString>
	LCD_voidSetCursorType(&myLCD, CURS_ON_BLINK ) ;
 8001b38:	210f      	movs	r1, #15
 8001b3a:	4802      	ldr	r0, [pc, #8]	; (8001b44 <LCD_voidStatusOptions+0x68>)
 8001b3c:	f000 fc3f 	bl	80023be <LCD_voidSetCursorType>

}
 8001b40:	bf00      	nop
 8001b42:	bd80      	pop	{r7, pc}
 8001b44:	200000a4 	.word	0x200000a4
 8001b48:	080047f0 	.word	0x080047f0
 8001b4c:	08004a10 	.word	0x08004a10
 8001b50:	08004a24 	.word	0x08004a24
 8001b54:	20000011 	.word	0x20000011
 8001b58:	08004a28 	.word	0x08004a28

08001b5c <LCD_AddDriver>:



static void LCD_AddDriver(void)
{
 8001b5c:	b580      	push	{r7, lr}
 8001b5e:	af00      	add	r7, sp, #0
	LCD_voidSetCursorType(&myLCD, CURS_OFF) ;
 8001b60:	210c      	movs	r1, #12
 8001b62:	480c      	ldr	r0, [pc, #48]	; (8001b94 <LCD_AddDriver+0x38>)
 8001b64:	f000 fc2b 	bl	80023be <LCD_voidSetCursorType>
	LCD_voidClear(&myLCD);
 8001b68:	480a      	ldr	r0, [pc, #40]	; (8001b94 <LCD_AddDriver+0x38>)
 8001b6a:	f000 fc6c 	bl	8002446 <LCD_voidClear>
	LCD_voidSendString(&myLCD,addString("PARKING GARAGE"));
 8001b6e:	490a      	ldr	r1, [pc, #40]	; (8001b98 <LCD_AddDriver+0x3c>)
 8001b70:	4808      	ldr	r0, [pc, #32]	; (8001b94 <LCD_AddDriver+0x38>)
 8001b72:	f000 fc07 	bl	8002384 <LCD_voidSendString>
	LCD_voidGotoXY(&myLCD,0,1);
 8001b76:	2201      	movs	r2, #1
 8001b78:	2100      	movs	r1, #0
 8001b7a:	4806      	ldr	r0, [pc, #24]	; (8001b94 <LCD_AddDriver+0x38>)
 8001b7c:	f000 fc2e 	bl	80023dc <LCD_voidGotoXY>
	AddinggBar(&myLCD,100,1);
 8001b80:	2201      	movs	r2, #1
 8001b82:	2164      	movs	r1, #100	; 0x64
 8001b84:	4803      	ldr	r0, [pc, #12]	; (8001b94 <LCD_AddDriver+0x38>)
 8001b86:	f7ff feef 	bl	8001968 <AddinggBar>
	LCD_voidMainScreen();
 8001b8a:	f7ff ff39 	bl	8001a00 <LCD_voidMainScreen>
}
 8001b8e:	bf00      	nop
 8001b90:	bd80      	pop	{r7, pc}
 8001b92:	bf00      	nop
 8001b94:	200000a4 	.word	0x200000a4
 8001b98:	080047f0 	.word	0x080047f0

08001b9c <LCD_voidDeleteDriver>:

static void LCD_voidDeleteDriver(void)
{
 8001b9c:	b580      	push	{r7, lr}
 8001b9e:	af00      	add	r7, sp, #0
	LCD_voidSetCursorType(&myLCD, CURS_OFF) ;
 8001ba0:	210c      	movs	r1, #12
 8001ba2:	480c      	ldr	r0, [pc, #48]	; (8001bd4 <LCD_voidDeleteDriver+0x38>)
 8001ba4:	f000 fc0b 	bl	80023be <LCD_voidSetCursorType>
	LCD_voidClear(&myLCD);
 8001ba8:	480a      	ldr	r0, [pc, #40]	; (8001bd4 <LCD_voidDeleteDriver+0x38>)
 8001baa:	f000 fc4c 	bl	8002446 <LCD_voidClear>
	LCD_voidSendString(&myLCD,addString("PARKING GARAGE"));
 8001bae:	490a      	ldr	r1, [pc, #40]	; (8001bd8 <LCD_voidDeleteDriver+0x3c>)
 8001bb0:	4808      	ldr	r0, [pc, #32]	; (8001bd4 <LCD_voidDeleteDriver+0x38>)
 8001bb2:	f000 fbe7 	bl	8002384 <LCD_voidSendString>
	LCD_voidGotoXY(&myLCD,0,1);
 8001bb6:	2201      	movs	r2, #1
 8001bb8:	2100      	movs	r1, #0
 8001bba:	4806      	ldr	r0, [pc, #24]	; (8001bd4 <LCD_voidDeleteDriver+0x38>)
 8001bbc:	f000 fc0e 	bl	80023dc <LCD_voidGotoXY>
	DeletingBar(&myLCD,100,1);
 8001bc0:	2201      	movs	r2, #1
 8001bc2:	2164      	movs	r1, #100	; 0x64
 8001bc4:	4803      	ldr	r0, [pc, #12]	; (8001bd4 <LCD_voidDeleteDriver+0x38>)
 8001bc6:	f7ff fe83 	bl	80018d0 <DeletingBar>
	LCD_voidMainScreen();
 8001bca:	f7ff ff19 	bl	8001a00 <LCD_voidMainScreen>

}
 8001bce:	bf00      	nop
 8001bd0:	bd80      	pop	{r7, pc}
 8001bd2:	bf00      	nop
 8001bd4:	200000a4 	.word	0x200000a4
 8001bd8:	080047f0 	.word	0x080047f0

08001bdc <LCD_voidDeletingOptions>:
static void LCD_voidDeletingOptions(void)
{
 8001bdc:	b580      	push	{r7, lr}
 8001bde:	af00      	add	r7, sp, #0
	LCD_voidSetCursorType(&myLCD, CURS_OFF) ;
 8001be0:	210c      	movs	r1, #12
 8001be2:	4815      	ldr	r0, [pc, #84]	; (8001c38 <LCD_voidDeletingOptions+0x5c>)
 8001be4:	f000 fbeb 	bl	80023be <LCD_voidSetCursorType>
	LCD_voidClear(&myLCD);
 8001be8:	4813      	ldr	r0, [pc, #76]	; (8001c38 <LCD_voidDeletingOptions+0x5c>)
 8001bea:	f000 fc2c 	bl	8002446 <LCD_voidClear>
	LCD_voidSendString(&myLCD,addString("PARKING GARAGE"));
 8001bee:	4913      	ldr	r1, [pc, #76]	; (8001c3c <LCD_voidDeletingOptions+0x60>)
 8001bf0:	4811      	ldr	r0, [pc, #68]	; (8001c38 <LCD_voidDeletingOptions+0x5c>)
 8001bf2:	f000 fbc7 	bl	8002384 <LCD_voidSendString>
	LCD_voidGotoXY(&myLCD,0,1);
 8001bf6:	2201      	movs	r2, #1
 8001bf8:	2100      	movs	r1, #0
 8001bfa:	480f      	ldr	r0, [pc, #60]	; (8001c38 <LCD_voidDeletingOptions+0x5c>)
 8001bfc:	f000 fbee 	bl	80023dc <LCD_voidGotoXY>
	LCD_voidSendString(&myLCD,addString("1- Delete Driver"));
 8001c00:	490f      	ldr	r1, [pc, #60]	; (8001c40 <LCD_voidDeletingOptions+0x64>)
 8001c02:	480d      	ldr	r0, [pc, #52]	; (8001c38 <LCD_voidDeletingOptions+0x5c>)
 8001c04:	f000 fbbe 	bl	8002384 <LCD_voidSendString>
	LCD_voidGotoXY(&myLCD,0,2);
 8001c08:	2202      	movs	r2, #2
 8001c0a:	2100      	movs	r1, #0
 8001c0c:	480a      	ldr	r0, [pc, #40]	; (8001c38 <LCD_voidDeletingOptions+0x5c>)
 8001c0e:	f000 fbe5 	bl	80023dc <LCD_voidGotoXY>
	LCD_voidSendString(&myLCD,addString("2- Delete All"));
 8001c12:	490c      	ldr	r1, [pc, #48]	; (8001c44 <LCD_voidDeletingOptions+0x68>)
 8001c14:	4808      	ldr	r0, [pc, #32]	; (8001c38 <LCD_voidDeletingOptions+0x5c>)
 8001c16:	f000 fbb5 	bl	8002384 <LCD_voidSendString>
	LCD_voidGotoXY(&myLCD,3,3);
 8001c1a:	2203      	movs	r2, #3
 8001c1c:	2103      	movs	r1, #3
 8001c1e:	4806      	ldr	r0, [pc, #24]	; (8001c38 <LCD_voidDeletingOptions+0x5c>)
 8001c20:	f000 fbdc 	bl	80023dc <LCD_voidGotoXY>
	LCD_voidSendString(&myLCD,addString("<MAIN SCREEN"));
 8001c24:	4908      	ldr	r1, [pc, #32]	; (8001c48 <LCD_voidDeletingOptions+0x6c>)
 8001c26:	4804      	ldr	r0, [pc, #16]	; (8001c38 <LCD_voidDeletingOptions+0x5c>)
 8001c28:	f000 fbac 	bl	8002384 <LCD_voidSendString>
	LCD_voidSetCursorType(&myLCD, CURS_ON_BLINK ) ;
 8001c2c:	210f      	movs	r1, #15
 8001c2e:	4802      	ldr	r0, [pc, #8]	; (8001c38 <LCD_voidDeletingOptions+0x5c>)
 8001c30:	f000 fbc5 	bl	80023be <LCD_voidSetCursorType>
}
 8001c34:	bf00      	nop
 8001c36:	bd80      	pop	{r7, pc}
 8001c38:	200000a4 	.word	0x200000a4
 8001c3c:	080047f0 	.word	0x080047f0
 8001c40:	08004a30 	.word	0x08004a30
 8001c44:	08004a44 	.word	0x08004a44
 8001c48:	08004a54 	.word	0x08004a54

08001c4c <keypad_voidSetup>:

/********************************************** End of LCD fcn	********************************************************/

/********************************************** Start of Keypad fcn	********************************************************/
static void keypad_voidSetup(void)
{
 8001c4c:	b580      	push	{r7, lr}
 8001c4e:	af00      	add	r7, sp, #0
	/*	Keypad Init		*/
	myKeypad.NumOfRows = ROWS ;	// Output
 8001c50:	4b09      	ldr	r3, [pc, #36]	; (8001c78 <keypad_voidSetup+0x2c>)
 8001c52:	2204      	movs	r2, #4
 8001c54:	701a      	strb	r2, [r3, #0]
	myKeypad.NumOfCols = COLS ;	//Input
 8001c56:	4b08      	ldr	r3, [pc, #32]	; (8001c78 <keypad_voidSetup+0x2c>)
 8001c58:	2203      	movs	r2, #3
 8001c5a:	705a      	strb	r2, [r3, #1]
	myKeypad.Port_Pin_Rows = RowsPins ;
 8001c5c:	4b06      	ldr	r3, [pc, #24]	; (8001c78 <keypad_voidSetup+0x2c>)
 8001c5e:	4a07      	ldr	r2, [pc, #28]	; (8001c7c <keypad_voidSetup+0x30>)
 8001c60:	605a      	str	r2, [r3, #4]
	myKeypad.Port_Pin_Cols = ColsPins ;
 8001c62:	4b05      	ldr	r3, [pc, #20]	; (8001c78 <keypad_voidSetup+0x2c>)
 8001c64:	4a06      	ldr	r2, [pc, #24]	; (8001c80 <keypad_voidSetup+0x34>)
 8001c66:	609a      	str	r2, [r3, #8]
	myKeypad.KeysPattern = newKeyMap(keys) ;
 8001c68:	4b03      	ldr	r3, [pc, #12]	; (8001c78 <keypad_voidSetup+0x2c>)
 8001c6a:	4a06      	ldr	r2, [pc, #24]	; (8001c84 <keypad_voidSetup+0x38>)
 8001c6c:	60da      	str	r2, [r3, #12]
	HAL_KeyPadInit(&myKeypad);
 8001c6e:	4802      	ldr	r0, [pc, #8]	; (8001c78 <keypad_voidSetup+0x2c>)
 8001c70:	f000 f92a 	bl	8001ec8 <HAL_KeyPadInit>
}
 8001c74:	bf00      	nop
 8001c76:	bd80      	pop	{r7, pc}
 8001c78:	20000130 	.word	0x20000130
 8001c7c:	2000004c 	.word	0x2000004c
 8001c80:	20000054 	.word	0x20000054
 8001c84:	20000040 	.word	0x20000040

08001c88 <_7Segnent_voidSetup>:
/********************************************** End of Keypad fcn	********************************************************/

/********************************************** Start of Seven Segment fcn	********************************************************/
void _7Segnent_voidSetup(void)
{
 8001c88:	b580      	push	{r7, lr}
 8001c8a:	af00      	add	r7, sp, #0
	mySegment._7SegmentMode = _7_SEG_4_PIN_IC ;
 8001c8c:	4b14      	ldr	r3, [pc, #80]	; (8001ce0 <_7Segnent_voidSetup+0x58>)
 8001c8e:	2201      	movs	r2, #1
 8001c90:	705a      	strb	r2, [r3, #1]
	mySegment._7SegmentType = COMN_ANODE ;
 8001c92:	4b13      	ldr	r3, [pc, #76]	; (8001ce0 <_7Segnent_voidSetup+0x58>)
 8001c94:	2200      	movs	r2, #0
 8001c96:	701a      	strb	r2, [r3, #0]
	/************** Set 7 Segment2 Pins ***********************/
	mySegment._7SegmentPins._7SEG_A_PORT = PORTA ;
 8001c98:	4b11      	ldr	r3, [pc, #68]	; (8001ce0 <_7Segnent_voidSetup+0x58>)
 8001c9a:	2202      	movs	r2, #2
 8001c9c:	709a      	strb	r2, [r3, #2]
	mySegment._7SegmentPins._7SEG_A_PIN  = PIN8;
 8001c9e:	4b10      	ldr	r3, [pc, #64]	; (8001ce0 <_7Segnent_voidSetup+0x58>)
 8001ca0:	2208      	movs	r2, #8
 8001ca2:	70da      	strb	r2, [r3, #3]
	mySegment._7SegmentPins._7SEG_B_PORT = PORTB ;
 8001ca4:	4b0e      	ldr	r3, [pc, #56]	; (8001ce0 <_7Segnent_voidSetup+0x58>)
 8001ca6:	2203      	movs	r2, #3
 8001ca8:	711a      	strb	r2, [r3, #4]
	mySegment._7SegmentPins._7SEG_B_PIN  = PIN10  ;
 8001caa:	4b0d      	ldr	r3, [pc, #52]	; (8001ce0 <_7Segnent_voidSetup+0x58>)
 8001cac:	220a      	movs	r2, #10
 8001cae:	715a      	strb	r2, [r3, #5]
	mySegment._7SegmentPins._7SEG_C_PORT = PORTB ;
 8001cb0:	4b0b      	ldr	r3, [pc, #44]	; (8001ce0 <_7Segnent_voidSetup+0x58>)
 8001cb2:	2203      	movs	r2, #3
 8001cb4:	719a      	strb	r2, [r3, #6]
	mySegment._7SegmentPins._7SEG_C_PIN  = PIN1 ;
 8001cb6:	4b0a      	ldr	r3, [pc, #40]	; (8001ce0 <_7Segnent_voidSetup+0x58>)
 8001cb8:	2201      	movs	r2, #1
 8001cba:	71da      	strb	r2, [r3, #7]
	mySegment._7SegmentPins._7SEG_D_PORT = PORTA ;
 8001cbc:	4b08      	ldr	r3, [pc, #32]	; (8001ce0 <_7Segnent_voidSetup+0x58>)
 8001cbe:	2202      	movs	r2, #2
 8001cc0:	721a      	strb	r2, [r3, #8]
	mySegment._7SegmentPins._7SEG_D_PIN  = PIN3;
 8001cc2:	4b07      	ldr	r3, [pc, #28]	; (8001ce0 <_7Segnent_voidSetup+0x58>)
 8001cc4:	2203      	movs	r2, #3
 8001cc6:	725a      	strb	r2, [r3, #9]

	/************** Set 7 Segment Init ***********************/
	HAL_7SegmentInit(&mySegment);
 8001cc8:	4805      	ldr	r0, [pc, #20]	; (8001ce0 <_7Segnent_voidSetup+0x58>)
 8001cca:	f000 fcfb 	bl	80026c4 <HAL_7SegmentInit>
	HAL_7SegmentWriteNumber(&mySegment, Glob_u8NumberOfAvailableSlots);
 8001cce:	4b05      	ldr	r3, [pc, #20]	; (8001ce4 <_7Segnent_voidSetup+0x5c>)
 8001cd0:	781b      	ldrb	r3, [r3, #0]
 8001cd2:	4619      	mov	r1, r3
 8001cd4:	4802      	ldr	r0, [pc, #8]	; (8001ce0 <_7Segnent_voidSetup+0x58>)
 8001cd6:	f000 fd63 	bl	80027a0 <HAL_7SegmentWriteNumber>
}
 8001cda:	bf00      	nop
 8001cdc:	bd80      	pop	{r7, pc}
 8001cde:	bf00      	nop
 8001ce0:	20000000 	.word	0x20000000
 8001ce4:	20000011 	.word	0x20000011

08001ce8 <EXTI_voidSetup>:

/********************************************** End of Seven Segment fcn	********************************************************/
/********************************************** Start of EXTI fcn	********************************************************/
static void EXTI_voidSetup(void)
{
 8001ce8:	b580      	push	{r7, lr}
 8001cea:	af00      	add	r7, sp, #0
	// EXTI0
	NVIC_voidEnableInterrupt(6);
 8001cec:	2006      	movs	r0, #6
 8001cee:	f001 fdc1 	bl	8003874 <NVIC_voidEnableInterrupt>
	AFIO_voidEXTIConfiguration(EXTI_LINE0, ECU1_EXTI_PORT);
 8001cf2:	2102      	movs	r1, #2
 8001cf4:	2000      	movs	r0, #0
 8001cf6:	f001 fad9 	bl	80032ac <AFIO_voidEXTIConfiguration>
	EXTI_voidInitLine(EXTI_LINE0, EXTI_ON_CHANGE);
 8001cfa:	2102      	movs	r1, #2
 8001cfc:	2000      	movs	r0, #0
 8001cfe:	f001 fb13 	bl	8003328 <EXTI_voidInitLine>
	EXTI_voidSetCallBackFCN(EXTI_LINE0, ECU1_Callback);
 8001d02:	490d      	ldr	r1, [pc, #52]	; (8001d38 <EXTI_voidSetup+0x50>)
 8001d04:	2000      	movs	r0, #0
 8001d06:	f001 fb7b 	bl	8003400 <EXTI_voidSetCallBackFCN>
	EXTI_voidEnableEXTI(EXTI_LINE0);
 8001d0a:	2000      	movs	r0, #0
 8001d0c:	f001 fb62 	bl	80033d4 <EXTI_voidEnableEXTI>

	// EXTI1
	NVIC_voidEnableInterrupt(7);
 8001d10:	2007      	movs	r0, #7
 8001d12:	f001 fdaf 	bl	8003874 <NVIC_voidEnableInterrupt>
	AFIO_voidEXTIConfiguration(EXTI_LINE1, ECU3_EXTI_PORT);
 8001d16:	2102      	movs	r1, #2
 8001d18:	2001      	movs	r0, #1
 8001d1a:	f001 fac7 	bl	80032ac <AFIO_voidEXTIConfiguration>
	EXTI_voidInitLine(EXTI_LINE1, EXTI_ON_CHANGE);
 8001d1e:	2102      	movs	r1, #2
 8001d20:	2001      	movs	r0, #1
 8001d22:	f001 fb01 	bl	8003328 <EXTI_voidInitLine>
	EXTI_voidSetCallBackFCN(EXTI_LINE1, ECU3_Callback);
 8001d26:	4905      	ldr	r1, [pc, #20]	; (8001d3c <EXTI_voidSetup+0x54>)
 8001d28:	2001      	movs	r0, #1
 8001d2a:	f001 fb69 	bl	8003400 <EXTI_voidSetCallBackFCN>
	EXTI_voidEnableEXTI(EXTI_LINE1);
 8001d2e:	2001      	movs	r0, #1
 8001d30:	f001 fb50 	bl	80033d4 <EXTI_voidEnableEXTI>





}
 8001d34:	bf00      	nop
 8001d36:	bd80      	pop	{r7, pc}
 8001d38:	08000985 	.word	0x08000985
 8001d3c:	08000b95 	.word	0x08000b95

08001d40 <ECU3_Dashboard_APP_SETUP>:
*******************************************************************************/


/*				MAIN FCNs				*/
void ECU3_Dashboard_APP_SETUP(void)
{
 8001d40:	b580      	push	{r7, lr}
 8001d42:	af00      	add	r7, sp, #0
	/*			Init MCU Clock			*/
	RCC_voidInitSysClocks();
 8001d44:	f001 fe02 	bl	800394c <RCC_voidInitSysClocks>
	RCC_voidEnableClock(RCC_APB2, PORTA);
 8001d48:	2102      	movs	r1, #2
 8001d4a:	2002      	movs	r0, #2
 8001d4c:	f001 fdbe 	bl	80038cc <RCC_voidEnableClock>
	RCC_voidEnableClock(RCC_APB2, PORTB);
 8001d50:	2103      	movs	r1, #3
 8001d52:	2002      	movs	r0, #2
 8001d54:	f001 fdba 	bl	80038cc <RCC_voidEnableClock>
	RCC_voidEnableClock(RCC_APB2,14 );		/*	USART1	*/
 8001d58:	210e      	movs	r1, #14
 8001d5a:	2002      	movs	r0, #2
 8001d5c:	f001 fdb6 	bl	80038cc <RCC_voidEnableClock>
	RCC_voidEnableClock(RCC_APB2 , 0 );		/*	AFIO	*/
 8001d60:	2100      	movs	r1, #0
 8001d62:	2002      	movs	r0, #2
 8001d64:	f001 fdb2 	bl	80038cc <RCC_voidEnableClock>
	RCC_voidEnableClock(RCC_APB2,12 );		/*	SPI	*/
 8001d68:	210c      	movs	r1, #12
 8001d6a:	2002      	movs	r0, #2
 8001d6c:	f001 fdae 	bl	80038cc <RCC_voidEnableClock>
	

	/*			MCAL					*/
	UART_voidSetup();
 8001d70:	f7ff fd44 	bl	80017fc <UART_voidSetup>
	EXTI_voidSetup();
 8001d74:	f7ff ffb8 	bl	8001ce8 <EXTI_voidSetup>
	SPI_voidSetup() ;
 8001d78:	f7ff fcca 	bl	8001710 <SPI_voidSetup>


	/*			HAL					*/
	keypad_voidSetup();
 8001d7c:	f7ff ff66 	bl	8001c4c <keypad_voidSetup>
	_7Segnent_voidSetup();
 8001d80:	f7ff ff82 	bl	8001c88 <_7Segnent_voidSetup>
	LCD_voidSetup();
 8001d84:	f7ff fd04 	bl	8001790 <LCD_voidSetup>


	/*			General				*/
	System_voidFillAdminsData();
 8001d88:	f7ff f80c 	bl	8000da4 <System_voidFillAdminsData>
	System_voidFillDriverssData();
 8001d8c:	f7ff f86e 	bl	8000e6c <System_voidFillDriverssData>
}
 8001d90:	bf00      	nop
 8001d92:	bd80      	pop	{r7, pc}

08001d94 <ECU3_Dashboard_APP_LOOP>:

u8 Glob_u8Pressed_Key = KEYPAD_NOT_PRESSED_RETURN ;
void ECU3_Dashboard_APP_LOOP(void)
{
 8001d94:	b580      	push	{r7, lr}
 8001d96:	af00      	add	r7, sp, #0

	do
	{
		Glob_u8Pressed_Key = HAL_KeyPadGetPressedKey(&myKeypad);
 8001d98:	4848      	ldr	r0, [pc, #288]	; (8001ebc <ECU3_Dashboard_APP_LOOP+0x128>)
 8001d9a:	f000 f8f5 	bl	8001f88 <HAL_KeyPadGetPressedKey>
 8001d9e:	4603      	mov	r3, r0
 8001da0:	461a      	mov	r2, r3
 8001da2:	4b47      	ldr	r3, [pc, #284]	; (8001ec0 <ECU3_Dashboard_APP_LOOP+0x12c>)
 8001da4:	701a      	strb	r2, [r3, #0]

	}while(!(Glob_u8Pressed_Key>= '1' && Glob_u8Pressed_Key <= '2'));
 8001da6:	4b46      	ldr	r3, [pc, #280]	; (8001ec0 <ECU3_Dashboard_APP_LOOP+0x12c>)
 8001da8:	781b      	ldrb	r3, [r3, #0]
 8001daa:	2b30      	cmp	r3, #48	; 0x30
 8001dac:	d9f4      	bls.n	8001d98 <ECU3_Dashboard_APP_LOOP+0x4>
 8001dae:	4b44      	ldr	r3, [pc, #272]	; (8001ec0 <ECU3_Dashboard_APP_LOOP+0x12c>)
 8001db0:	781b      	ldrb	r3, [r3, #0]
 8001db2:	2b32      	cmp	r3, #50	; 0x32
 8001db4:	d8f0      	bhi.n	8001d98 <ECU3_Dashboard_APP_LOOP+0x4>



	// Get Option
	if((u8)OPTION_ADMIN_SELECT == Glob_u8Pressed_Key)
 8001db6:	4b42      	ldr	r3, [pc, #264]	; (8001ec0 <ECU3_Dashboard_APP_LOOP+0x12c>)
 8001db8:	781b      	ldrb	r3, [r3, #0]
 8001dba:	2b31      	cmp	r3, #49	; 0x31
 8001dbc:	d161      	bne.n	8001e82 <ECU3_Dashboard_APP_LOOP+0xee>
	{
		// Validate Admin username and password
		if(Glob_LogginSeesionExpired == 1)
 8001dbe:	4b41      	ldr	r3, [pc, #260]	; (8001ec4 <ECU3_Dashboard_APP_LOOP+0x130>)
 8001dc0:	781b      	ldrb	r3, [r3, #0]
 8001dc2:	2b01      	cmp	r3, #1
 8001dc4:	d101      	bne.n	8001dca <ECU3_Dashboard_APP_LOOP+0x36>
		{
			System_u8ValidateAdminData() ;
 8001dc6:	f7ff f8bb 	bl	8000f40 <System_u8ValidateAdminData>
		}

		if(Glob_LogginSeesionExpired == 0)
 8001dca:	4b3e      	ldr	r3, [pc, #248]	; (8001ec4 <ECU3_Dashboard_APP_LOOP+0x130>)
 8001dcc:	781b      	ldrb	r3, [r3, #0]
 8001dce:	2b00      	cmp	r3, #0
 8001dd0:	d154      	bne.n	8001e7c <ECU3_Dashboard_APP_LOOP+0xe8>
		{
			// admin privilege Screen
			LCD_voidAdminOptions();
 8001dd2:	f7ff fe49 	bl	8001a68 <LCD_voidAdminOptions>
			do
			{
				Glob_u8Pressed_Key = HAL_KeyPadGetPressedKey(&myKeypad);
 8001dd6:	4839      	ldr	r0, [pc, #228]	; (8001ebc <ECU3_Dashboard_APP_LOOP+0x128>)
 8001dd8:	f000 f8d6 	bl	8001f88 <HAL_KeyPadGetPressedKey>
 8001ddc:	4603      	mov	r3, r0
 8001dde:	461a      	mov	r2, r3
 8001de0:	4b37      	ldr	r3, [pc, #220]	; (8001ec0 <ECU3_Dashboard_APP_LOOP+0x12c>)
 8001de2:	701a      	strb	r2, [r3, #0]

			}while(!((Glob_u8Pressed_Key>= '1' && Glob_u8Pressed_Key <= '3' ) || (Glob_u8Pressed_Key == (u8)KEYPAD_BACK_SYMBOL ))) ;
 8001de4:	4b36      	ldr	r3, [pc, #216]	; (8001ec0 <ECU3_Dashboard_APP_LOOP+0x12c>)
 8001de6:	781b      	ldrb	r3, [r3, #0]
 8001de8:	2b30      	cmp	r3, #48	; 0x30
 8001dea:	d903      	bls.n	8001df4 <ECU3_Dashboard_APP_LOOP+0x60>
 8001dec:	4b34      	ldr	r3, [pc, #208]	; (8001ec0 <ECU3_Dashboard_APP_LOOP+0x12c>)
 8001dee:	781b      	ldrb	r3, [r3, #0]
 8001df0:	2b33      	cmp	r3, #51	; 0x33
 8001df2:	d903      	bls.n	8001dfc <ECU3_Dashboard_APP_LOOP+0x68>
 8001df4:	4b32      	ldr	r3, [pc, #200]	; (8001ec0 <ECU3_Dashboard_APP_LOOP+0x12c>)
 8001df6:	781b      	ldrb	r3, [r3, #0]
 8001df8:	2b23      	cmp	r3, #35	; 0x23
 8001dfa:	d1ec      	bne.n	8001dd6 <ECU3_Dashboard_APP_LOOP+0x42>

			/* Check  Pressed Key */
			if(OPTION_ADD_USER == Glob_u8Pressed_Key)
 8001dfc:	4b30      	ldr	r3, [pc, #192]	; (8001ec0 <ECU3_Dashboard_APP_LOOP+0x12c>)
 8001dfe:	781b      	ldrb	r3, [r3, #0]
 8001e00:	2b31      	cmp	r3, #49	; 0x31
 8001e02:	d102      	bne.n	8001e0a <ECU3_Dashboard_APP_LOOP+0x76>
			{
				// Add New User
				System_voidAddNewUser();
 8001e04:	f7ff f9aa 	bl	800115c <System_voidAddNewUser>
		//<TODO ERROR> Wrong Main Screen Selection
		LCD_voidMainScreen();

	}

}
 8001e08:	e056      	b.n	8001eb8 <ECU3_Dashboard_APP_LOOP+0x124>
			else if(OPTION_DELETE_USER == Glob_u8Pressed_Key)
 8001e0a:	4b2d      	ldr	r3, [pc, #180]	; (8001ec0 <ECU3_Dashboard_APP_LOOP+0x12c>)
 8001e0c:	781b      	ldrb	r3, [r3, #0]
 8001e0e:	2b32      	cmp	r3, #50	; 0x32
 8001e10:	d126      	bne.n	8001e60 <ECU3_Dashboard_APP_LOOP+0xcc>
				LCD_voidDeletingOptions();
 8001e12:	f7ff fee3 	bl	8001bdc <LCD_voidDeletingOptions>
					Glob_u8Pressed_Key = HAL_KeyPadGetPressedKey(&myKeypad);
 8001e16:	4829      	ldr	r0, [pc, #164]	; (8001ebc <ECU3_Dashboard_APP_LOOP+0x128>)
 8001e18:	f000 f8b6 	bl	8001f88 <HAL_KeyPadGetPressedKey>
 8001e1c:	4603      	mov	r3, r0
 8001e1e:	461a      	mov	r2, r3
 8001e20:	4b27      	ldr	r3, [pc, #156]	; (8001ec0 <ECU3_Dashboard_APP_LOOP+0x12c>)
 8001e22:	701a      	strb	r2, [r3, #0]
				}while(!((Glob_u8Pressed_Key>= '1' && Glob_u8Pressed_Key <= '2' ) || (Glob_u8Pressed_Key == (u8)KEYPAD_BACK_SYMBOL ))) ;
 8001e24:	4b26      	ldr	r3, [pc, #152]	; (8001ec0 <ECU3_Dashboard_APP_LOOP+0x12c>)
 8001e26:	781b      	ldrb	r3, [r3, #0]
 8001e28:	2b30      	cmp	r3, #48	; 0x30
 8001e2a:	d903      	bls.n	8001e34 <ECU3_Dashboard_APP_LOOP+0xa0>
 8001e2c:	4b24      	ldr	r3, [pc, #144]	; (8001ec0 <ECU3_Dashboard_APP_LOOP+0x12c>)
 8001e2e:	781b      	ldrb	r3, [r3, #0]
 8001e30:	2b32      	cmp	r3, #50	; 0x32
 8001e32:	d903      	bls.n	8001e3c <ECU3_Dashboard_APP_LOOP+0xa8>
 8001e34:	4b22      	ldr	r3, [pc, #136]	; (8001ec0 <ECU3_Dashboard_APP_LOOP+0x12c>)
 8001e36:	781b      	ldrb	r3, [r3, #0]
 8001e38:	2b23      	cmp	r3, #35	; 0x23
 8001e3a:	d1ec      	bne.n	8001e16 <ECU3_Dashboard_APP_LOOP+0x82>
				switch(Glob_u8Pressed_Key)
 8001e3c:	4b20      	ldr	r3, [pc, #128]	; (8001ec0 <ECU3_Dashboard_APP_LOOP+0x12c>)
 8001e3e:	781b      	ldrb	r3, [r3, #0]
 8001e40:	2b31      	cmp	r3, #49	; 0x31
 8001e42:	d002      	beq.n	8001e4a <ECU3_Dashboard_APP_LOOP+0xb6>
 8001e44:	2b32      	cmp	r3, #50	; 0x32
 8001e46:	d004      	beq.n	8001e52 <ECU3_Dashboard_APP_LOOP+0xbe>
 8001e48:	e007      	b.n	8001e5a <ECU3_Dashboard_APP_LOOP+0xc6>
					case	'1' : System_VoidDeleteUser(DELT_ONE_DRIVER); break ;
 8001e4a:	2000      	movs	r0, #0
 8001e4c:	f7ff fa98 	bl	8001380 <System_VoidDeleteUser>
 8001e50:	e032      	b.n	8001eb8 <ECU3_Dashboard_APP_LOOP+0x124>
					case	'2' : System_VoidDeleteUser(DELT_ALL_DRIVERS); break ;
 8001e52:	2001      	movs	r0, #1
 8001e54:	f7ff fa94 	bl	8001380 <System_VoidDeleteUser>
 8001e58:	e02e      	b.n	8001eb8 <ECU3_Dashboard_APP_LOOP+0x124>
					default     : LCD_voidMainScreen();
 8001e5a:	f7ff fdd1 	bl	8001a00 <LCD_voidMainScreen>
}
 8001e5e:	e02b      	b.n	8001eb8 <ECU3_Dashboard_APP_LOOP+0x124>
			else if(OPTION_EDIT_USER == Glob_u8Pressed_Key)
 8001e60:	4b17      	ldr	r3, [pc, #92]	; (8001ec0 <ECU3_Dashboard_APP_LOOP+0x12c>)
 8001e62:	781b      	ldrb	r3, [r3, #0]
 8001e64:	2b33      	cmp	r3, #51	; 0x33
 8001e66:	d027      	beq.n	8001eb8 <ECU3_Dashboard_APP_LOOP+0x124>
			else if(KEYPAD_BACK_SYMBOL == Glob_u8Pressed_Key)
 8001e68:	4b15      	ldr	r3, [pc, #84]	; (8001ec0 <ECU3_Dashboard_APP_LOOP+0x12c>)
 8001e6a:	781b      	ldrb	r3, [r3, #0]
 8001e6c:	2b23      	cmp	r3, #35	; 0x23
 8001e6e:	d102      	bne.n	8001e76 <ECU3_Dashboard_APP_LOOP+0xe2>
				LCD_voidMainScreen();
 8001e70:	f7ff fdc6 	bl	8001a00 <LCD_voidMainScreen>
}
 8001e74:	e020      	b.n	8001eb8 <ECU3_Dashboard_APP_LOOP+0x124>
				LCD_voidMainScreen();
 8001e76:	f7ff fdc3 	bl	8001a00 <LCD_voidMainScreen>
}
 8001e7a:	e01d      	b.n	8001eb8 <ECU3_Dashboard_APP_LOOP+0x124>
			LCD_voidMainScreen();
 8001e7c:	f7ff fdc0 	bl	8001a00 <LCD_voidMainScreen>
}
 8001e80:	e01a      	b.n	8001eb8 <ECU3_Dashboard_APP_LOOP+0x124>
	else if ((u8)OPTION_GARAGE_SELECT == Glob_u8Pressed_Key)
 8001e82:	4b0f      	ldr	r3, [pc, #60]	; (8001ec0 <ECU3_Dashboard_APP_LOOP+0x12c>)
 8001e84:	781b      	ldrb	r3, [r3, #0]
 8001e86:	2b32      	cmp	r3, #50	; 0x32
 8001e88:	d113      	bne.n	8001eb2 <ECU3_Dashboard_APP_LOOP+0x11e>
		LCD_voidStatusOptions() ;
 8001e8a:	f7ff fe27 	bl	8001adc <LCD_voidStatusOptions>
			Glob_u8Pressed_Key = HAL_KeyPadGetPressedKey(&myKeypad);
 8001e8e:	480b      	ldr	r0, [pc, #44]	; (8001ebc <ECU3_Dashboard_APP_LOOP+0x128>)
 8001e90:	f000 f87a 	bl	8001f88 <HAL_KeyPadGetPressedKey>
 8001e94:	4603      	mov	r3, r0
 8001e96:	461a      	mov	r2, r3
 8001e98:	4b09      	ldr	r3, [pc, #36]	; (8001ec0 <ECU3_Dashboard_APP_LOOP+0x12c>)
 8001e9a:	701a      	strb	r2, [r3, #0]
		}while(!(Glob_u8Pressed_Key == (u8)KEYPAD_BACK_SYMBOL ))  ;
 8001e9c:	4b08      	ldr	r3, [pc, #32]	; (8001ec0 <ECU3_Dashboard_APP_LOOP+0x12c>)
 8001e9e:	781b      	ldrb	r3, [r3, #0]
 8001ea0:	2b23      	cmp	r3, #35	; 0x23
 8001ea2:	d1f4      	bne.n	8001e8e <ECU3_Dashboard_APP_LOOP+0xfa>
		if(KEYPAD_BACK_SYMBOL == Glob_u8Pressed_Key)
 8001ea4:	4b06      	ldr	r3, [pc, #24]	; (8001ec0 <ECU3_Dashboard_APP_LOOP+0x12c>)
 8001ea6:	781b      	ldrb	r3, [r3, #0]
 8001ea8:	2b23      	cmp	r3, #35	; 0x23
 8001eaa:	d105      	bne.n	8001eb8 <ECU3_Dashboard_APP_LOOP+0x124>
			LCD_voidMainScreen();
 8001eac:	f7ff fda8 	bl	8001a00 <LCD_voidMainScreen>
}
 8001eb0:	e002      	b.n	8001eb8 <ECU3_Dashboard_APP_LOOP+0x124>
		LCD_voidMainScreen();
 8001eb2:	f7ff fda5 	bl	8001a00 <LCD_voidMainScreen>
}
 8001eb6:	e7ff      	b.n	8001eb8 <ECU3_Dashboard_APP_LOOP+0x124>
 8001eb8:	bf00      	nop
 8001eba:	bd80      	pop	{r7, pc}
 8001ebc:	20000130 	.word	0x20000130
 8001ec0:	2000005a 	.word	0x2000005a
 8001ec4:	20000010 	.word	0x20000010

08001ec8 <HAL_KeyPadInit>:

/******************************************************************************
* Function Definitions
*******************************************************************************/
void HAL_KeyPadInit(KeyPad_cnfg* ptr_keyPadCfg)
{
 8001ec8:	b580      	push	{r7, lr}
 8001eca:	b084      	sub	sp, #16
 8001ecc:	af00      	add	r7, sp, #0
 8001ece:	6078      	str	r0, [r7, #4]
    u8 LOC_u8Counter = 0 ; 
 8001ed0:	2300      	movs	r3, #0
 8001ed2:	73fb      	strb	r3, [r7, #15]
    u8 LOC_u8GetPort = 0 ; 
 8001ed4:	2300      	movs	r3, #0
 8001ed6:	73bb      	strb	r3, [r7, #14]
    u8 LOC_u8GetPin = 0 ; 
 8001ed8:	2300      	movs	r3, #0
 8001eda:	737b      	strb	r3, [r7, #13]
	u8 LOC_u8NumOfRow = ACCESS_STRUCT(ptr_keyPadCfg,NumOfRows) +  ACCESS_STRUCT(ptr_keyPadCfg,NumOfRows); 
 8001edc:	687b      	ldr	r3, [r7, #4]
 8001ede:	781b      	ldrb	r3, [r3, #0]
 8001ee0:	005b      	lsls	r3, r3, #1
 8001ee2:	733b      	strb	r3, [r7, #12]
	u8 LOC_u8NumOfCols = ACCESS_STRUCT(ptr_keyPadCfg,NumOfCols)+  ACCESS_STRUCT(ptr_keyPadCfg,NumOfCols); 
 8001ee4:	687b      	ldr	r3, [r7, #4]
 8001ee6:	785b      	ldrb	r3, [r3, #1]
 8001ee8:	005b      	lsls	r3, r3, #1
 8001eea:	72fb      	strb	r3, [r7, #11]
	
    /*          INIT GPIOs  ROWs GPIO_OUTPUT_10MHZ_PUSH_PULL     */
    for(LOC_u8Counter = 0 ; LOC_u8Counter < LOC_u8NumOfRow ; LOC_u8Counter++)
 8001eec:	2300      	movs	r3, #0
 8001eee:	73fb      	strb	r3, [r7, #15]
 8001ef0:	e01d      	b.n	8001f2e <HAL_KeyPadInit+0x66>
    {        
       LOC_u8GetPort =  ACCESS_STRUCT(ptr_keyPadCfg,Port_Pin_Rows)[LOC_u8Counter];   // PORT
 8001ef2:	687b      	ldr	r3, [r7, #4]
 8001ef4:	685a      	ldr	r2, [r3, #4]
 8001ef6:	7bfb      	ldrb	r3, [r7, #15]
 8001ef8:	4413      	add	r3, r2
 8001efa:	781b      	ldrb	r3, [r3, #0]
 8001efc:	73bb      	strb	r3, [r7, #14]
       LOC_u8Counter++ ; 
 8001efe:	7bfb      	ldrb	r3, [r7, #15]
 8001f00:	3301      	adds	r3, #1
 8001f02:	73fb      	strb	r3, [r7, #15]
       LOC_u8GetPin  =  ACCESS_STRUCT(ptr_keyPadCfg,Port_Pin_Rows)[LOC_u8Counter];   // PIN
 8001f04:	687b      	ldr	r3, [r7, #4]
 8001f06:	685a      	ldr	r2, [r3, #4]
 8001f08:	7bfb      	ldrb	r3, [r7, #15]
 8001f0a:	4413      	add	r3, r2
 8001f0c:	781b      	ldrb	r3, [r3, #0]
 8001f0e:	737b      	strb	r3, [r7, #13]
       GPIO_voidSetPinDirection(LOC_u8GetPort,LOC_u8GetPin,GPIO_OUTPUT_10MHZ_PUSH_PULL);
 8001f10:	7b79      	ldrb	r1, [r7, #13]
 8001f12:	7bbb      	ldrb	r3, [r7, #14]
 8001f14:	2201      	movs	r2, #1
 8001f16:	4618      	mov	r0, r3
 8001f18:	f001 fade 	bl	80034d8 <GPIO_voidSetPinDirection>
	   GPIO_voidSetPinValue(LOC_u8GetPort,LOC_u8GetPin,HIGH);
 8001f1c:	7b79      	ldrb	r1, [r7, #13]
 8001f1e:	7bbb      	ldrb	r3, [r7, #14]
 8001f20:	2201      	movs	r2, #1
 8001f22:	4618      	mov	r0, r3
 8001f24:	f001 fb9e 	bl	8003664 <GPIO_voidSetPinValue>
    for(LOC_u8Counter = 0 ; LOC_u8Counter < LOC_u8NumOfRow ; LOC_u8Counter++)
 8001f28:	7bfb      	ldrb	r3, [r7, #15]
 8001f2a:	3301      	adds	r3, #1
 8001f2c:	73fb      	strb	r3, [r7, #15]
 8001f2e:	7bfa      	ldrb	r2, [r7, #15]
 8001f30:	7b3b      	ldrb	r3, [r7, #12]
 8001f32:	429a      	cmp	r2, r3
 8001f34:	d3dd      	bcc.n	8001ef2 <HAL_KeyPadInit+0x2a>
    }
    /*         Init GPIOs COLs Input        */
    for(LOC_u8Counter = 0 ; LOC_u8Counter < LOC_u8NumOfCols ; LOC_u8Counter++)
 8001f36:	2300      	movs	r3, #0
 8001f38:	73fb      	strb	r3, [r7, #15]
 8001f3a:	e01d      	b.n	8001f78 <HAL_KeyPadInit+0xb0>
    {        
       LOC_u8GetPort =  ACCESS_STRUCT(ptr_keyPadCfg,Port_Pin_Cols)[LOC_u8Counter];   // PORT
 8001f3c:	687b      	ldr	r3, [r7, #4]
 8001f3e:	689a      	ldr	r2, [r3, #8]
 8001f40:	7bfb      	ldrb	r3, [r7, #15]
 8001f42:	4413      	add	r3, r2
 8001f44:	781b      	ldrb	r3, [r3, #0]
 8001f46:	73bb      	strb	r3, [r7, #14]
       LOC_u8Counter++ ; 
 8001f48:	7bfb      	ldrb	r3, [r7, #15]
 8001f4a:	3301      	adds	r3, #1
 8001f4c:	73fb      	strb	r3, [r7, #15]
       LOC_u8GetPin  =  ACCESS_STRUCT(ptr_keyPadCfg,Port_Pin_Cols)[LOC_u8Counter];   // PIN
 8001f4e:	687b      	ldr	r3, [r7, #4]
 8001f50:	689a      	ldr	r2, [r3, #8]
 8001f52:	7bfb      	ldrb	r3, [r7, #15]
 8001f54:	4413      	add	r3, r2
 8001f56:	781b      	ldrb	r3, [r3, #0]
 8001f58:	737b      	strb	r3, [r7, #13]
       GPIO_voidSetPinDirection(LOC_u8GetPort,LOC_u8GetPin,GPIO_PULLUP_PULLDOWN);
 8001f5a:	7b79      	ldrb	r1, [r7, #13]
 8001f5c:	7bbb      	ldrb	r3, [r7, #14]
 8001f5e:	2208      	movs	r2, #8
 8001f60:	4618      	mov	r0, r3
 8001f62:	f001 fab9 	bl	80034d8 <GPIO_voidSetPinDirection>
       GPIO_u8ChoosePullMode(LOC_u8GetPort,LOC_u8GetPin,GPIO_PULL_UP);
 8001f66:	7b79      	ldrb	r1, [r7, #13]
 8001f68:	7bbb      	ldrb	r3, [r7, #14]
 8001f6a:	2201      	movs	r2, #1
 8001f6c:	4618      	mov	r0, r3
 8001f6e:	f001 fc0b 	bl	8003788 <GPIO_u8ChoosePullMode>
    for(LOC_u8Counter = 0 ; LOC_u8Counter < LOC_u8NumOfCols ; LOC_u8Counter++)
 8001f72:	7bfb      	ldrb	r3, [r7, #15]
 8001f74:	3301      	adds	r3, #1
 8001f76:	73fb      	strb	r3, [r7, #15]
 8001f78:	7bfa      	ldrb	r2, [r7, #15]
 8001f7a:	7afb      	ldrb	r3, [r7, #11]
 8001f7c:	429a      	cmp	r2, r3
 8001f7e:	d3dd      	bcc.n	8001f3c <HAL_KeyPadInit+0x74>
    }

}
 8001f80:	bf00      	nop
 8001f82:	3710      	adds	r7, #16
 8001f84:	46bd      	mov	sp, r7
 8001f86:	bd80      	pop	{r7, pc}

08001f88 <HAL_KeyPadGetPressedKey>:

u8 HAL_KeyPadGetPressedKey(KeyPad_cnfg* ptr_keyPadCfg)
{
 8001f88:	b580      	push	{r7, lr}
 8001f8a:	b086      	sub	sp, #24
 8001f8c:	af00      	add	r7, sp, #0
 8001f8e:	6078      	str	r0, [r7, #4]
    u8 LOC_u8CounterRows = 0 ;
 8001f90:	2300      	movs	r3, #0
 8001f92:	75fb      	strb	r3, [r7, #23]
    u8 LOC_u8CounterCols = 0 ;
 8001f94:	2300      	movs	r3, #0
 8001f96:	75bb      	strb	r3, [r7, #22]
    u8 LOC_u8GetPort = 0 ;
 8001f98:	2300      	movs	r3, #0
 8001f9a:	757b      	strb	r3, [r7, #21]
    u8 LOC_u8GetPin = 0 ;
 8001f9c:	2300      	movs	r3, #0
 8001f9e:	74bb      	strb	r3, [r7, #18]
    u8 LOC_u8PressedFlag = 0 ;
 8001fa0:	2300      	movs	r3, #0
 8001fa2:	753b      	strb	r3, [r7, #20]
    u8 LOC_u8ReturnValue = (u8)KEYPAD_NOT_PRESSED_RETURN ;
 8001fa4:	230a      	movs	r3, #10
 8001fa6:	74fb      	strb	r3, [r7, #19]
	u8 LOC_u8Index = 0 ;
 8001fa8:	2300      	movs	r3, #0
 8001faa:	747b      	strb	r3, [r7, #17]
	u8 LOC_u8IndexRow = 0 ;
 8001fac:	2300      	movs	r3, #0
 8001fae:	743b      	strb	r3, [r7, #16]
	u8 LOC_u8IndexCol = 0 ;
 8001fb0:	2300      	movs	r3, #0
 8001fb2:	73fb      	strb	r3, [r7, #15]

	u8 LOC_u8NumOfRow = ACCESS_STRUCT(ptr_keyPadCfg,NumOfRows) +  ACCESS_STRUCT(ptr_keyPadCfg,NumOfRows);
 8001fb4:	687b      	ldr	r3, [r7, #4]
 8001fb6:	781b      	ldrb	r3, [r3, #0]
 8001fb8:	005b      	lsls	r3, r3, #1
 8001fba:	73bb      	strb	r3, [r7, #14]
	u8 LOC_u8NumOfCols = ACCESS_STRUCT(ptr_keyPadCfg,NumOfCols)+  ACCESS_STRUCT(ptr_keyPadCfg,NumOfCols);
 8001fbc:	687b      	ldr	r3, [r7, #4]
 8001fbe:	785b      	ldrb	r3, [r3, #1]
 8001fc0:	005b      	lsls	r3, r3, #1
 8001fc2:	737b      	strb	r3, [r7, #13]

    /*          LOOP IN ROWS        */
    for(LOC_u8CounterRows = 0 ; LOC_u8CounterRows < LOC_u8NumOfRow ;  LOC_u8CounterRows++)
 8001fc4:	2300      	movs	r3, #0
 8001fc6:	75fb      	strb	r3, [r7, #23]
 8001fc8:	e073      	b.n	80020b2 <HAL_KeyPadGetPressedKey+0x12a>
    {
        /*              GET PORT AND PIN        */
        LOC_u8GetPort =  ACCESS_STRUCT(ptr_keyPadCfg,Port_Pin_Rows)[LOC_u8CounterRows];   // PORT
 8001fca:	687b      	ldr	r3, [r7, #4]
 8001fcc:	685a      	ldr	r2, [r3, #4]
 8001fce:	7dfb      	ldrb	r3, [r7, #23]
 8001fd0:	4413      	add	r3, r2
 8001fd2:	781b      	ldrb	r3, [r3, #0]
 8001fd4:	757b      	strb	r3, [r7, #21]
        LOC_u8CounterRows++ ;
 8001fd6:	7dfb      	ldrb	r3, [r7, #23]
 8001fd8:	3301      	adds	r3, #1
 8001fda:	75fb      	strb	r3, [r7, #23]
        LOC_u8GetPin  =  ACCESS_STRUCT(ptr_keyPadCfg,Port_Pin_Rows)[LOC_u8CounterRows];   // PIN
 8001fdc:	687b      	ldr	r3, [r7, #4]
 8001fde:	685a      	ldr	r2, [r3, #4]
 8001fe0:	7dfb      	ldrb	r3, [r7, #23]
 8001fe2:	4413      	add	r3, r2
 8001fe4:	781b      	ldrb	r3, [r3, #0]
 8001fe6:	74bb      	strb	r3, [r7, #18]
        /*               Enable Row Number LOC_u8CounterRows */
        ENABLE_ROW(LOC_u8GetPort,LOC_u8GetPin);
 8001fe8:	7cb9      	ldrb	r1, [r7, #18]
 8001fea:	7d7b      	ldrb	r3, [r7, #21]
 8001fec:	2200      	movs	r2, #0
 8001fee:	4618      	mov	r0, r3
 8001ff0:	f001 fb38 	bl	8003664 <GPIO_voidSetPinValue>
        /*   Check Whats Pressed In This Row         */
        for(LOC_u8CounterCols = 0 ; LOC_u8CounterCols < LOC_u8NumOfCols ; LOC_u8CounterCols++)
 8001ff4:	2300      	movs	r3, #0
 8001ff6:	75bb      	strb	r3, [r7, #22]
 8001ff8:	e043      	b.n	8002082 <HAL_KeyPadGetPressedKey+0xfa>
        {
            LOC_u8GetPort =  ACCESS_STRUCT(ptr_keyPadCfg,Port_Pin_Cols)[LOC_u8CounterCols];   // PORT
 8001ffa:	687b      	ldr	r3, [r7, #4]
 8001ffc:	689a      	ldr	r2, [r3, #8]
 8001ffe:	7dbb      	ldrb	r3, [r7, #22]
 8002000:	4413      	add	r3, r2
 8002002:	781b      	ldrb	r3, [r3, #0]
 8002004:	757b      	strb	r3, [r7, #21]
            LOC_u8CounterCols++ ;
 8002006:	7dbb      	ldrb	r3, [r7, #22]
 8002008:	3301      	adds	r3, #1
 800200a:	75bb      	strb	r3, [r7, #22]
            LOC_u8GetPin  =  ACCESS_STRUCT(ptr_keyPadCfg,Port_Pin_Cols)[LOC_u8CounterCols];   // PIN
 800200c:	687b      	ldr	r3, [r7, #4]
 800200e:	689a      	ldr	r2, [r3, #8]
 8002010:	7dbb      	ldrb	r3, [r7, #22]
 8002012:	4413      	add	r3, r2
 8002014:	781b      	ldrb	r3, [r3, #0]
 8002016:	74bb      	strb	r3, [r7, #18]
            IS_KYBD_PRESSED(LOC_u8GetPort,LOC_u8GetPin)
 8002018:	7cba      	ldrb	r2, [r7, #18]
 800201a:	7d7b      	ldrb	r3, [r7, #21]
 800201c:	4611      	mov	r1, r2
 800201e:	4618      	mov	r0, r3
 8002020:	f001 fb76 	bl	8003710 <GPIO_u8GetPinValue>
 8002024:	4603      	mov	r3, r0
 8002026:	2b00      	cmp	r3, #0
 8002028:	d128      	bne.n	800207c <HAL_KeyPadGetPressedKey+0xf4>
            {
                /*  Set Pressed Flag    */
                LOC_u8PressedFlag = 1 ;
 800202a:	2301      	movs	r3, #1
 800202c:	753b      	strb	r3, [r7, #20]
                /*  Key Is Pressed */
                IGNORE_CONT_PRESSINGS(LOC_u8GetPort,LOC_u8GetPin){asm("NOP");};
 800202e:	e000      	b.n	8002032 <HAL_KeyPadGetPressedKey+0xaa>
 8002030:	bf00      	nop
 8002032:	7cba      	ldrb	r2, [r7, #18]
 8002034:	7d7b      	ldrb	r3, [r7, #21]
 8002036:	4611      	mov	r1, r2
 8002038:	4618      	mov	r0, r3
 800203a:	f001 fb69 	bl	8003710 <GPIO_u8GetPinValue>
 800203e:	4603      	mov	r3, r0
 8002040:	2b00      	cmp	r3, #0
 8002042:	d0f5      	beq.n	8002030 <HAL_KeyPadGetPressedKey+0xa8>
				/*	Get Right Index For 2D Array	*/
				LOC_u8IndexRow = (LOC_u8CounterRows-1)/2;
 8002044:	7dfb      	ldrb	r3, [r7, #23]
 8002046:	3b01      	subs	r3, #1
 8002048:	0fda      	lsrs	r2, r3, #31
 800204a:	4413      	add	r3, r2
 800204c:	105b      	asrs	r3, r3, #1
 800204e:	743b      	strb	r3, [r7, #16]
				LOC_u8IndexCol =(LOC_u8CounterCols-1)/2;
 8002050:	7dbb      	ldrb	r3, [r7, #22]
 8002052:	3b01      	subs	r3, #1
 8002054:	0fda      	lsrs	r2, r3, #31
 8002056:	4413      	add	r3, r2
 8002058:	105b      	asrs	r3, r3, #1
 800205a:	73fb      	strb	r3, [r7, #15]
				/*	Conv. 2D Index to 1D Index	*/
				LOC_u8Index = _2D_INDEX_TO_1D_INDEX(ACCESS_STRUCT(ptr_keyPadCfg,NumOfCols),LOC_u8IndexRow,LOC_u8IndexCol);
 800205c:	687b      	ldr	r3, [r7, #4]
 800205e:	785b      	ldrb	r3, [r3, #1]
 8002060:	7c3a      	ldrb	r2, [r7, #16]
 8002062:	fb02 f303 	mul.w	r3, r2, r3
 8002066:	b2da      	uxtb	r2, r3
 8002068:	7bfb      	ldrb	r3, [r7, #15]
 800206a:	4413      	add	r3, r2
 800206c:	747b      	strb	r3, [r7, #17]
                /*	Get Value	*/
				LOC_u8ReturnValue = ACCESS_STRUCT(ptr_keyPadCfg,KeysPattern)[LOC_u8Index] ;
 800206e:	687b      	ldr	r3, [r7, #4]
 8002070:	68da      	ldr	r2, [r3, #12]
 8002072:	7c7b      	ldrb	r3, [r7, #17]
 8002074:	4413      	add	r3, r2
 8002076:	781b      	ldrb	r3, [r3, #0]
 8002078:	74fb      	strb	r3, [r7, #19]
				/*  Break From Inner Loop   */
                break;
 800207a:	e006      	b.n	800208a <HAL_KeyPadGetPressedKey+0x102>
        for(LOC_u8CounterCols = 0 ; LOC_u8CounterCols < LOC_u8NumOfCols ; LOC_u8CounterCols++)
 800207c:	7dbb      	ldrb	r3, [r7, #22]
 800207e:	3301      	adds	r3, #1
 8002080:	75bb      	strb	r3, [r7, #22]
 8002082:	7dba      	ldrb	r2, [r7, #22]
 8002084:	7b7b      	ldrb	r3, [r7, #13]
 8002086:	429a      	cmp	r2, r3
 8002088:	d3b7      	bcc.n	8001ffa <HAL_KeyPadGetPressedKey+0x72>
            }
        }
		LOC_u8GetPin = ACCESS_STRUCT(ptr_keyPadCfg,Port_Pin_Rows)[LOC_u8CounterRows] ;
 800208a:	687b      	ldr	r3, [r7, #4]
 800208c:	685a      	ldr	r2, [r3, #4]
 800208e:	7dfb      	ldrb	r3, [r7, #23]
 8002090:	4413      	add	r3, r2
 8002092:	781b      	ldrb	r3, [r3, #0]
 8002094:	74bb      	strb	r3, [r7, #18]
			/*               Disable Row Number LOC_u8CounterRows */
			DISABLE_ROW(LOC_u8GetPort,LOC_u8GetPin);
 8002096:	7cb9      	ldrb	r1, [r7, #18]
 8002098:	7d7b      	ldrb	r3, [r7, #21]
 800209a:	2201      	movs	r2, #1
 800209c:	4618      	mov	r0, r3
 800209e:	f001 fae1 	bl	8003664 <GPIO_voidSetPinValue>
			/*              Chk Pressed Flag        */
			if(LOC_u8PressedFlag != 0)
 80020a2:	7d3b      	ldrb	r3, [r7, #20]
 80020a4:	2b00      	cmp	r3, #0
 80020a6:	d109      	bne.n	80020bc <HAL_KeyPadGetPressedKey+0x134>
				// Pressed so break from outer loop
				break;
			}
			else
			{
				LOC_u8ReturnValue = (u8)KEYPAD_NOT_PRESSED_RETURN ;
 80020a8:	230a      	movs	r3, #10
 80020aa:	74fb      	strb	r3, [r7, #19]
    for(LOC_u8CounterRows = 0 ; LOC_u8CounterRows < LOC_u8NumOfRow ;  LOC_u8CounterRows++)
 80020ac:	7dfb      	ldrb	r3, [r7, #23]
 80020ae:	3301      	adds	r3, #1
 80020b0:	75fb      	strb	r3, [r7, #23]
 80020b2:	7dfa      	ldrb	r2, [r7, #23]
 80020b4:	7bbb      	ldrb	r3, [r7, #14]
 80020b6:	429a      	cmp	r2, r3
 80020b8:	d387      	bcc.n	8001fca <HAL_KeyPadGetPressedKey+0x42>
 80020ba:	e000      	b.n	80020be <HAL_KeyPadGetPressedKey+0x136>
				break;
 80020bc:	bf00      	nop
			}


    }
    return LOC_u8ReturnValue ;
 80020be:	7cfb      	ldrb	r3, [r7, #19]
}
 80020c0:	4618      	mov	r0, r3
 80020c2:	3718      	adds	r7, #24
 80020c4:	46bd      	mov	sp, r7
 80020c6:	bd80      	pop	{r7, pc}

080020c8 <xDelay>:
#define WAIT_MS(x) xDelay(x)



static void xDelay(u32 time)
{
 80020c8:	b480      	push	{r7}
 80020ca:	b085      	sub	sp, #20
 80020cc:	af00      	add	r7, sp, #0
 80020ce:	6078      	str	r0, [r7, #4]
	u32 i;
	u32 j;
	for(i = time;i > 0;i--)
 80020d0:	687b      	ldr	r3, [r7, #4]
 80020d2:	60fb      	str	r3, [r7, #12]
 80020d4:	e00b      	b.n	80020ee <xDelay+0x26>
		for(j = 10;j > 0;j--);
 80020d6:	230a      	movs	r3, #10
 80020d8:	60bb      	str	r3, [r7, #8]
 80020da:	e002      	b.n	80020e2 <xDelay+0x1a>
 80020dc:	68bb      	ldr	r3, [r7, #8]
 80020de:	3b01      	subs	r3, #1
 80020e0:	60bb      	str	r3, [r7, #8]
 80020e2:	68bb      	ldr	r3, [r7, #8]
 80020e4:	2b00      	cmp	r3, #0
 80020e6:	d1f9      	bne.n	80020dc <xDelay+0x14>
	for(i = time;i > 0;i--)
 80020e8:	68fb      	ldr	r3, [r7, #12]
 80020ea:	3b01      	subs	r3, #1
 80020ec:	60fb      	str	r3, [r7, #12]
 80020ee:	68fb      	ldr	r3, [r7, #12]
 80020f0:	2b00      	cmp	r3, #0
 80020f2:	d1f0      	bne.n	80020d6 <xDelay+0xe>

}
 80020f4:	bf00      	nop
 80020f6:	3714      	adds	r7, #20
 80020f8:	46bd      	mov	sp, r7
 80020fa:	bc80      	pop	{r7}
 80020fc:	4770      	bx	lr

080020fe <LCD_voidInit>:
* Function Definitions
*******************************************************************************/


void LCD_voidInit(LCD_Config* ptr_cfg)
{
 80020fe:	b580      	push	{r7, lr}
 8002100:	b082      	sub	sp, #8
 8002102:	af00      	add	r7, sp, #0
 8002104:	6078      	str	r0, [r7, #4]
		LCD_voidWriteCmd(ptr_cfg , LCD_BEGIN_AT_FIRST_ROW) ;
		
        /********************************** END OF INITILIZATION *****************************************************/      
	#elif LCD_Mode == _4_WIRE_MODE
        // Init D3 --> D7 
        GPIO_voidSetPinDirection(_4_D4_PORT_PIN(ptr_cfg),GPIO_OUTPUT_2MHZ_PUSH_PULL);  //DB4
 8002106:	687b      	ldr	r3, [r7, #4]
 8002108:	685b      	ldr	r3, [r3, #4]
 800210a:	3304      	adds	r3, #4
 800210c:	7818      	ldrb	r0, [r3, #0]
 800210e:	687b      	ldr	r3, [r7, #4]
 8002110:	685b      	ldr	r3, [r3, #4]
 8002112:	3305      	adds	r3, #5
 8002114:	781b      	ldrb	r3, [r3, #0]
 8002116:	2202      	movs	r2, #2
 8002118:	4619      	mov	r1, r3
 800211a:	f001 f9dd 	bl	80034d8 <GPIO_voidSetPinDirection>
        GPIO_voidSetPinDirection(_4_D5_PORT_PIN(ptr_cfg),GPIO_OUTPUT_2MHZ_PUSH_PULL);  //DB5
 800211e:	687b      	ldr	r3, [r7, #4]
 8002120:	685b      	ldr	r3, [r3, #4]
 8002122:	3306      	adds	r3, #6
 8002124:	7818      	ldrb	r0, [r3, #0]
 8002126:	687b      	ldr	r3, [r7, #4]
 8002128:	685b      	ldr	r3, [r3, #4]
 800212a:	3307      	adds	r3, #7
 800212c:	781b      	ldrb	r3, [r3, #0]
 800212e:	2202      	movs	r2, #2
 8002130:	4619      	mov	r1, r3
 8002132:	f001 f9d1 	bl	80034d8 <GPIO_voidSetPinDirection>
        GPIO_voidSetPinDirection(_4_D6_PORT_PIN(ptr_cfg),GPIO_OUTPUT_2MHZ_PUSH_PULL);  //DB6
 8002136:	687b      	ldr	r3, [r7, #4]
 8002138:	685b      	ldr	r3, [r3, #4]
 800213a:	3308      	adds	r3, #8
 800213c:	7818      	ldrb	r0, [r3, #0]
 800213e:	687b      	ldr	r3, [r7, #4]
 8002140:	685b      	ldr	r3, [r3, #4]
 8002142:	3309      	adds	r3, #9
 8002144:	781b      	ldrb	r3, [r3, #0]
 8002146:	2202      	movs	r2, #2
 8002148:	4619      	mov	r1, r3
 800214a:	f001 f9c5 	bl	80034d8 <GPIO_voidSetPinDirection>
        GPIO_voidSetPinDirection(_4_D7_PORT_PIN(ptr_cfg),GPIO_OUTPUT_2MHZ_PUSH_PULL);  //DB7
 800214e:	687b      	ldr	r3, [r7, #4]
 8002150:	685b      	ldr	r3, [r3, #4]
 8002152:	330a      	adds	r3, #10
 8002154:	7818      	ldrb	r0, [r3, #0]
 8002156:	687b      	ldr	r3, [r7, #4]
 8002158:	685b      	ldr	r3, [r3, #4]
 800215a:	330b      	adds	r3, #11
 800215c:	781b      	ldrb	r3, [r3, #0]
 800215e:	2202      	movs	r2, #2
 8002160:	4619      	mov	r1, r3
 8002162:	f001 f9b9 	bl	80034d8 <GPIO_voidSetPinDirection>
		 
        GPIO_voidSetPinDirection(RS_PORT_PIN(ptr_cfg),GPIO_OUTPUT_2MHZ_PUSH_PULL);  //RS
 8002166:	687b      	ldr	r3, [r7, #4]
 8002168:	685b      	ldr	r3, [r3, #4]
 800216a:	3302      	adds	r3, #2
 800216c:	7818      	ldrb	r0, [r3, #0]
 800216e:	687b      	ldr	r3, [r7, #4]
 8002170:	685b      	ldr	r3, [r3, #4]
 8002172:	3303      	adds	r3, #3
 8002174:	781b      	ldrb	r3, [r3, #0]
 8002176:	2202      	movs	r2, #2
 8002178:	4619      	mov	r1, r3
 800217a:	f001 f9ad 	bl	80034d8 <GPIO_voidSetPinDirection>
        GPIO_voidSetPinDirection(EN_PORT_PIN(ptr_cfg),GPIO_OUTPUT_2MHZ_PUSH_PULL);  //EN
 800217e:	687b      	ldr	r3, [r7, #4]
 8002180:	685b      	ldr	r3, [r3, #4]
 8002182:	7818      	ldrb	r0, [r3, #0]
 8002184:	687b      	ldr	r3, [r7, #4]
 8002186:	685b      	ldr	r3, [r3, #4]
 8002188:	3301      	adds	r3, #1
 800218a:	781b      	ldrb	r3, [r3, #0]
 800218c:	2202      	movs	r2, #2
 800218e:	4619      	mov	r1, r3
 8002190:	f001 f9a2 	bl	80034d8 <GPIO_voidSetPinDirection>
		
		LCD_voidWriteCmd(ptr_cfg , LCD_RETURN_HOME) ;
 8002194:	2102      	movs	r1, #2
 8002196:	6878      	ldr	r0, [r7, #4]
 8002198:	f000 f9b7 	bl	800250a <LCD_voidWriteCmd>
		LCD_voidWriteCmd(ptr_cfg , LCD_FUNCTION_4BIT_2LINES) ;
 800219c:	2128      	movs	r1, #40	; 0x28
 800219e:	6878      	ldr	r0, [r7, #4]
 80021a0:	f000 f9b3 	bl	800250a <LCD_voidWriteCmd>
		LCD_voidWriteCmd(ptr_cfg , LCD_CLEAR_SCREEN) ;
 80021a4:	2101      	movs	r1, #1
 80021a6:	6878      	ldr	r0, [r7, #4]
 80021a8:	f000 f9af 	bl	800250a <LCD_voidWriteCmd>
		LCD_voidWriteCmd(ptr_cfg , LCD_DISP_ON_CURSOR_BLINK) ;
 80021ac:	210f      	movs	r1, #15
 80021ae:	6878      	ldr	r0, [r7, #4]
 80021b0:	f000 f9ab 	bl	800250a <LCD_voidWriteCmd>
		LCD_voidWriteCmd(ptr_cfg , LCD_BEGIN_AT_FIRST_ROW) ;
 80021b4:	2180      	movs	r1, #128	; 0x80
 80021b6:	6878      	ldr	r0, [r7, #4]
 80021b8:	f000 f9a7 	bl	800250a <LCD_voidWriteCmd>
		/********************************** END OF INITILIZATION *****************************************************/    
	#endif
	WAIT_MS(2);
 80021bc:	2002      	movs	r0, #2
 80021be:	f7ff ff83 	bl	80020c8 <xDelay>
}
 80021c2:	bf00      	nop
 80021c4:	3708      	adds	r7, #8
 80021c6:	46bd      	mov	sp, r7
 80021c8:	bd80      	pop	{r7, pc}

080021ca <LCD_voidSendChar>:
void LCD_voidSendChar(LCD_Config* ptrCnfg , u8 copy_u8data)
{
 80021ca:	b580      	push	{r7, lr}
 80021cc:	b082      	sub	sp, #8
 80021ce:	af00      	add	r7, sp, #0
 80021d0:	6078      	str	r0, [r7, #4]
 80021d2:	460b      	mov	r3, r1
 80021d4:	70fb      	strb	r3, [r7, #3]
        GPIO_voidSetPinValue(_8_D7_PORT_PIN(ptrCnfg),GET_BIT(copy_u8data,7));  //DB7 
		GPIO_voidSetPinValue(RS_PORT_PIN(ptrCnfg) , HIGH) ;
		WRITE_DATA_TO_LCD(ptrCnfg);
#elif LCD_Mode == _4_WIRE_MODE
		// Add data in Data Line
        GPIO_voidSetPinValue(_4_D4_PORT_PIN(ptrCnfg),GET_BIT(copy_u8data,4));  //DB4
 80021d6:	687b      	ldr	r3, [r7, #4]
 80021d8:	685b      	ldr	r3, [r3, #4]
 80021da:	3304      	adds	r3, #4
 80021dc:	7818      	ldrb	r0, [r3, #0]
 80021de:	687b      	ldr	r3, [r7, #4]
 80021e0:	685b      	ldr	r3, [r3, #4]
 80021e2:	3305      	adds	r3, #5
 80021e4:	7819      	ldrb	r1, [r3, #0]
 80021e6:	78fb      	ldrb	r3, [r7, #3]
 80021e8:	091b      	lsrs	r3, r3, #4
 80021ea:	b2db      	uxtb	r3, r3
 80021ec:	f003 0301 	and.w	r3, r3, #1
 80021f0:	b2db      	uxtb	r3, r3
 80021f2:	461a      	mov	r2, r3
 80021f4:	f001 fa36 	bl	8003664 <GPIO_voidSetPinValue>
        GPIO_voidSetPinValue(_4_D5_PORT_PIN(ptrCnfg),GET_BIT(copy_u8data,5));  //DB5
 80021f8:	687b      	ldr	r3, [r7, #4]
 80021fa:	685b      	ldr	r3, [r3, #4]
 80021fc:	3306      	adds	r3, #6
 80021fe:	7818      	ldrb	r0, [r3, #0]
 8002200:	687b      	ldr	r3, [r7, #4]
 8002202:	685b      	ldr	r3, [r3, #4]
 8002204:	3307      	adds	r3, #7
 8002206:	7819      	ldrb	r1, [r3, #0]
 8002208:	78fb      	ldrb	r3, [r7, #3]
 800220a:	095b      	lsrs	r3, r3, #5
 800220c:	b2db      	uxtb	r3, r3
 800220e:	f003 0301 	and.w	r3, r3, #1
 8002212:	b2db      	uxtb	r3, r3
 8002214:	461a      	mov	r2, r3
 8002216:	f001 fa25 	bl	8003664 <GPIO_voidSetPinValue>
        GPIO_voidSetPinValue(_4_D6_PORT_PIN(ptrCnfg),GET_BIT(copy_u8data,6));  //DB6
 800221a:	687b      	ldr	r3, [r7, #4]
 800221c:	685b      	ldr	r3, [r3, #4]
 800221e:	3308      	adds	r3, #8
 8002220:	7818      	ldrb	r0, [r3, #0]
 8002222:	687b      	ldr	r3, [r7, #4]
 8002224:	685b      	ldr	r3, [r3, #4]
 8002226:	3309      	adds	r3, #9
 8002228:	7819      	ldrb	r1, [r3, #0]
 800222a:	78fb      	ldrb	r3, [r7, #3]
 800222c:	099b      	lsrs	r3, r3, #6
 800222e:	b2db      	uxtb	r3, r3
 8002230:	f003 0301 	and.w	r3, r3, #1
 8002234:	b2db      	uxtb	r3, r3
 8002236:	461a      	mov	r2, r3
 8002238:	f001 fa14 	bl	8003664 <GPIO_voidSetPinValue>
        GPIO_voidSetPinValue(_4_D7_PORT_PIN(ptrCnfg),GET_BIT(copy_u8data,7));  //DB7 
 800223c:	687b      	ldr	r3, [r7, #4]
 800223e:	685b      	ldr	r3, [r3, #4]
 8002240:	330a      	adds	r3, #10
 8002242:	7818      	ldrb	r0, [r3, #0]
 8002244:	687b      	ldr	r3, [r7, #4]
 8002246:	685b      	ldr	r3, [r3, #4]
 8002248:	330b      	adds	r3, #11
 800224a:	7819      	ldrb	r1, [r3, #0]
 800224c:	78fb      	ldrb	r3, [r7, #3]
 800224e:	09db      	lsrs	r3, r3, #7
 8002250:	b2db      	uxtb	r3, r3
 8002252:	461a      	mov	r2, r3
 8002254:	f001 fa06 	bl	8003664 <GPIO_voidSetPinValue>
		GPIO_voidSetPinValue(RS_PORT_PIN(ptrCnfg) , HIGH) ;
 8002258:	687b      	ldr	r3, [r7, #4]
 800225a:	685b      	ldr	r3, [r3, #4]
 800225c:	3302      	adds	r3, #2
 800225e:	7818      	ldrb	r0, [r3, #0]
 8002260:	687b      	ldr	r3, [r7, #4]
 8002262:	685b      	ldr	r3, [r3, #4]
 8002264:	3303      	adds	r3, #3
 8002266:	781b      	ldrb	r3, [r3, #0]
 8002268:	2201      	movs	r2, #1
 800226a:	4619      	mov	r1, r3
 800226c:	f001 f9fa 	bl	8003664 <GPIO_voidSetPinValue>
		WRITE_DATA_TO_LCD(ptrCnfg);
 8002270:	687b      	ldr	r3, [r7, #4]
 8002272:	685b      	ldr	r3, [r3, #4]
 8002274:	7818      	ldrb	r0, [r3, #0]
 8002276:	687b      	ldr	r3, [r7, #4]
 8002278:	685b      	ldr	r3, [r3, #4]
 800227a:	3301      	adds	r3, #1
 800227c:	781b      	ldrb	r3, [r3, #0]
 800227e:	2201      	movs	r2, #1
 8002280:	4619      	mov	r1, r3
 8002282:	f001 f9ef 	bl	8003664 <GPIO_voidSetPinValue>
 8002286:	2001      	movs	r0, #1
 8002288:	f7ff ff1e 	bl	80020c8 <xDelay>
 800228c:	687b      	ldr	r3, [r7, #4]
 800228e:	685b      	ldr	r3, [r3, #4]
 8002290:	7818      	ldrb	r0, [r3, #0]
 8002292:	687b      	ldr	r3, [r7, #4]
 8002294:	685b      	ldr	r3, [r3, #4]
 8002296:	3301      	adds	r3, #1
 8002298:	781b      	ldrb	r3, [r3, #0]
 800229a:	2200      	movs	r2, #0
 800229c:	4619      	mov	r1, r3
 800229e:	f001 f9e1 	bl	8003664 <GPIO_voidSetPinValue>
 80022a2:	2014      	movs	r0, #20
 80022a4:	f7ff ff10 	bl	80020c8 <xDelay>
        GPIO_voidSetPinValue(_4_D4_PORT_PIN(ptrCnfg),GET_BIT(copy_u8data,0));  //DB4
 80022a8:	687b      	ldr	r3, [r7, #4]
 80022aa:	685b      	ldr	r3, [r3, #4]
 80022ac:	3304      	adds	r3, #4
 80022ae:	7818      	ldrb	r0, [r3, #0]
 80022b0:	687b      	ldr	r3, [r7, #4]
 80022b2:	685b      	ldr	r3, [r3, #4]
 80022b4:	3305      	adds	r3, #5
 80022b6:	7819      	ldrb	r1, [r3, #0]
 80022b8:	78fb      	ldrb	r3, [r7, #3]
 80022ba:	f003 0301 	and.w	r3, r3, #1
 80022be:	b2db      	uxtb	r3, r3
 80022c0:	461a      	mov	r2, r3
 80022c2:	f001 f9cf 	bl	8003664 <GPIO_voidSetPinValue>
        GPIO_voidSetPinValue(_4_D5_PORT_PIN(ptrCnfg),GET_BIT(copy_u8data,1));  //DB5
 80022c6:	687b      	ldr	r3, [r7, #4]
 80022c8:	685b      	ldr	r3, [r3, #4]
 80022ca:	3306      	adds	r3, #6
 80022cc:	7818      	ldrb	r0, [r3, #0]
 80022ce:	687b      	ldr	r3, [r7, #4]
 80022d0:	685b      	ldr	r3, [r3, #4]
 80022d2:	3307      	adds	r3, #7
 80022d4:	7819      	ldrb	r1, [r3, #0]
 80022d6:	78fb      	ldrb	r3, [r7, #3]
 80022d8:	085b      	lsrs	r3, r3, #1
 80022da:	b2db      	uxtb	r3, r3
 80022dc:	f003 0301 	and.w	r3, r3, #1
 80022e0:	b2db      	uxtb	r3, r3
 80022e2:	461a      	mov	r2, r3
 80022e4:	f001 f9be 	bl	8003664 <GPIO_voidSetPinValue>
        GPIO_voidSetPinValue(_4_D6_PORT_PIN(ptrCnfg),GET_BIT(copy_u8data,2));  //DB6
 80022e8:	687b      	ldr	r3, [r7, #4]
 80022ea:	685b      	ldr	r3, [r3, #4]
 80022ec:	3308      	adds	r3, #8
 80022ee:	7818      	ldrb	r0, [r3, #0]
 80022f0:	687b      	ldr	r3, [r7, #4]
 80022f2:	685b      	ldr	r3, [r3, #4]
 80022f4:	3309      	adds	r3, #9
 80022f6:	7819      	ldrb	r1, [r3, #0]
 80022f8:	78fb      	ldrb	r3, [r7, #3]
 80022fa:	089b      	lsrs	r3, r3, #2
 80022fc:	b2db      	uxtb	r3, r3
 80022fe:	f003 0301 	and.w	r3, r3, #1
 8002302:	b2db      	uxtb	r3, r3
 8002304:	461a      	mov	r2, r3
 8002306:	f001 f9ad 	bl	8003664 <GPIO_voidSetPinValue>
        GPIO_voidSetPinValue(_4_D7_PORT_PIN(ptrCnfg),GET_BIT(copy_u8data,3));  //DB7 
 800230a:	687b      	ldr	r3, [r7, #4]
 800230c:	685b      	ldr	r3, [r3, #4]
 800230e:	330a      	adds	r3, #10
 8002310:	7818      	ldrb	r0, [r3, #0]
 8002312:	687b      	ldr	r3, [r7, #4]
 8002314:	685b      	ldr	r3, [r3, #4]
 8002316:	330b      	adds	r3, #11
 8002318:	7819      	ldrb	r1, [r3, #0]
 800231a:	78fb      	ldrb	r3, [r7, #3]
 800231c:	08db      	lsrs	r3, r3, #3
 800231e:	b2db      	uxtb	r3, r3
 8002320:	f003 0301 	and.w	r3, r3, #1
 8002324:	b2db      	uxtb	r3, r3
 8002326:	461a      	mov	r2, r3
 8002328:	f001 f99c 	bl	8003664 <GPIO_voidSetPinValue>
		GPIO_voidSetPinValue(RS_PORT_PIN(ptrCnfg) , HIGH) ;
 800232c:	687b      	ldr	r3, [r7, #4]
 800232e:	685b      	ldr	r3, [r3, #4]
 8002330:	3302      	adds	r3, #2
 8002332:	7818      	ldrb	r0, [r3, #0]
 8002334:	687b      	ldr	r3, [r7, #4]
 8002336:	685b      	ldr	r3, [r3, #4]
 8002338:	3303      	adds	r3, #3
 800233a:	781b      	ldrb	r3, [r3, #0]
 800233c:	2201      	movs	r2, #1
 800233e:	4619      	mov	r1, r3
 8002340:	f001 f990 	bl	8003664 <GPIO_voidSetPinValue>
		WRITE_DATA_TO_LCD(ptrCnfg);
 8002344:	687b      	ldr	r3, [r7, #4]
 8002346:	685b      	ldr	r3, [r3, #4]
 8002348:	7818      	ldrb	r0, [r3, #0]
 800234a:	687b      	ldr	r3, [r7, #4]
 800234c:	685b      	ldr	r3, [r3, #4]
 800234e:	3301      	adds	r3, #1
 8002350:	781b      	ldrb	r3, [r3, #0]
 8002352:	2201      	movs	r2, #1
 8002354:	4619      	mov	r1, r3
 8002356:	f001 f985 	bl	8003664 <GPIO_voidSetPinValue>
 800235a:	2001      	movs	r0, #1
 800235c:	f7ff feb4 	bl	80020c8 <xDelay>
 8002360:	687b      	ldr	r3, [r7, #4]
 8002362:	685b      	ldr	r3, [r3, #4]
 8002364:	7818      	ldrb	r0, [r3, #0]
 8002366:	687b      	ldr	r3, [r7, #4]
 8002368:	685b      	ldr	r3, [r3, #4]
 800236a:	3301      	adds	r3, #1
 800236c:	781b      	ldrb	r3, [r3, #0]
 800236e:	2200      	movs	r2, #0
 8002370:	4619      	mov	r1, r3
 8002372:	f001 f977 	bl	8003664 <GPIO_voidSetPinValue>
 8002376:	2014      	movs	r0, #20
 8002378:	f7ff fea6 	bl	80020c8 <xDelay>
#endif
}
 800237c:	bf00      	nop
 800237e:	3708      	adds	r7, #8
 8002380:	46bd      	mov	sp, r7
 8002382:	bd80      	pop	{r7, pc}

08002384 <LCD_voidSendString>:

void LCD_voidSendString(LCD_Config* ptrCnfg , u8* ptr_u8data)
{
 8002384:	b580      	push	{r7, lr}
 8002386:	b084      	sub	sp, #16
 8002388:	af00      	add	r7, sp, #0
 800238a:	6078      	str	r0, [r7, #4]
 800238c:	6039      	str	r1, [r7, #0]
	u8 index =0 ; 
 800238e:	2300      	movs	r3, #0
 8002390:	73fb      	strb	r3, [r7, #15]
	while(ptr_u8data[index] != '\0')
 8002392:	e00a      	b.n	80023aa <LCD_voidSendString+0x26>
	{
		LCD_voidSendChar(ptrCnfg,ptr_u8data[index]);
 8002394:	7bfb      	ldrb	r3, [r7, #15]
 8002396:	683a      	ldr	r2, [r7, #0]
 8002398:	4413      	add	r3, r2
 800239a:	781b      	ldrb	r3, [r3, #0]
 800239c:	4619      	mov	r1, r3
 800239e:	6878      	ldr	r0, [r7, #4]
 80023a0:	f7ff ff13 	bl	80021ca <LCD_voidSendChar>
		index++;
 80023a4:	7bfb      	ldrb	r3, [r7, #15]
 80023a6:	3301      	adds	r3, #1
 80023a8:	73fb      	strb	r3, [r7, #15]
	while(ptr_u8data[index] != '\0')
 80023aa:	7bfb      	ldrb	r3, [r7, #15]
 80023ac:	683a      	ldr	r2, [r7, #0]
 80023ae:	4413      	add	r3, r2
 80023b0:	781b      	ldrb	r3, [r3, #0]
 80023b2:	2b00      	cmp	r3, #0
 80023b4:	d1ee      	bne.n	8002394 <LCD_voidSendString+0x10>
	}
}
 80023b6:	bf00      	nop
 80023b8:	3710      	adds	r7, #16
 80023ba:	46bd      	mov	sp, r7
 80023bc:	bd80      	pop	{r7, pc}

080023be <LCD_voidSetCursorType>:
{
	
		
}
void LCD_voidSetCursorType(LCD_Config*  ptrLCD ,cursorType copy_cursorType)
{
 80023be:	b580      	push	{r7, lr}
 80023c0:	b082      	sub	sp, #8
 80023c2:	af00      	add	r7, sp, #0
 80023c4:	6078      	str	r0, [r7, #4]
 80023c6:	460b      	mov	r3, r1
 80023c8:	70fb      	strb	r3, [r7, #3]
	LCD_voidWriteCmd(ptrLCD, copy_cursorType) ;
 80023ca:	78fb      	ldrb	r3, [r7, #3]
 80023cc:	4619      	mov	r1, r3
 80023ce:	6878      	ldr	r0, [r7, #4]
 80023d0:	f000 f89b 	bl	800250a <LCD_voidWriteCmd>
}
 80023d4:	bf00      	nop
 80023d6:	3708      	adds	r7, #8
 80023d8:	46bd      	mov	sp, r7
 80023da:	bd80      	pop	{r7, pc}

080023dc <LCD_voidGotoXY>:
	}
			
		
}
void LCD_voidGotoXY(LCD_Config* ptrCnfg , u8 x , u8 y)
{
 80023dc:	b580      	push	{r7, lr}
 80023de:	b084      	sub	sp, #16
 80023e0:	af00      	add	r7, sp, #0
 80023e2:	6078      	str	r0, [r7, #4]
 80023e4:	460b      	mov	r3, r1
 80023e6:	70fb      	strb	r3, [r7, #3]
 80023e8:	4613      	mov	r3, r2
 80023ea:	70bb      	strb	r3, [r7, #2]
	 | DDRAM     | 0x40
	 |           |			for Row 1 and in between 0x40 -> 0x4f select Col
	 |           |	
	 |           | 0x4f	
	*/
	u8 address = 0 ; 
 80023ec:	2300      	movs	r3, #0
 80023ee:	73fb      	strb	r3, [r7, #15]
	if( y < ACCESS_STRUCT(ptrCnfg,LCD_SIZE_Rows) && x < ACCESS_STRUCT(ptrCnfg,LCD_SIZE_Cols) )
 80023f0:	687b      	ldr	r3, [r7, #4]
 80023f2:	781b      	ldrb	r3, [r3, #0]
 80023f4:	78ba      	ldrb	r2, [r7, #2]
 80023f6:	429a      	cmp	r2, r3
 80023f8:	d221      	bcs.n	800243e <LCD_voidGotoXY+0x62>
 80023fa:	687b      	ldr	r3, [r7, #4]
 80023fc:	785b      	ldrb	r3, [r3, #1]
 80023fe:	78fa      	ldrb	r2, [r7, #3]
 8002400:	429a      	cmp	r2, r3
 8002402:	d21c      	bcs.n	800243e <LCD_voidGotoXY+0x62>
		 *	RS 0
		 *  RW 0 --> 0 by default
		 *  D7 1
		 * ADD
		 */	
		if(y  < 2 )
 8002404:	78bb      	ldrb	r3, [r7, #2]
 8002406:	2b01      	cmp	r3, #1
 8002408:	d806      	bhi.n	8002418 <LCD_voidGotoXY+0x3c>
		{
			 address = y * 0x40 + x;		/*	If 0 --> Row 1 , If 0x40 Row 2	*/
 800240a:	78bb      	ldrb	r3, [r7, #2]
 800240c:	019b      	lsls	r3, r3, #6
 800240e:	b2da      	uxtb	r2, r3
 8002410:	78fb      	ldrb	r3, [r7, #3]
 8002412:	4413      	add	r3, r2
 8002414:	73fb      	strb	r3, [r7, #15]
 8002416:	e009      	b.n	800242c <LCD_voidGotoXY+0x50>
		}
		else
		{
			address = (y-2) * 0x40 + 0x10  + x;
 8002418:	78bb      	ldrb	r3, [r7, #2]
 800241a:	3302      	adds	r3, #2
 800241c:	b2db      	uxtb	r3, r3
 800241e:	019b      	lsls	r3, r3, #6
 8002420:	b2da      	uxtb	r2, r3
 8002422:	78fb      	ldrb	r3, [r7, #3]
 8002424:	4413      	add	r3, r2
 8002426:	b2db      	uxtb	r3, r3
 8002428:	3310      	adds	r3, #16
 800242a:	73fb      	strb	r3, [r7, #15]

		}
		address |= (1 << 7) ;
 800242c:	7bfb      	ldrb	r3, [r7, #15]
 800242e:	f063 037f 	orn	r3, r3, #127	; 0x7f
 8002432:	73fb      	strb	r3, [r7, #15]


		LCD_voidWriteCmd(ptrCnfg , address);
 8002434:	7bfb      	ldrb	r3, [r7, #15]
 8002436:	4619      	mov	r1, r3
 8002438:	6878      	ldr	r0, [r7, #4]
 800243a:	f000 f866 	bl	800250a <LCD_voidWriteCmd>

		
	}

}
 800243e:	bf00      	nop
 8002440:	3710      	adds	r7, #16
 8002442:	46bd      	mov	sp, r7
 8002444:	bd80      	pop	{r7, pc}

08002446 <LCD_voidClear>:
void LCD_voidClear(LCD_Config* x)
{
 8002446:	b580      	push	{r7, lr}
 8002448:	b082      	sub	sp, #8
 800244a:	af00      	add	r7, sp, #0
 800244c:	6078      	str	r0, [r7, #4]
	LCD_voidWriteCmd(x,LCD_CLEAR_SCREEN);	
 800244e:	2101      	movs	r1, #1
 8002450:	6878      	ldr	r0, [r7, #4]
 8002452:	f000 f85a 	bl	800250a <LCD_voidWriteCmd>
	WAIT_MS(1);		
 8002456:	2001      	movs	r0, #1
 8002458:	f7ff fe36 	bl	80020c8 <xDelay>
	LCD_voidWriteCmd(x , LCD_BEGIN_AT_FIRST_ROW) ;
 800245c:	2180      	movs	r1, #128	; 0x80
 800245e:	6878      	ldr	r0, [r7, #4]
 8002460:	f000 f853 	bl	800250a <LCD_voidWriteCmd>
}
 8002464:	bf00      	nop
 8002466:	3708      	adds	r7, #8
 8002468:	46bd      	mov	sp, r7
 800246a:	bd80      	pop	{r7, pc}

0800246c <LCD_voidStoreCustomChar>:
void LCD_voidStoreCustomChar(LCD_Config*  ptrLCD ,u8* ptrToArray, u8 copy_u8CharIndex)
{
 800246c:	b580      	push	{r7, lr}
 800246e:	b086      	sub	sp, #24
 8002470:	af00      	add	r7, sp, #0
 8002472:	60f8      	str	r0, [r7, #12]
 8002474:	60b9      	str	r1, [r7, #8]
 8002476:	4613      	mov	r3, r2
 8002478:	71fb      	strb	r3, [r7, #7]
	u8 address = 0 ,index ; 
 800247a:	2300      	movs	r3, #0
 800247c:	75bb      	strb	r3, [r7, #22]
	/*		Have 8 Places Only for Custom Char Can Store in CGRAM	*/
	if(copy_u8CharIndex < 8 )
 800247e:	79fb      	ldrb	r3, [r7, #7]
 8002480:	2b07      	cmp	r3, #7
 8002482:	d820      	bhi.n	80024c6 <LCD_voidStoreCustomChar+0x5a>
	{
		address = copy_u8CharIndex * 0x08 ;
 8002484:	79fb      	ldrb	r3, [r7, #7]
 8002486:	00db      	lsls	r3, r3, #3
 8002488:	75bb      	strb	r3, [r7, #22]
		*		RW = 0 
		*		D7 = 0 
		*		D6 = 1
		*		D0:D6 Address
		*/
		address |= (1<<6) ; 
 800248a:	7dbb      	ldrb	r3, [r7, #22]
 800248c:	f043 0340 	orr.w	r3, r3, #64	; 0x40
 8002490:	75bb      	strb	r3, [r7, #22]
		LCD_voidWriteCmd(ptrLCD,address);
 8002492:	7dbb      	ldrb	r3, [r7, #22]
 8002494:	4619      	mov	r1, r3
 8002496:	68f8      	ldr	r0, [r7, #12]
 8002498:	f000 f837 	bl	800250a <LCD_voidWriteCmd>
		for(index = 0 ; index < 8 ; index++)
 800249c:	2300      	movs	r3, #0
 800249e:	75fb      	strb	r3, [r7, #23]
 80024a0:	e00a      	b.n	80024b8 <LCD_voidStoreCustomChar+0x4c>
		{
			LCD_voidSendChar(ptrLCD,ptrToArray[index]);
 80024a2:	7dfb      	ldrb	r3, [r7, #23]
 80024a4:	68ba      	ldr	r2, [r7, #8]
 80024a6:	4413      	add	r3, r2
 80024a8:	781b      	ldrb	r3, [r3, #0]
 80024aa:	4619      	mov	r1, r3
 80024ac:	68f8      	ldr	r0, [r7, #12]
 80024ae:	f7ff fe8c 	bl	80021ca <LCD_voidSendChar>
		for(index = 0 ; index < 8 ; index++)
 80024b2:	7dfb      	ldrb	r3, [r7, #23]
 80024b4:	3301      	adds	r3, #1
 80024b6:	75fb      	strb	r3, [r7, #23]
 80024b8:	7dfb      	ldrb	r3, [r7, #23]
 80024ba:	2b07      	cmp	r3, #7
 80024bc:	d9f1      	bls.n	80024a2 <LCD_voidStoreCustomChar+0x36>
		}
		// Restore point to DDRAM OPTIONAL by default display from DDRAM
		LCD_voidWriteCmd(ptrLCD,LCD_RETURN_HOME);
 80024be:	2102      	movs	r1, #2
 80024c0:	68f8      	ldr	r0, [r7, #12]
 80024c2:	f000 f822 	bl	800250a <LCD_voidWriteCmd>
		
	}
	
}
 80024c6:	bf00      	nop
 80024c8:	3718      	adds	r7, #24
 80024ca:	46bd      	mov	sp, r7
 80024cc:	bd80      	pop	{r7, pc}

080024ce <LCD_voidSendNumber>:

void LCD_voidSendNumber(LCD_Config*  ptrLCD , u32 copy_u32Number)
{
 80024ce:	b580      	push	{r7, lr}
 80024d0:	b088      	sub	sp, #32
 80024d2:	af00      	add	r7, sp, #0
 80024d4:	6078      	str	r0, [r7, #4]
 80024d6:	6039      	str	r1, [r7, #0]
	u8 Buffer[17] = {0} ;
 80024d8:	f107 030c 	add.w	r3, r7, #12
 80024dc:	2200      	movs	r2, #0
 80024de:	601a      	str	r2, [r3, #0]
 80024e0:	605a      	str	r2, [r3, #4]
 80024e2:	609a      	str	r2, [r3, #8]
 80024e4:	60da      	str	r2, [r3, #12]
 80024e6:	741a      	strb	r2, [r3, #16]
	itoa(copy_u32Number,Buffer,10) ;
 80024e8:	f107 030c 	add.w	r3, r7, #12
 80024ec:	220a      	movs	r2, #10
 80024ee:	4619      	mov	r1, r3
 80024f0:	6838      	ldr	r0, [r7, #0]
 80024f2:	f002 f86b 	bl	80045cc <itoa>
	LCD_voidSendString(ptrLCD , Buffer);
 80024f6:	f107 030c 	add.w	r3, r7, #12
 80024fa:	4619      	mov	r1, r3
 80024fc:	6878      	ldr	r0, [r7, #4]
 80024fe:	f7ff ff41 	bl	8002384 <LCD_voidSendString>

}
 8002502:	bf00      	nop
 8002504:	3720      	adds	r7, #32
 8002506:	46bd      	mov	sp, r7
 8002508:	bd80      	pop	{r7, pc}

0800250a <LCD_voidWriteCmd>:



/************************************ Static FCNs**********************************/
void LCD_voidWriteCmd(LCD_Config* x , u8 copy_u8Cmd)
{
 800250a:	b580      	push	{r7, lr}
 800250c:	b082      	sub	sp, #8
 800250e:	af00      	add	r7, sp, #0
 8002510:	6078      	str	r0, [r7, #4]
 8002512:	460b      	mov	r3, r1
 8002514:	70fb      	strb	r3, [r7, #3]
		 

#elif LCD_Mode == _4_WIRE_MODE
		// Add CMD in Data Line

        GPIO_voidSetPinValue(_4_D4_PORT_PIN(x),GET_BIT(copy_u8Cmd,4));  //DB4
 8002516:	687b      	ldr	r3, [r7, #4]
 8002518:	685b      	ldr	r3, [r3, #4]
 800251a:	3304      	adds	r3, #4
 800251c:	7818      	ldrb	r0, [r3, #0]
 800251e:	687b      	ldr	r3, [r7, #4]
 8002520:	685b      	ldr	r3, [r3, #4]
 8002522:	3305      	adds	r3, #5
 8002524:	7819      	ldrb	r1, [r3, #0]
 8002526:	78fb      	ldrb	r3, [r7, #3]
 8002528:	091b      	lsrs	r3, r3, #4
 800252a:	b2db      	uxtb	r3, r3
 800252c:	f003 0301 	and.w	r3, r3, #1
 8002530:	b2db      	uxtb	r3, r3
 8002532:	461a      	mov	r2, r3
 8002534:	f001 f896 	bl	8003664 <GPIO_voidSetPinValue>
        GPIO_voidSetPinValue(_4_D5_PORT_PIN(x),GET_BIT(copy_u8Cmd,5));  //DB5
 8002538:	687b      	ldr	r3, [r7, #4]
 800253a:	685b      	ldr	r3, [r3, #4]
 800253c:	3306      	adds	r3, #6
 800253e:	7818      	ldrb	r0, [r3, #0]
 8002540:	687b      	ldr	r3, [r7, #4]
 8002542:	685b      	ldr	r3, [r3, #4]
 8002544:	3307      	adds	r3, #7
 8002546:	7819      	ldrb	r1, [r3, #0]
 8002548:	78fb      	ldrb	r3, [r7, #3]
 800254a:	095b      	lsrs	r3, r3, #5
 800254c:	b2db      	uxtb	r3, r3
 800254e:	f003 0301 	and.w	r3, r3, #1
 8002552:	b2db      	uxtb	r3, r3
 8002554:	461a      	mov	r2, r3
 8002556:	f001 f885 	bl	8003664 <GPIO_voidSetPinValue>
        GPIO_voidSetPinValue(_4_D6_PORT_PIN(x),GET_BIT(copy_u8Cmd,6));  //DB6
 800255a:	687b      	ldr	r3, [r7, #4]
 800255c:	685b      	ldr	r3, [r3, #4]
 800255e:	3308      	adds	r3, #8
 8002560:	7818      	ldrb	r0, [r3, #0]
 8002562:	687b      	ldr	r3, [r7, #4]
 8002564:	685b      	ldr	r3, [r3, #4]
 8002566:	3309      	adds	r3, #9
 8002568:	7819      	ldrb	r1, [r3, #0]
 800256a:	78fb      	ldrb	r3, [r7, #3]
 800256c:	099b      	lsrs	r3, r3, #6
 800256e:	b2db      	uxtb	r3, r3
 8002570:	f003 0301 	and.w	r3, r3, #1
 8002574:	b2db      	uxtb	r3, r3
 8002576:	461a      	mov	r2, r3
 8002578:	f001 f874 	bl	8003664 <GPIO_voidSetPinValue>
        GPIO_voidSetPinValue(_4_D7_PORT_PIN(x),GET_BIT(copy_u8Cmd,7));  //DB7 
 800257c:	687b      	ldr	r3, [r7, #4]
 800257e:	685b      	ldr	r3, [r3, #4]
 8002580:	330a      	adds	r3, #10
 8002582:	7818      	ldrb	r0, [r3, #0]
 8002584:	687b      	ldr	r3, [r7, #4]
 8002586:	685b      	ldr	r3, [r3, #4]
 8002588:	330b      	adds	r3, #11
 800258a:	7819      	ldrb	r1, [r3, #0]
 800258c:	78fb      	ldrb	r3, [r7, #3]
 800258e:	09db      	lsrs	r3, r3, #7
 8002590:	b2db      	uxtb	r3, r3
 8002592:	461a      	mov	r2, r3
 8002594:	f001 f866 	bl	8003664 <GPIO_voidSetPinValue>
		GPIO_voidSetPinValue(RS_PORT_PIN(x) , LOW) ;
 8002598:	687b      	ldr	r3, [r7, #4]
 800259a:	685b      	ldr	r3, [r3, #4]
 800259c:	3302      	adds	r3, #2
 800259e:	7818      	ldrb	r0, [r3, #0]
 80025a0:	687b      	ldr	r3, [r7, #4]
 80025a2:	685b      	ldr	r3, [r3, #4]
 80025a4:	3303      	adds	r3, #3
 80025a6:	781b      	ldrb	r3, [r3, #0]
 80025a8:	2200      	movs	r2, #0
 80025aa:	4619      	mov	r1, r3
 80025ac:	f001 f85a 	bl	8003664 <GPIO_voidSetPinValue>
		WRITE_DATA_TO_LCD(x);		
 80025b0:	687b      	ldr	r3, [r7, #4]
 80025b2:	685b      	ldr	r3, [r3, #4]
 80025b4:	7818      	ldrb	r0, [r3, #0]
 80025b6:	687b      	ldr	r3, [r7, #4]
 80025b8:	685b      	ldr	r3, [r3, #4]
 80025ba:	3301      	adds	r3, #1
 80025bc:	781b      	ldrb	r3, [r3, #0]
 80025be:	2201      	movs	r2, #1
 80025c0:	4619      	mov	r1, r3
 80025c2:	f001 f84f 	bl	8003664 <GPIO_voidSetPinValue>
 80025c6:	2001      	movs	r0, #1
 80025c8:	f7ff fd7e 	bl	80020c8 <xDelay>
 80025cc:	687b      	ldr	r3, [r7, #4]
 80025ce:	685b      	ldr	r3, [r3, #4]
 80025d0:	7818      	ldrb	r0, [r3, #0]
 80025d2:	687b      	ldr	r3, [r7, #4]
 80025d4:	685b      	ldr	r3, [r3, #4]
 80025d6:	3301      	adds	r3, #1
 80025d8:	781b      	ldrb	r3, [r3, #0]
 80025da:	2200      	movs	r2, #0
 80025dc:	4619      	mov	r1, r3
 80025de:	f001 f841 	bl	8003664 <GPIO_voidSetPinValue>
 80025e2:	2014      	movs	r0, #20
 80025e4:	f7ff fd70 	bl	80020c8 <xDelay>
        GPIO_voidSetPinValue(_4_D4_PORT_PIN(x),GET_BIT(copy_u8Cmd,0));  //DB4
 80025e8:	687b      	ldr	r3, [r7, #4]
 80025ea:	685b      	ldr	r3, [r3, #4]
 80025ec:	3304      	adds	r3, #4
 80025ee:	7818      	ldrb	r0, [r3, #0]
 80025f0:	687b      	ldr	r3, [r7, #4]
 80025f2:	685b      	ldr	r3, [r3, #4]
 80025f4:	3305      	adds	r3, #5
 80025f6:	7819      	ldrb	r1, [r3, #0]
 80025f8:	78fb      	ldrb	r3, [r7, #3]
 80025fa:	f003 0301 	and.w	r3, r3, #1
 80025fe:	b2db      	uxtb	r3, r3
 8002600:	461a      	mov	r2, r3
 8002602:	f001 f82f 	bl	8003664 <GPIO_voidSetPinValue>
        GPIO_voidSetPinValue(_4_D5_PORT_PIN(x),GET_BIT(copy_u8Cmd,1));  //DB5
 8002606:	687b      	ldr	r3, [r7, #4]
 8002608:	685b      	ldr	r3, [r3, #4]
 800260a:	3306      	adds	r3, #6
 800260c:	7818      	ldrb	r0, [r3, #0]
 800260e:	687b      	ldr	r3, [r7, #4]
 8002610:	685b      	ldr	r3, [r3, #4]
 8002612:	3307      	adds	r3, #7
 8002614:	7819      	ldrb	r1, [r3, #0]
 8002616:	78fb      	ldrb	r3, [r7, #3]
 8002618:	085b      	lsrs	r3, r3, #1
 800261a:	b2db      	uxtb	r3, r3
 800261c:	f003 0301 	and.w	r3, r3, #1
 8002620:	b2db      	uxtb	r3, r3
 8002622:	461a      	mov	r2, r3
 8002624:	f001 f81e 	bl	8003664 <GPIO_voidSetPinValue>
        GPIO_voidSetPinValue(_4_D6_PORT_PIN(x),GET_BIT(copy_u8Cmd,2));  //DB6
 8002628:	687b      	ldr	r3, [r7, #4]
 800262a:	685b      	ldr	r3, [r3, #4]
 800262c:	3308      	adds	r3, #8
 800262e:	7818      	ldrb	r0, [r3, #0]
 8002630:	687b      	ldr	r3, [r7, #4]
 8002632:	685b      	ldr	r3, [r3, #4]
 8002634:	3309      	adds	r3, #9
 8002636:	7819      	ldrb	r1, [r3, #0]
 8002638:	78fb      	ldrb	r3, [r7, #3]
 800263a:	089b      	lsrs	r3, r3, #2
 800263c:	b2db      	uxtb	r3, r3
 800263e:	f003 0301 	and.w	r3, r3, #1
 8002642:	b2db      	uxtb	r3, r3
 8002644:	461a      	mov	r2, r3
 8002646:	f001 f80d 	bl	8003664 <GPIO_voidSetPinValue>
        GPIO_voidSetPinValue(_4_D7_PORT_PIN(x),GET_BIT(copy_u8Cmd,3));  //DB7 	
 800264a:	687b      	ldr	r3, [r7, #4]
 800264c:	685b      	ldr	r3, [r3, #4]
 800264e:	330a      	adds	r3, #10
 8002650:	7818      	ldrb	r0, [r3, #0]
 8002652:	687b      	ldr	r3, [r7, #4]
 8002654:	685b      	ldr	r3, [r3, #4]
 8002656:	330b      	adds	r3, #11
 8002658:	7819      	ldrb	r1, [r3, #0]
 800265a:	78fb      	ldrb	r3, [r7, #3]
 800265c:	08db      	lsrs	r3, r3, #3
 800265e:	b2db      	uxtb	r3, r3
 8002660:	f003 0301 	and.w	r3, r3, #1
 8002664:	b2db      	uxtb	r3, r3
 8002666:	461a      	mov	r2, r3
 8002668:	f000 fffc 	bl	8003664 <GPIO_voidSetPinValue>
		GPIO_voidSetPinValue(RS_PORT_PIN(x) , LOW) ;
 800266c:	687b      	ldr	r3, [r7, #4]
 800266e:	685b      	ldr	r3, [r3, #4]
 8002670:	3302      	adds	r3, #2
 8002672:	7818      	ldrb	r0, [r3, #0]
 8002674:	687b      	ldr	r3, [r7, #4]
 8002676:	685b      	ldr	r3, [r3, #4]
 8002678:	3303      	adds	r3, #3
 800267a:	781b      	ldrb	r3, [r3, #0]
 800267c:	2200      	movs	r2, #0
 800267e:	4619      	mov	r1, r3
 8002680:	f000 fff0 	bl	8003664 <GPIO_voidSetPinValue>
		WRITE_DATA_TO_LCD(x);		
 8002684:	687b      	ldr	r3, [r7, #4]
 8002686:	685b      	ldr	r3, [r3, #4]
 8002688:	7818      	ldrb	r0, [r3, #0]
 800268a:	687b      	ldr	r3, [r7, #4]
 800268c:	685b      	ldr	r3, [r3, #4]
 800268e:	3301      	adds	r3, #1
 8002690:	781b      	ldrb	r3, [r3, #0]
 8002692:	2201      	movs	r2, #1
 8002694:	4619      	mov	r1, r3
 8002696:	f000 ffe5 	bl	8003664 <GPIO_voidSetPinValue>
 800269a:	2001      	movs	r0, #1
 800269c:	f7ff fd14 	bl	80020c8 <xDelay>
 80026a0:	687b      	ldr	r3, [r7, #4]
 80026a2:	685b      	ldr	r3, [r3, #4]
 80026a4:	7818      	ldrb	r0, [r3, #0]
 80026a6:	687b      	ldr	r3, [r7, #4]
 80026a8:	685b      	ldr	r3, [r3, #4]
 80026aa:	3301      	adds	r3, #1
 80026ac:	781b      	ldrb	r3, [r3, #0]
 80026ae:	2200      	movs	r2, #0
 80026b0:	4619      	mov	r1, r3
 80026b2:	f000 ffd7 	bl	8003664 <GPIO_voidSetPinValue>
 80026b6:	2014      	movs	r0, #20
 80026b8:	f7ff fd06 	bl	80020c8 <xDelay>

#endif
}
 80026bc:	bf00      	nop
 80026be:	3708      	adds	r7, #8
 80026c0:	46bd      	mov	sp, r7
 80026c2:	bd80      	pop	{r7, pc}

080026c4 <HAL_7SegmentInit>:

/******************************************************************************
* Function Definitions
*******************************************************************************/
_7Segment_ReturnState HAL_7SegmentInit(_7Segment_Config* ptr_config)
{
 80026c4:	b580      	push	{r7, lr}
 80026c6:	b084      	sub	sp, #16
 80026c8:	af00      	add	r7, sp, #0
 80026ca:	6078      	str	r0, [r7, #4]

	u8 LOC_u8Return = NO_ERROR; 
 80026cc:	2300      	movs	r3, #0
 80026ce:	73fb      	strb	r3, [r7, #15]
	/*			GPIO Init					*/

	switch(ACCESS_STRUCT(ptr_config,_7SegmentMode))
 80026d0:	687b      	ldr	r3, [r7, #4]
 80026d2:	785b      	ldrb	r3, [r3, #1]
 80026d4:	2b00      	cmp	r3, #0
 80026d6:	d002      	beq.n	80026de <HAL_7SegmentInit+0x1a>
 80026d8:	2b01      	cmp	r3, #1
 80026da:	d039      	beq.n	8002750 <HAL_7SegmentInit+0x8c>
 80026dc:	e059      	b.n	8002792 <HAL_7SegmentInit+0xce>
	{
		case _7_SEG_NORMAL_MODE :
			GPIO_voidSetPinDirection(ACCESS_STRUCT(ptr_config,_7SegmentPins)._7SEG_A_PORT, ACCESS_STRUCT(ptr_config,_7SegmentPins)._7SEG_A_PIN, GPIO_OUTPUT_2MHZ_PUSH_PULL) ;
 80026de:	687b      	ldr	r3, [r7, #4]
 80026e0:	7898      	ldrb	r0, [r3, #2]
 80026e2:	687b      	ldr	r3, [r7, #4]
 80026e4:	78db      	ldrb	r3, [r3, #3]
 80026e6:	2202      	movs	r2, #2
 80026e8:	4619      	mov	r1, r3
 80026ea:	f000 fef5 	bl	80034d8 <GPIO_voidSetPinDirection>
			GPIO_voidSetPinDirection(ACCESS_STRUCT(ptr_config,_7SegmentPins)._7SEG_B_PORT, ACCESS_STRUCT(ptr_config,_7SegmentPins)._7SEG_B_PIN, GPIO_OUTPUT_2MHZ_PUSH_PULL) ;
 80026ee:	687b      	ldr	r3, [r7, #4]
 80026f0:	7918      	ldrb	r0, [r3, #4]
 80026f2:	687b      	ldr	r3, [r7, #4]
 80026f4:	795b      	ldrb	r3, [r3, #5]
 80026f6:	2202      	movs	r2, #2
 80026f8:	4619      	mov	r1, r3
 80026fa:	f000 feed 	bl	80034d8 <GPIO_voidSetPinDirection>
			GPIO_voidSetPinDirection(ACCESS_STRUCT(ptr_config,_7SegmentPins)._7SEG_C_PORT, ACCESS_STRUCT(ptr_config,_7SegmentPins)._7SEG_C_PIN, GPIO_OUTPUT_2MHZ_PUSH_PULL) ;
 80026fe:	687b      	ldr	r3, [r7, #4]
 8002700:	7998      	ldrb	r0, [r3, #6]
 8002702:	687b      	ldr	r3, [r7, #4]
 8002704:	79db      	ldrb	r3, [r3, #7]
 8002706:	2202      	movs	r2, #2
 8002708:	4619      	mov	r1, r3
 800270a:	f000 fee5 	bl	80034d8 <GPIO_voidSetPinDirection>
			GPIO_voidSetPinDirection(ACCESS_STRUCT(ptr_config,_7SegmentPins)._7SEG_D_PORT, ACCESS_STRUCT(ptr_config,_7SegmentPins)._7SEG_D_PIN, GPIO_OUTPUT_2MHZ_PUSH_PULL) ;
 800270e:	687b      	ldr	r3, [r7, #4]
 8002710:	7a18      	ldrb	r0, [r3, #8]
 8002712:	687b      	ldr	r3, [r7, #4]
 8002714:	7a5b      	ldrb	r3, [r3, #9]
 8002716:	2202      	movs	r2, #2
 8002718:	4619      	mov	r1, r3
 800271a:	f000 fedd 	bl	80034d8 <GPIO_voidSetPinDirection>
			GPIO_voidSetPinDirection(ACCESS_STRUCT(ptr_config,_7SegmentPins)._7SEG_E_PORT, ACCESS_STRUCT(ptr_config,_7SegmentPins)._7SEG_E_PIN, GPIO_OUTPUT_2MHZ_PUSH_PULL) ;
 800271e:	687b      	ldr	r3, [r7, #4]
 8002720:	7a98      	ldrb	r0, [r3, #10]
 8002722:	687b      	ldr	r3, [r7, #4]
 8002724:	7adb      	ldrb	r3, [r3, #11]
 8002726:	2202      	movs	r2, #2
 8002728:	4619      	mov	r1, r3
 800272a:	f000 fed5 	bl	80034d8 <GPIO_voidSetPinDirection>
			GPIO_voidSetPinDirection(ACCESS_STRUCT(ptr_config,_7SegmentPins)._7SEG_F_PORT, ACCESS_STRUCT(ptr_config,_7SegmentPins)._7SEG_F_PIN, GPIO_OUTPUT_2MHZ_PUSH_PULL) ;
 800272e:	687b      	ldr	r3, [r7, #4]
 8002730:	7b18      	ldrb	r0, [r3, #12]
 8002732:	687b      	ldr	r3, [r7, #4]
 8002734:	7b5b      	ldrb	r3, [r3, #13]
 8002736:	2202      	movs	r2, #2
 8002738:	4619      	mov	r1, r3
 800273a:	f000 fecd 	bl	80034d8 <GPIO_voidSetPinDirection>
			GPIO_voidSetPinDirection(ACCESS_STRUCT(ptr_config,_7SegmentPins)._7SEG_G_PORT, ACCESS_STRUCT(ptr_config,_7SegmentPins)._7SEG_G_PIN, GPIO_OUTPUT_2MHZ_PUSH_PULL) ;
 800273e:	687b      	ldr	r3, [r7, #4]
 8002740:	7b98      	ldrb	r0, [r3, #14]
 8002742:	687b      	ldr	r3, [r7, #4]
 8002744:	7bdb      	ldrb	r3, [r3, #15]
 8002746:	2202      	movs	r2, #2
 8002748:	4619      	mov	r1, r3
 800274a:	f000 fec5 	bl	80034d8 <GPIO_voidSetPinDirection>
		break ; 
 800274e:	e022      	b.n	8002796 <HAL_7SegmentInit+0xd2>
		case _7_SEG_4_PIN_IC:
			GPIO_voidSetPinDirection(ACCESS_STRUCT(ptr_config,_7SegmentPins)._7SEG_A_PORT, ACCESS_STRUCT(ptr_config,_7SegmentPins)._7SEG_A_PIN, GPIO_OUTPUT_2MHZ_PUSH_PULL) ;
 8002750:	687b      	ldr	r3, [r7, #4]
 8002752:	7898      	ldrb	r0, [r3, #2]
 8002754:	687b      	ldr	r3, [r7, #4]
 8002756:	78db      	ldrb	r3, [r3, #3]
 8002758:	2202      	movs	r2, #2
 800275a:	4619      	mov	r1, r3
 800275c:	f000 febc 	bl	80034d8 <GPIO_voidSetPinDirection>
			GPIO_voidSetPinDirection(ACCESS_STRUCT(ptr_config,_7SegmentPins)._7SEG_B_PORT, ACCESS_STRUCT(ptr_config,_7SegmentPins)._7SEG_B_PIN, GPIO_OUTPUT_2MHZ_PUSH_PULL) ;
 8002760:	687b      	ldr	r3, [r7, #4]
 8002762:	7918      	ldrb	r0, [r3, #4]
 8002764:	687b      	ldr	r3, [r7, #4]
 8002766:	795b      	ldrb	r3, [r3, #5]
 8002768:	2202      	movs	r2, #2
 800276a:	4619      	mov	r1, r3
 800276c:	f000 feb4 	bl	80034d8 <GPIO_voidSetPinDirection>
			GPIO_voidSetPinDirection(ACCESS_STRUCT(ptr_config,_7SegmentPins)._7SEG_C_PORT, ACCESS_STRUCT(ptr_config,_7SegmentPins)._7SEG_C_PIN, GPIO_OUTPUT_2MHZ_PUSH_PULL) ;
 8002770:	687b      	ldr	r3, [r7, #4]
 8002772:	7998      	ldrb	r0, [r3, #6]
 8002774:	687b      	ldr	r3, [r7, #4]
 8002776:	79db      	ldrb	r3, [r3, #7]
 8002778:	2202      	movs	r2, #2
 800277a:	4619      	mov	r1, r3
 800277c:	f000 feac 	bl	80034d8 <GPIO_voidSetPinDirection>
			GPIO_voidSetPinDirection(ACCESS_STRUCT(ptr_config,_7SegmentPins)._7SEG_D_PORT, ACCESS_STRUCT(ptr_config,_7SegmentPins)._7SEG_D_PIN, GPIO_OUTPUT_2MHZ_PUSH_PULL) ;
 8002780:	687b      	ldr	r3, [r7, #4]
 8002782:	7a18      	ldrb	r0, [r3, #8]
 8002784:	687b      	ldr	r3, [r7, #4]
 8002786:	7a5b      	ldrb	r3, [r3, #9]
 8002788:	2202      	movs	r2, #2
 800278a:	4619      	mov	r1, r3
 800278c:	f000 fea4 	bl	80034d8 <GPIO_voidSetPinDirection>
		break;
 8002790:	e001      	b.n	8002796 <HAL_7SegmentInit+0xd2>
		default:
			LOC_u8Return= ERROR_OPRTION_MODE_SLCTION ; 
 8002792:	2301      	movs	r3, #1
 8002794:	73fb      	strb	r3, [r7, #15]
	}


	return 	LOC_u8Return ; 
 8002796:	7bfb      	ldrb	r3, [r7, #15]
}
 8002798:	4618      	mov	r0, r3
 800279a:	3710      	adds	r7, #16
 800279c:	46bd      	mov	sp, r7
 800279e:	bd80      	pop	{r7, pc}

080027a0 <HAL_7SegmentWriteNumber>:

_7Segment_ReturnState HAL_7SegmentWriteNumber(_7Segment_Config* ptr_config, u8 copy_u8Number)
{
 80027a0:	b580      	push	{r7, lr}
 80027a2:	b084      	sub	sp, #16
 80027a4:	af00      	add	r7, sp, #0
 80027a6:	6078      	str	r0, [r7, #4]
 80027a8:	460b      	mov	r3, r1
 80027aa:	70fb      	strb	r3, [r7, #3]
	u8 LOC_u8Return = NO_ERROR; 
 80027ac:	2300      	movs	r3, #0
 80027ae:	73fb      	strb	r3, [r7, #15]
	LOC_u8Return = _7sevenSegmentErrorChecking(ptr_config) ; 
 80027b0:	6878      	ldr	r0, [r7, #4]
 80027b2:	f000 f821 	bl	80027f8 <_7sevenSegmentErrorChecking>
 80027b6:	4603      	mov	r3, r0
 80027b8:	73fb      	strb	r3, [r7, #15]
	/*		ERROR CHECKER		*/
	if(LOC_u8Return != NO_ERROR)
 80027ba:	7bfb      	ldrb	r3, [r7, #15]
 80027bc:	2b00      	cmp	r3, #0
 80027be:	d001      	beq.n	80027c4 <HAL_7SegmentWriteNumber+0x24>
	{
		return LOC_u8Return; 
 80027c0:	7bfb      	ldrb	r3, [r7, #15]
 80027c2:	e012      	b.n	80027ea <HAL_7SegmentWriteNumber+0x4a>
	}
	/*		GOTO FUNC			*/
	if(copy_u8Number >= 48 && copy_u8Number <= 57)
 80027c4:	78fb      	ldrb	r3, [r7, #3]
 80027c6:	2b2f      	cmp	r3, #47	; 0x2f
 80027c8:	d906      	bls.n	80027d8 <HAL_7SegmentWriteNumber+0x38>
 80027ca:	78fb      	ldrb	r3, [r7, #3]
 80027cc:	2b39      	cmp	r3, #57	; 0x39
 80027ce:	d803      	bhi.n	80027d8 <HAL_7SegmentWriteNumber+0x38>
	{
		copy_u8Number = copy_u8Number - 48 ;
 80027d0:	78fb      	ldrb	r3, [r7, #3]
 80027d2:	3b30      	subs	r3, #48	; 0x30
 80027d4:	70fb      	strb	r3, [r7, #3]
 80027d6:	e001      	b.n	80027dc <HAL_7SegmentWriteNumber+0x3c>
	}
	else if (copy_u8Number >= 0 && copy_u8Number <= 9)
 80027d8:	78fb      	ldrb	r3, [r7, #3]
 80027da:	2b09      	cmp	r3, #9
	}
	else
	{
		// <!TODO ERROR> Wrong Input
	}
   (*arr_ofFunctions[copy_u8Number])(ptr_config);
 80027dc:	78fb      	ldrb	r3, [r7, #3]
 80027de:	4a05      	ldr	r2, [pc, #20]	; (80027f4 <HAL_7SegmentWriteNumber+0x54>)
 80027e0:	f852 3023 	ldr.w	r3, [r2, r3, lsl #2]
 80027e4:	6878      	ldr	r0, [r7, #4]
 80027e6:	4798      	blx	r3

	/*		Return Value		*/	
	return LOC_u8Return; 
 80027e8:	7bfb      	ldrb	r3, [r7, #15]
	
}
 80027ea:	4618      	mov	r0, r3
 80027ec:	3710      	adds	r7, #16
 80027ee:	46bd      	mov	sp, r7
 80027f0:	bd80      	pop	{r7, pc}
 80027f2:	bf00      	nop
 80027f4:	2000005c 	.word	0x2000005c

080027f8 <_7sevenSegmentErrorChecking>:




_7Segment_ReturnState _7sevenSegmentErrorChecking(_7Segment_Config* ptr_errorConfig)
{
 80027f8:	b480      	push	{r7}
 80027fa:	b083      	sub	sp, #12
 80027fc:	af00      	add	r7, sp, #0
 80027fe:	6078      	str	r0, [r7, #4]
	if (ACCESS_STRUCT(ptr_errorConfig,_7SegmentType) != COMN_ANODE && ACCESS_STRUCT(ptr_errorConfig,_7SegmentType) != COMN_CATHOD) 
 8002800:	687b      	ldr	r3, [r7, #4]
 8002802:	781b      	ldrb	r3, [r3, #0]
 8002804:	2b00      	cmp	r3, #0
 8002806:	d005      	beq.n	8002814 <_7sevenSegmentErrorChecking+0x1c>
 8002808:	687b      	ldr	r3, [r7, #4]
 800280a:	781b      	ldrb	r3, [r3, #0]
 800280c:	2b01      	cmp	r3, #1
 800280e:	d001      	beq.n	8002814 <_7sevenSegmentErrorChecking+0x1c>
	{
		return ERROR_TYPE_SLCTION ;
 8002810:	2302      	movs	r3, #2
 8002812:	e00a      	b.n	800282a <_7sevenSegmentErrorChecking+0x32>
	}
	else if(ACCESS_STRUCT(ptr_errorConfig,_7SegmentMode) != _7_SEG_NORMAL_MODE &&  ACCESS_STRUCT(ptr_errorConfig,_7SegmentMode) != _7_SEG_4_PIN_IC) 
 8002814:	687b      	ldr	r3, [r7, #4]
 8002816:	785b      	ldrb	r3, [r3, #1]
 8002818:	2b00      	cmp	r3, #0
 800281a:	d005      	beq.n	8002828 <_7sevenSegmentErrorChecking+0x30>
 800281c:	687b      	ldr	r3, [r7, #4]
 800281e:	785b      	ldrb	r3, [r3, #1]
 8002820:	2b01      	cmp	r3, #1
 8002822:	d001      	beq.n	8002828 <_7sevenSegmentErrorChecking+0x30>
	{
		return ERROR_OPRTION_MODE_SLCTION ; 
 8002824:	2301      	movs	r3, #1
 8002826:	e000      	b.n	800282a <_7sevenSegmentErrorChecking+0x32>
	}
	else
	{
		return NO_ERROR; 	
 8002828:	2300      	movs	r3, #0
	}
	return NO_ERROR; 
}
 800282a:	4618      	mov	r0, r3
 800282c:	370c      	adds	r7, #12
 800282e:	46bd      	mov	sp, r7
 8002830:	bc80      	pop	{r7}
 8002832:	4770      	bx	lr

08002834 <_7SegZero>:

static void _7SegZero  (_7Segment_Config* ptr_config)
{
 8002834:	b580      	push	{r7, lr}
 8002836:	b082      	sub	sp, #8
 8002838:	af00      	add	r7, sp, #0
 800283a:	6078      	str	r0, [r7, #4]
	switch(ACCESS_STRUCT(ptr_config,_7SegmentMode))
 800283c:	687b      	ldr	r3, [r7, #4]
 800283e:	785b      	ldrb	r3, [r3, #1]
 8002840:	2b00      	cmp	r3, #0
 8002842:	d002      	beq.n	800284a <_7SegZero+0x16>
 8002844:	2b01      	cmp	r3, #1
 8002846:	d045      	beq.n	80028d4 <_7SegZero+0xa0>
			GPIO_voidSetPinValue(ACCESS_STRUCT(ptr_config,_7SegmentPins)._7SEG_B_PORT, ACCESS_STRUCT(ptr_config,_7SegmentPins)._7SEG_B_PIN, ACCESS_STRUCT(ptr_config,_7SegmentType)) ; 
			GPIO_voidSetPinValue(ACCESS_STRUCT(ptr_config,_7SegmentPins)._7SEG_C_PORT, ACCESS_STRUCT(ptr_config,_7SegmentPins)._7SEG_C_PIN, ACCESS_STRUCT(ptr_config,_7SegmentType)) ; 
			GPIO_voidSetPinValue(ACCESS_STRUCT(ptr_config,_7SegmentPins)._7SEG_D_PORT, ACCESS_STRUCT(ptr_config,_7SegmentPins)._7SEG_D_PIN, ACCESS_STRUCT(ptr_config,_7SegmentType)) ; 
			break;
	}
}
 8002848:	e069      	b.n	800291e <_7SegZero+0xea>
			GPIO_voidSetPinValue(ACCESS_STRUCT(ptr_config,_7SegmentPins)._7SEG_A_PORT, ACCESS_STRUCT(ptr_config,_7SegmentPins)._7SEG_A_PIN, ACCESS_STRUCT(ptr_config,_7SegmentType)) ; 
 800284a:	687b      	ldr	r3, [r7, #4]
 800284c:	7898      	ldrb	r0, [r3, #2]
 800284e:	687b      	ldr	r3, [r7, #4]
 8002850:	78d9      	ldrb	r1, [r3, #3]
 8002852:	687b      	ldr	r3, [r7, #4]
 8002854:	781b      	ldrb	r3, [r3, #0]
 8002856:	461a      	mov	r2, r3
 8002858:	f000 ff04 	bl	8003664 <GPIO_voidSetPinValue>
			GPIO_voidSetPinValue(ACCESS_STRUCT(ptr_config,_7SegmentPins)._7SEG_B_PORT, ACCESS_STRUCT(ptr_config,_7SegmentPins)._7SEG_B_PIN, ACCESS_STRUCT(ptr_config,_7SegmentType)) ; 
 800285c:	687b      	ldr	r3, [r7, #4]
 800285e:	7918      	ldrb	r0, [r3, #4]
 8002860:	687b      	ldr	r3, [r7, #4]
 8002862:	7959      	ldrb	r1, [r3, #5]
 8002864:	687b      	ldr	r3, [r7, #4]
 8002866:	781b      	ldrb	r3, [r3, #0]
 8002868:	461a      	mov	r2, r3
 800286a:	f000 fefb 	bl	8003664 <GPIO_voidSetPinValue>
			GPIO_voidSetPinValue(ACCESS_STRUCT(ptr_config,_7SegmentPins)._7SEG_C_PORT, ACCESS_STRUCT(ptr_config,_7SegmentPins)._7SEG_C_PIN, ACCESS_STRUCT(ptr_config,_7SegmentType)) ; 
 800286e:	687b      	ldr	r3, [r7, #4]
 8002870:	7998      	ldrb	r0, [r3, #6]
 8002872:	687b      	ldr	r3, [r7, #4]
 8002874:	79d9      	ldrb	r1, [r3, #7]
 8002876:	687b      	ldr	r3, [r7, #4]
 8002878:	781b      	ldrb	r3, [r3, #0]
 800287a:	461a      	mov	r2, r3
 800287c:	f000 fef2 	bl	8003664 <GPIO_voidSetPinValue>
			GPIO_voidSetPinValue(ACCESS_STRUCT(ptr_config,_7SegmentPins)._7SEG_D_PORT, ACCESS_STRUCT(ptr_config,_7SegmentPins)._7SEG_D_PIN, ACCESS_STRUCT(ptr_config,_7SegmentType)) ; 
 8002880:	687b      	ldr	r3, [r7, #4]
 8002882:	7a18      	ldrb	r0, [r3, #8]
 8002884:	687b      	ldr	r3, [r7, #4]
 8002886:	7a59      	ldrb	r1, [r3, #9]
 8002888:	687b      	ldr	r3, [r7, #4]
 800288a:	781b      	ldrb	r3, [r3, #0]
 800288c:	461a      	mov	r2, r3
 800288e:	f000 fee9 	bl	8003664 <GPIO_voidSetPinValue>
			GPIO_voidSetPinValue(ACCESS_STRUCT(ptr_config,_7SegmentPins)._7SEG_E_PORT, ACCESS_STRUCT(ptr_config,_7SegmentPins)._7SEG_E_PIN, ACCESS_STRUCT(ptr_config,_7SegmentType)) ; 
 8002892:	687b      	ldr	r3, [r7, #4]
 8002894:	7a98      	ldrb	r0, [r3, #10]
 8002896:	687b      	ldr	r3, [r7, #4]
 8002898:	7ad9      	ldrb	r1, [r3, #11]
 800289a:	687b      	ldr	r3, [r7, #4]
 800289c:	781b      	ldrb	r3, [r3, #0]
 800289e:	461a      	mov	r2, r3
 80028a0:	f000 fee0 	bl	8003664 <GPIO_voidSetPinValue>
			GPIO_voidSetPinValue(ACCESS_STRUCT(ptr_config,_7SegmentPins)._7SEG_F_PORT, ACCESS_STRUCT(ptr_config,_7SegmentPins)._7SEG_F_PIN, ACCESS_STRUCT(ptr_config,_7SegmentType)) ; 		 
 80028a4:	687b      	ldr	r3, [r7, #4]
 80028a6:	7b18      	ldrb	r0, [r3, #12]
 80028a8:	687b      	ldr	r3, [r7, #4]
 80028aa:	7b59      	ldrb	r1, [r3, #13]
 80028ac:	687b      	ldr	r3, [r7, #4]
 80028ae:	781b      	ldrb	r3, [r3, #0]
 80028b0:	461a      	mov	r2, r3
 80028b2:	f000 fed7 	bl	8003664 <GPIO_voidSetPinValue>
			GPIO_voidSetPinValue(ACCESS_STRUCT(ptr_config,_7SegmentPins)._7SEG_G_PORT, ACCESS_STRUCT(ptr_config,_7SegmentPins)._7SEG_G_PIN, !ACCESS_STRUCT(ptr_config,_7SegmentType)) ; 				
 80028b6:	687b      	ldr	r3, [r7, #4]
 80028b8:	7b98      	ldrb	r0, [r3, #14]
 80028ba:	687b      	ldr	r3, [r7, #4]
 80028bc:	7bd9      	ldrb	r1, [r3, #15]
 80028be:	687b      	ldr	r3, [r7, #4]
 80028c0:	781b      	ldrb	r3, [r3, #0]
 80028c2:	2b00      	cmp	r3, #0
 80028c4:	bf0c      	ite	eq
 80028c6:	2301      	moveq	r3, #1
 80028c8:	2300      	movne	r3, #0
 80028ca:	b2db      	uxtb	r3, r3
 80028cc:	461a      	mov	r2, r3
 80028ce:	f000 fec9 	bl	8003664 <GPIO_voidSetPinValue>
			break ;		 
 80028d2:	e024      	b.n	800291e <_7SegZero+0xea>
			GPIO_voidSetPinValue(ACCESS_STRUCT(ptr_config,_7SegmentPins)._7SEG_A_PORT, ACCESS_STRUCT(ptr_config,_7SegmentPins)._7SEG_A_PIN, ACCESS_STRUCT(ptr_config,_7SegmentType)) ; 
 80028d4:	687b      	ldr	r3, [r7, #4]
 80028d6:	7898      	ldrb	r0, [r3, #2]
 80028d8:	687b      	ldr	r3, [r7, #4]
 80028da:	78d9      	ldrb	r1, [r3, #3]
 80028dc:	687b      	ldr	r3, [r7, #4]
 80028de:	781b      	ldrb	r3, [r3, #0]
 80028e0:	461a      	mov	r2, r3
 80028e2:	f000 febf 	bl	8003664 <GPIO_voidSetPinValue>
			GPIO_voidSetPinValue(ACCESS_STRUCT(ptr_config,_7SegmentPins)._7SEG_B_PORT, ACCESS_STRUCT(ptr_config,_7SegmentPins)._7SEG_B_PIN, ACCESS_STRUCT(ptr_config,_7SegmentType)) ; 
 80028e6:	687b      	ldr	r3, [r7, #4]
 80028e8:	7918      	ldrb	r0, [r3, #4]
 80028ea:	687b      	ldr	r3, [r7, #4]
 80028ec:	7959      	ldrb	r1, [r3, #5]
 80028ee:	687b      	ldr	r3, [r7, #4]
 80028f0:	781b      	ldrb	r3, [r3, #0]
 80028f2:	461a      	mov	r2, r3
 80028f4:	f000 feb6 	bl	8003664 <GPIO_voidSetPinValue>
			GPIO_voidSetPinValue(ACCESS_STRUCT(ptr_config,_7SegmentPins)._7SEG_C_PORT, ACCESS_STRUCT(ptr_config,_7SegmentPins)._7SEG_C_PIN, ACCESS_STRUCT(ptr_config,_7SegmentType)) ; 
 80028f8:	687b      	ldr	r3, [r7, #4]
 80028fa:	7998      	ldrb	r0, [r3, #6]
 80028fc:	687b      	ldr	r3, [r7, #4]
 80028fe:	79d9      	ldrb	r1, [r3, #7]
 8002900:	687b      	ldr	r3, [r7, #4]
 8002902:	781b      	ldrb	r3, [r3, #0]
 8002904:	461a      	mov	r2, r3
 8002906:	f000 fead 	bl	8003664 <GPIO_voidSetPinValue>
			GPIO_voidSetPinValue(ACCESS_STRUCT(ptr_config,_7SegmentPins)._7SEG_D_PORT, ACCESS_STRUCT(ptr_config,_7SegmentPins)._7SEG_D_PIN, ACCESS_STRUCT(ptr_config,_7SegmentType)) ; 
 800290a:	687b      	ldr	r3, [r7, #4]
 800290c:	7a18      	ldrb	r0, [r3, #8]
 800290e:	687b      	ldr	r3, [r7, #4]
 8002910:	7a59      	ldrb	r1, [r3, #9]
 8002912:	687b      	ldr	r3, [r7, #4]
 8002914:	781b      	ldrb	r3, [r3, #0]
 8002916:	461a      	mov	r2, r3
 8002918:	f000 fea4 	bl	8003664 <GPIO_voidSetPinValue>
			break;
 800291c:	bf00      	nop
}
 800291e:	bf00      	nop
 8002920:	3708      	adds	r7, #8
 8002922:	46bd      	mov	sp, r7
 8002924:	bd80      	pop	{r7, pc}

08002926 <_7SegOne>:
static void _7SegOne   (_7Segment_Config* ptr_config) 
{
 8002926:	b580      	push	{r7, lr}
 8002928:	b082      	sub	sp, #8
 800292a:	af00      	add	r7, sp, #0
 800292c:	6078      	str	r0, [r7, #4]
	switch(ACCESS_STRUCT(ptr_config,_7SegmentMode))
 800292e:	687b      	ldr	r3, [r7, #4]
 8002930:	785b      	ldrb	r3, [r3, #1]
 8002932:	2b00      	cmp	r3, #0
 8002934:	d002      	beq.n	800293c <_7SegOne+0x16>
 8002936:	2b01      	cmp	r3, #1
 8002938:	d059      	beq.n	80029ee <_7SegOne+0xc8>
			GPIO_voidSetPinValue(ACCESS_STRUCT(ptr_config,_7SegmentPins)._7SEG_B_PORT, ACCESS_STRUCT(ptr_config,_7SegmentPins)._7SEG_B_PIN, ACCESS_STRUCT(ptr_config,_7SegmentType)) ; 
			GPIO_voidSetPinValue(ACCESS_STRUCT(ptr_config,_7SegmentPins)._7SEG_C_PORT, ACCESS_STRUCT(ptr_config,_7SegmentPins)._7SEG_C_PIN, ACCESS_STRUCT(ptr_config,_7SegmentType)) ; 
			GPIO_voidSetPinValue(ACCESS_STRUCT(ptr_config,_7SegmentPins)._7SEG_D_PORT, ACCESS_STRUCT(ptr_config,_7SegmentPins)._7SEG_D_PIN, ACCESS_STRUCT(ptr_config,_7SegmentType)) ; 		
		break;
	}
}
 800293a:	e082      	b.n	8002a42 <_7SegOne+0x11c>
		 GPIO_voidSetPinValue(ACCESS_STRUCT(ptr_config,_7SegmentPins)._7SEG_A_PORT, ACCESS_STRUCT(ptr_config,_7SegmentPins)._7SEG_A_PIN, !ACCESS_STRUCT(ptr_config,_7SegmentType)) ; 
 800293c:	687b      	ldr	r3, [r7, #4]
 800293e:	7898      	ldrb	r0, [r3, #2]
 8002940:	687b      	ldr	r3, [r7, #4]
 8002942:	78d9      	ldrb	r1, [r3, #3]
 8002944:	687b      	ldr	r3, [r7, #4]
 8002946:	781b      	ldrb	r3, [r3, #0]
 8002948:	2b00      	cmp	r3, #0
 800294a:	bf0c      	ite	eq
 800294c:	2301      	moveq	r3, #1
 800294e:	2300      	movne	r3, #0
 8002950:	b2db      	uxtb	r3, r3
 8002952:	461a      	mov	r2, r3
 8002954:	f000 fe86 	bl	8003664 <GPIO_voidSetPinValue>
		 GPIO_voidSetPinValue(ACCESS_STRUCT(ptr_config,_7SegmentPins)._7SEG_B_PORT, ACCESS_STRUCT(ptr_config,_7SegmentPins)._7SEG_B_PIN, ACCESS_STRUCT(ptr_config,_7SegmentType)) ; 
 8002958:	687b      	ldr	r3, [r7, #4]
 800295a:	7918      	ldrb	r0, [r3, #4]
 800295c:	687b      	ldr	r3, [r7, #4]
 800295e:	7959      	ldrb	r1, [r3, #5]
 8002960:	687b      	ldr	r3, [r7, #4]
 8002962:	781b      	ldrb	r3, [r3, #0]
 8002964:	461a      	mov	r2, r3
 8002966:	f000 fe7d 	bl	8003664 <GPIO_voidSetPinValue>
		 GPIO_voidSetPinValue(ACCESS_STRUCT(ptr_config,_7SegmentPins)._7SEG_C_PORT, ACCESS_STRUCT(ptr_config,_7SegmentPins)._7SEG_C_PIN, ACCESS_STRUCT(ptr_config,_7SegmentType)) ; 
 800296a:	687b      	ldr	r3, [r7, #4]
 800296c:	7998      	ldrb	r0, [r3, #6]
 800296e:	687b      	ldr	r3, [r7, #4]
 8002970:	79d9      	ldrb	r1, [r3, #7]
 8002972:	687b      	ldr	r3, [r7, #4]
 8002974:	781b      	ldrb	r3, [r3, #0]
 8002976:	461a      	mov	r2, r3
 8002978:	f000 fe74 	bl	8003664 <GPIO_voidSetPinValue>
		 GPIO_voidSetPinValue(ACCESS_STRUCT(ptr_config,_7SegmentPins)._7SEG_D_PORT, ACCESS_STRUCT(ptr_config,_7SegmentPins)._7SEG_D_PIN, !ACCESS_STRUCT(ptr_config,_7SegmentType)) ; 
 800297c:	687b      	ldr	r3, [r7, #4]
 800297e:	7a18      	ldrb	r0, [r3, #8]
 8002980:	687b      	ldr	r3, [r7, #4]
 8002982:	7a59      	ldrb	r1, [r3, #9]
 8002984:	687b      	ldr	r3, [r7, #4]
 8002986:	781b      	ldrb	r3, [r3, #0]
 8002988:	2b00      	cmp	r3, #0
 800298a:	bf0c      	ite	eq
 800298c:	2301      	moveq	r3, #1
 800298e:	2300      	movne	r3, #0
 8002990:	b2db      	uxtb	r3, r3
 8002992:	461a      	mov	r2, r3
 8002994:	f000 fe66 	bl	8003664 <GPIO_voidSetPinValue>
		 GPIO_voidSetPinValue(ACCESS_STRUCT(ptr_config,_7SegmentPins)._7SEG_E_PORT, ACCESS_STRUCT(ptr_config,_7SegmentPins)._7SEG_E_PIN, !ACCESS_STRUCT(ptr_config,_7SegmentType)) ; 
 8002998:	687b      	ldr	r3, [r7, #4]
 800299a:	7a98      	ldrb	r0, [r3, #10]
 800299c:	687b      	ldr	r3, [r7, #4]
 800299e:	7ad9      	ldrb	r1, [r3, #11]
 80029a0:	687b      	ldr	r3, [r7, #4]
 80029a2:	781b      	ldrb	r3, [r3, #0]
 80029a4:	2b00      	cmp	r3, #0
 80029a6:	bf0c      	ite	eq
 80029a8:	2301      	moveq	r3, #1
 80029aa:	2300      	movne	r3, #0
 80029ac:	b2db      	uxtb	r3, r3
 80029ae:	461a      	mov	r2, r3
 80029b0:	f000 fe58 	bl	8003664 <GPIO_voidSetPinValue>
		 GPIO_voidSetPinValue(ACCESS_STRUCT(ptr_config,_7SegmentPins)._7SEG_F_PORT, ACCESS_STRUCT(ptr_config,_7SegmentPins)._7SEG_F_PIN, !ACCESS_STRUCT(ptr_config,_7SegmentType)) ; 		 
 80029b4:	687b      	ldr	r3, [r7, #4]
 80029b6:	7b18      	ldrb	r0, [r3, #12]
 80029b8:	687b      	ldr	r3, [r7, #4]
 80029ba:	7b59      	ldrb	r1, [r3, #13]
 80029bc:	687b      	ldr	r3, [r7, #4]
 80029be:	781b      	ldrb	r3, [r3, #0]
 80029c0:	2b00      	cmp	r3, #0
 80029c2:	bf0c      	ite	eq
 80029c4:	2301      	moveq	r3, #1
 80029c6:	2300      	movne	r3, #0
 80029c8:	b2db      	uxtb	r3, r3
 80029ca:	461a      	mov	r2, r3
 80029cc:	f000 fe4a 	bl	8003664 <GPIO_voidSetPinValue>
		 GPIO_voidSetPinValue(ACCESS_STRUCT(ptr_config,_7SegmentPins)._7SEG_G_PORT, ACCESS_STRUCT(ptr_config,_7SegmentPins)._7SEG_G_PIN, !ACCESS_STRUCT(ptr_config,_7SegmentType)) ; 	
 80029d0:	687b      	ldr	r3, [r7, #4]
 80029d2:	7b98      	ldrb	r0, [r3, #14]
 80029d4:	687b      	ldr	r3, [r7, #4]
 80029d6:	7bd9      	ldrb	r1, [r3, #15]
 80029d8:	687b      	ldr	r3, [r7, #4]
 80029da:	781b      	ldrb	r3, [r3, #0]
 80029dc:	2b00      	cmp	r3, #0
 80029de:	bf0c      	ite	eq
 80029e0:	2301      	moveq	r3, #1
 80029e2:	2300      	movne	r3, #0
 80029e4:	b2db      	uxtb	r3, r3
 80029e6:	461a      	mov	r2, r3
 80029e8:	f000 fe3c 	bl	8003664 <GPIO_voidSetPinValue>
		 break ;	 
 80029ec:	e029      	b.n	8002a42 <_7SegOne+0x11c>
			GPIO_voidSetPinValue(ACCESS_STRUCT(ptr_config,_7SegmentPins)._7SEG_A_PORT, ACCESS_STRUCT(ptr_config,_7SegmentPins)._7SEG_A_PIN, !ACCESS_STRUCT(ptr_config,_7SegmentType)) ; 
 80029ee:	687b      	ldr	r3, [r7, #4]
 80029f0:	7898      	ldrb	r0, [r3, #2]
 80029f2:	687b      	ldr	r3, [r7, #4]
 80029f4:	78d9      	ldrb	r1, [r3, #3]
 80029f6:	687b      	ldr	r3, [r7, #4]
 80029f8:	781b      	ldrb	r3, [r3, #0]
 80029fa:	2b00      	cmp	r3, #0
 80029fc:	bf0c      	ite	eq
 80029fe:	2301      	moveq	r3, #1
 8002a00:	2300      	movne	r3, #0
 8002a02:	b2db      	uxtb	r3, r3
 8002a04:	461a      	mov	r2, r3
 8002a06:	f000 fe2d 	bl	8003664 <GPIO_voidSetPinValue>
			GPIO_voidSetPinValue(ACCESS_STRUCT(ptr_config,_7SegmentPins)._7SEG_B_PORT, ACCESS_STRUCT(ptr_config,_7SegmentPins)._7SEG_B_PIN, ACCESS_STRUCT(ptr_config,_7SegmentType)) ; 
 8002a0a:	687b      	ldr	r3, [r7, #4]
 8002a0c:	7918      	ldrb	r0, [r3, #4]
 8002a0e:	687b      	ldr	r3, [r7, #4]
 8002a10:	7959      	ldrb	r1, [r3, #5]
 8002a12:	687b      	ldr	r3, [r7, #4]
 8002a14:	781b      	ldrb	r3, [r3, #0]
 8002a16:	461a      	mov	r2, r3
 8002a18:	f000 fe24 	bl	8003664 <GPIO_voidSetPinValue>
			GPIO_voidSetPinValue(ACCESS_STRUCT(ptr_config,_7SegmentPins)._7SEG_C_PORT, ACCESS_STRUCT(ptr_config,_7SegmentPins)._7SEG_C_PIN, ACCESS_STRUCT(ptr_config,_7SegmentType)) ; 
 8002a1c:	687b      	ldr	r3, [r7, #4]
 8002a1e:	7998      	ldrb	r0, [r3, #6]
 8002a20:	687b      	ldr	r3, [r7, #4]
 8002a22:	79d9      	ldrb	r1, [r3, #7]
 8002a24:	687b      	ldr	r3, [r7, #4]
 8002a26:	781b      	ldrb	r3, [r3, #0]
 8002a28:	461a      	mov	r2, r3
 8002a2a:	f000 fe1b 	bl	8003664 <GPIO_voidSetPinValue>
			GPIO_voidSetPinValue(ACCESS_STRUCT(ptr_config,_7SegmentPins)._7SEG_D_PORT, ACCESS_STRUCT(ptr_config,_7SegmentPins)._7SEG_D_PIN, ACCESS_STRUCT(ptr_config,_7SegmentType)) ; 		
 8002a2e:	687b      	ldr	r3, [r7, #4]
 8002a30:	7a18      	ldrb	r0, [r3, #8]
 8002a32:	687b      	ldr	r3, [r7, #4]
 8002a34:	7a59      	ldrb	r1, [r3, #9]
 8002a36:	687b      	ldr	r3, [r7, #4]
 8002a38:	781b      	ldrb	r3, [r3, #0]
 8002a3a:	461a      	mov	r2, r3
 8002a3c:	f000 fe12 	bl	8003664 <GPIO_voidSetPinValue>
		break;
 8002a40:	bf00      	nop
}
 8002a42:	bf00      	nop
 8002a44:	3708      	adds	r7, #8
 8002a46:	46bd      	mov	sp, r7
 8002a48:	bd80      	pop	{r7, pc}

08002a4a <_7SegTwo>:
static void _7SegTwo   (_7Segment_Config* ptr_config) 
{
 8002a4a:	b580      	push	{r7, lr}
 8002a4c:	b082      	sub	sp, #8
 8002a4e:	af00      	add	r7, sp, #0
 8002a50:	6078      	str	r0, [r7, #4]
	switch(ACCESS_STRUCT(ptr_config,_7SegmentMode))
 8002a52:	687b      	ldr	r3, [r7, #4]
 8002a54:	785b      	ldrb	r3, [r3, #1]
 8002a56:	2b00      	cmp	r3, #0
 8002a58:	d002      	beq.n	8002a60 <_7SegTwo+0x16>
 8002a5a:	2b01      	cmp	r3, #1
 8002a5c:	d04a      	beq.n	8002af4 <_7SegTwo+0xaa>
			GPIO_voidSetPinValue(ACCESS_STRUCT(ptr_config,_7SegmentPins)._7SEG_B_PORT, ACCESS_STRUCT(ptr_config,_7SegmentPins)._7SEG_B_PIN, !ACCESS_STRUCT(ptr_config,_7SegmentType)) ; 
			GPIO_voidSetPinValue(ACCESS_STRUCT(ptr_config,_7SegmentPins)._7SEG_C_PORT, ACCESS_STRUCT(ptr_config,_7SegmentPins)._7SEG_C_PIN, ACCESS_STRUCT(ptr_config,_7SegmentType)) ; 
			GPIO_voidSetPinValue(ACCESS_STRUCT(ptr_config,_7SegmentPins)._7SEG_D_PORT, ACCESS_STRUCT(ptr_config,_7SegmentPins)._7SEG_D_PIN, ACCESS_STRUCT(ptr_config,_7SegmentType)) ; 
		break;
	}
}
 8002a5e:	e073      	b.n	8002b48 <_7SegTwo+0xfe>
		 GPIO_voidSetPinValue(ACCESS_STRUCT(ptr_config,_7SegmentPins)._7SEG_A_PORT, ACCESS_STRUCT(ptr_config,_7SegmentPins)._7SEG_A_PIN, ACCESS_STRUCT(ptr_config,_7SegmentType)) ;		// A ON 
 8002a60:	687b      	ldr	r3, [r7, #4]
 8002a62:	7898      	ldrb	r0, [r3, #2]
 8002a64:	687b      	ldr	r3, [r7, #4]
 8002a66:	78d9      	ldrb	r1, [r3, #3]
 8002a68:	687b      	ldr	r3, [r7, #4]
 8002a6a:	781b      	ldrb	r3, [r3, #0]
 8002a6c:	461a      	mov	r2, r3
 8002a6e:	f000 fdf9 	bl	8003664 <GPIO_voidSetPinValue>
		 GPIO_voidSetPinValue(ACCESS_STRUCT(ptr_config,_7SegmentPins)._7SEG_B_PORT, ACCESS_STRUCT(ptr_config,_7SegmentPins)._7SEG_B_PIN, ACCESS_STRUCT(ptr_config,_7SegmentType)) ;		// B ON
 8002a72:	687b      	ldr	r3, [r7, #4]
 8002a74:	7918      	ldrb	r0, [r3, #4]
 8002a76:	687b      	ldr	r3, [r7, #4]
 8002a78:	7959      	ldrb	r1, [r3, #5]
 8002a7a:	687b      	ldr	r3, [r7, #4]
 8002a7c:	781b      	ldrb	r3, [r3, #0]
 8002a7e:	461a      	mov	r2, r3
 8002a80:	f000 fdf0 	bl	8003664 <GPIO_voidSetPinValue>
		 GPIO_voidSetPinValue(ACCESS_STRUCT(ptr_config,_7SegmentPins)._7SEG_C_PORT, ACCESS_STRUCT(ptr_config,_7SegmentPins)._7SEG_C_PIN, !ACCESS_STRUCT(ptr_config,_7SegmentType)) ;	// C OFF
 8002a84:	687b      	ldr	r3, [r7, #4]
 8002a86:	7998      	ldrb	r0, [r3, #6]
 8002a88:	687b      	ldr	r3, [r7, #4]
 8002a8a:	79d9      	ldrb	r1, [r3, #7]
 8002a8c:	687b      	ldr	r3, [r7, #4]
 8002a8e:	781b      	ldrb	r3, [r3, #0]
 8002a90:	2b00      	cmp	r3, #0
 8002a92:	bf0c      	ite	eq
 8002a94:	2301      	moveq	r3, #1
 8002a96:	2300      	movne	r3, #0
 8002a98:	b2db      	uxtb	r3, r3
 8002a9a:	461a      	mov	r2, r3
 8002a9c:	f000 fde2 	bl	8003664 <GPIO_voidSetPinValue>
		 GPIO_voidSetPinValue(ACCESS_STRUCT(ptr_config,_7SegmentPins)._7SEG_D_PORT, ACCESS_STRUCT(ptr_config,_7SegmentPins)._7SEG_D_PIN, ACCESS_STRUCT(ptr_config,_7SegmentType)) ;		// D ON
 8002aa0:	687b      	ldr	r3, [r7, #4]
 8002aa2:	7a18      	ldrb	r0, [r3, #8]
 8002aa4:	687b      	ldr	r3, [r7, #4]
 8002aa6:	7a59      	ldrb	r1, [r3, #9]
 8002aa8:	687b      	ldr	r3, [r7, #4]
 8002aaa:	781b      	ldrb	r3, [r3, #0]
 8002aac:	461a      	mov	r2, r3
 8002aae:	f000 fdd9 	bl	8003664 <GPIO_voidSetPinValue>
		 GPIO_voidSetPinValue(ACCESS_STRUCT(ptr_config,_7SegmentPins)._7SEG_E_PORT, ACCESS_STRUCT(ptr_config,_7SegmentPins)._7SEG_E_PIN, ACCESS_STRUCT(ptr_config,_7SegmentType)) ;		// E ON
 8002ab2:	687b      	ldr	r3, [r7, #4]
 8002ab4:	7a98      	ldrb	r0, [r3, #10]
 8002ab6:	687b      	ldr	r3, [r7, #4]
 8002ab8:	7ad9      	ldrb	r1, [r3, #11]
 8002aba:	687b      	ldr	r3, [r7, #4]
 8002abc:	781b      	ldrb	r3, [r3, #0]
 8002abe:	461a      	mov	r2, r3
 8002ac0:	f000 fdd0 	bl	8003664 <GPIO_voidSetPinValue>
		 GPIO_voidSetPinValue(ACCESS_STRUCT(ptr_config,_7SegmentPins)._7SEG_F_PORT, ACCESS_STRUCT(ptr_config,_7SegmentPins)._7SEG_F_PIN, !ACCESS_STRUCT(ptr_config,_7SegmentType)) ; 	// F OFF
 8002ac4:	687b      	ldr	r3, [r7, #4]
 8002ac6:	7b18      	ldrb	r0, [r3, #12]
 8002ac8:	687b      	ldr	r3, [r7, #4]
 8002aca:	7b59      	ldrb	r1, [r3, #13]
 8002acc:	687b      	ldr	r3, [r7, #4]
 8002ace:	781b      	ldrb	r3, [r3, #0]
 8002ad0:	2b00      	cmp	r3, #0
 8002ad2:	bf0c      	ite	eq
 8002ad4:	2301      	moveq	r3, #1
 8002ad6:	2300      	movne	r3, #0
 8002ad8:	b2db      	uxtb	r3, r3
 8002ada:	461a      	mov	r2, r3
 8002adc:	f000 fdc2 	bl	8003664 <GPIO_voidSetPinValue>
		 GPIO_voidSetPinValue(ACCESS_STRUCT(ptr_config,_7SegmentPins)._7SEG_G_PORT, ACCESS_STRUCT(ptr_config,_7SegmentPins)._7SEG_G_PIN, ACCESS_STRUCT(ptr_config,_7SegmentType)) ; 	// G ON
 8002ae0:	687b      	ldr	r3, [r7, #4]
 8002ae2:	7b98      	ldrb	r0, [r3, #14]
 8002ae4:	687b      	ldr	r3, [r7, #4]
 8002ae6:	7bd9      	ldrb	r1, [r3, #15]
 8002ae8:	687b      	ldr	r3, [r7, #4]
 8002aea:	781b      	ldrb	r3, [r3, #0]
 8002aec:	461a      	mov	r2, r3
 8002aee:	f000 fdb9 	bl	8003664 <GPIO_voidSetPinValue>
		 break ;
 8002af2:	e029      	b.n	8002b48 <_7SegTwo+0xfe>
			GPIO_voidSetPinValue(ACCESS_STRUCT(ptr_config,_7SegmentPins)._7SEG_A_PORT, ACCESS_STRUCT(ptr_config,_7SegmentPins)._7SEG_A_PIN, ACCESS_STRUCT(ptr_config,_7SegmentType)) ; 
 8002af4:	687b      	ldr	r3, [r7, #4]
 8002af6:	7898      	ldrb	r0, [r3, #2]
 8002af8:	687b      	ldr	r3, [r7, #4]
 8002afa:	78d9      	ldrb	r1, [r3, #3]
 8002afc:	687b      	ldr	r3, [r7, #4]
 8002afe:	781b      	ldrb	r3, [r3, #0]
 8002b00:	461a      	mov	r2, r3
 8002b02:	f000 fdaf 	bl	8003664 <GPIO_voidSetPinValue>
			GPIO_voidSetPinValue(ACCESS_STRUCT(ptr_config,_7SegmentPins)._7SEG_B_PORT, ACCESS_STRUCT(ptr_config,_7SegmentPins)._7SEG_B_PIN, !ACCESS_STRUCT(ptr_config,_7SegmentType)) ; 
 8002b06:	687b      	ldr	r3, [r7, #4]
 8002b08:	7918      	ldrb	r0, [r3, #4]
 8002b0a:	687b      	ldr	r3, [r7, #4]
 8002b0c:	7959      	ldrb	r1, [r3, #5]
 8002b0e:	687b      	ldr	r3, [r7, #4]
 8002b10:	781b      	ldrb	r3, [r3, #0]
 8002b12:	2b00      	cmp	r3, #0
 8002b14:	bf0c      	ite	eq
 8002b16:	2301      	moveq	r3, #1
 8002b18:	2300      	movne	r3, #0
 8002b1a:	b2db      	uxtb	r3, r3
 8002b1c:	461a      	mov	r2, r3
 8002b1e:	f000 fda1 	bl	8003664 <GPIO_voidSetPinValue>
			GPIO_voidSetPinValue(ACCESS_STRUCT(ptr_config,_7SegmentPins)._7SEG_C_PORT, ACCESS_STRUCT(ptr_config,_7SegmentPins)._7SEG_C_PIN, ACCESS_STRUCT(ptr_config,_7SegmentType)) ; 
 8002b22:	687b      	ldr	r3, [r7, #4]
 8002b24:	7998      	ldrb	r0, [r3, #6]
 8002b26:	687b      	ldr	r3, [r7, #4]
 8002b28:	79d9      	ldrb	r1, [r3, #7]
 8002b2a:	687b      	ldr	r3, [r7, #4]
 8002b2c:	781b      	ldrb	r3, [r3, #0]
 8002b2e:	461a      	mov	r2, r3
 8002b30:	f000 fd98 	bl	8003664 <GPIO_voidSetPinValue>
			GPIO_voidSetPinValue(ACCESS_STRUCT(ptr_config,_7SegmentPins)._7SEG_D_PORT, ACCESS_STRUCT(ptr_config,_7SegmentPins)._7SEG_D_PIN, ACCESS_STRUCT(ptr_config,_7SegmentType)) ; 
 8002b34:	687b      	ldr	r3, [r7, #4]
 8002b36:	7a18      	ldrb	r0, [r3, #8]
 8002b38:	687b      	ldr	r3, [r7, #4]
 8002b3a:	7a59      	ldrb	r1, [r3, #9]
 8002b3c:	687b      	ldr	r3, [r7, #4]
 8002b3e:	781b      	ldrb	r3, [r3, #0]
 8002b40:	461a      	mov	r2, r3
 8002b42:	f000 fd8f 	bl	8003664 <GPIO_voidSetPinValue>
		break;
 8002b46:	bf00      	nop
}
 8002b48:	bf00      	nop
 8002b4a:	3708      	adds	r7, #8
 8002b4c:	46bd      	mov	sp, r7
 8002b4e:	bd80      	pop	{r7, pc}

08002b50 <_7SegThree>:
static void _7SegThree (_7Segment_Config* ptr_config) 
{
 8002b50:	b580      	push	{r7, lr}
 8002b52:	b082      	sub	sp, #8
 8002b54:	af00      	add	r7, sp, #0
 8002b56:	6078      	str	r0, [r7, #4]
	switch(ACCESS_STRUCT(ptr_config,_7SegmentMode))
 8002b58:	687b      	ldr	r3, [r7, #4]
 8002b5a:	785b      	ldrb	r3, [r3, #1]
 8002b5c:	2b00      	cmp	r3, #0
 8002b5e:	d002      	beq.n	8002b66 <_7SegThree+0x16>
 8002b60:	2b01      	cmp	r3, #1
 8002b62:	d04a      	beq.n	8002bfa <_7SegThree+0xaa>
			GPIO_voidSetPinValue(ACCESS_STRUCT(ptr_config,_7SegmentPins)._7SEG_B_PORT, ACCESS_STRUCT(ptr_config,_7SegmentPins)._7SEG_B_PIN, !ACCESS_STRUCT(ptr_config,_7SegmentType)) ; 
			GPIO_voidSetPinValue(ACCESS_STRUCT(ptr_config,_7SegmentPins)._7SEG_C_PORT, ACCESS_STRUCT(ptr_config,_7SegmentPins)._7SEG_C_PIN, ACCESS_STRUCT(ptr_config,_7SegmentType)) ; 
			GPIO_voidSetPinValue(ACCESS_STRUCT(ptr_config,_7SegmentPins)._7SEG_D_PORT, ACCESS_STRUCT(ptr_config,_7SegmentPins)._7SEG_D_PIN, ACCESS_STRUCT(ptr_config,_7SegmentType)) ; 		
		break;
	}
}
 8002b64:	e078      	b.n	8002c58 <_7SegThree+0x108>
		 GPIO_voidSetPinValue(ACCESS_STRUCT(ptr_config,_7SegmentPins)._7SEG_A_PORT, ACCESS_STRUCT(ptr_config,_7SegmentPins)._7SEG_A_PIN, ACCESS_STRUCT(ptr_config,_7SegmentType)) ;		// A ON 
 8002b66:	687b      	ldr	r3, [r7, #4]
 8002b68:	7898      	ldrb	r0, [r3, #2]
 8002b6a:	687b      	ldr	r3, [r7, #4]
 8002b6c:	78d9      	ldrb	r1, [r3, #3]
 8002b6e:	687b      	ldr	r3, [r7, #4]
 8002b70:	781b      	ldrb	r3, [r3, #0]
 8002b72:	461a      	mov	r2, r3
 8002b74:	f000 fd76 	bl	8003664 <GPIO_voidSetPinValue>
		 GPIO_voidSetPinValue(ACCESS_STRUCT(ptr_config,_7SegmentPins)._7SEG_B_PORT, ACCESS_STRUCT(ptr_config,_7SegmentPins)._7SEG_B_PIN, ACCESS_STRUCT(ptr_config,_7SegmentType)) ;		// B ON
 8002b78:	687b      	ldr	r3, [r7, #4]
 8002b7a:	7918      	ldrb	r0, [r3, #4]
 8002b7c:	687b      	ldr	r3, [r7, #4]
 8002b7e:	7959      	ldrb	r1, [r3, #5]
 8002b80:	687b      	ldr	r3, [r7, #4]
 8002b82:	781b      	ldrb	r3, [r3, #0]
 8002b84:	461a      	mov	r2, r3
 8002b86:	f000 fd6d 	bl	8003664 <GPIO_voidSetPinValue>
		 GPIO_voidSetPinValue(ACCESS_STRUCT(ptr_config,_7SegmentPins)._7SEG_C_PORT, ACCESS_STRUCT(ptr_config,_7SegmentPins)._7SEG_C_PIN, ACCESS_STRUCT(ptr_config,_7SegmentType)) ;		// C ON
 8002b8a:	687b      	ldr	r3, [r7, #4]
 8002b8c:	7998      	ldrb	r0, [r3, #6]
 8002b8e:	687b      	ldr	r3, [r7, #4]
 8002b90:	79d9      	ldrb	r1, [r3, #7]
 8002b92:	687b      	ldr	r3, [r7, #4]
 8002b94:	781b      	ldrb	r3, [r3, #0]
 8002b96:	461a      	mov	r2, r3
 8002b98:	f000 fd64 	bl	8003664 <GPIO_voidSetPinValue>
		 GPIO_voidSetPinValue(ACCESS_STRUCT(ptr_config,_7SegmentPins)._7SEG_D_PORT, ACCESS_STRUCT(ptr_config,_7SegmentPins)._7SEG_D_PIN, ACCESS_STRUCT(ptr_config,_7SegmentType)) ;		// D on
 8002b9c:	687b      	ldr	r3, [r7, #4]
 8002b9e:	7a18      	ldrb	r0, [r3, #8]
 8002ba0:	687b      	ldr	r3, [r7, #4]
 8002ba2:	7a59      	ldrb	r1, [r3, #9]
 8002ba4:	687b      	ldr	r3, [r7, #4]
 8002ba6:	781b      	ldrb	r3, [r3, #0]
 8002ba8:	461a      	mov	r2, r3
 8002baa:	f000 fd5b 	bl	8003664 <GPIO_voidSetPinValue>
		 GPIO_voidSetPinValue(ACCESS_STRUCT(ptr_config,_7SegmentPins)._7SEG_E_PORT, ACCESS_STRUCT(ptr_config,_7SegmentPins)._7SEG_E_PIN, !ACCESS_STRUCT(ptr_config,_7SegmentType)) ;		// E OFF
 8002bae:	687b      	ldr	r3, [r7, #4]
 8002bb0:	7a98      	ldrb	r0, [r3, #10]
 8002bb2:	687b      	ldr	r3, [r7, #4]
 8002bb4:	7ad9      	ldrb	r1, [r3, #11]
 8002bb6:	687b      	ldr	r3, [r7, #4]
 8002bb8:	781b      	ldrb	r3, [r3, #0]
 8002bba:	2b00      	cmp	r3, #0
 8002bbc:	bf0c      	ite	eq
 8002bbe:	2301      	moveq	r3, #1
 8002bc0:	2300      	movne	r3, #0
 8002bc2:	b2db      	uxtb	r3, r3
 8002bc4:	461a      	mov	r2, r3
 8002bc6:	f000 fd4d 	bl	8003664 <GPIO_voidSetPinValue>
		 GPIO_voidSetPinValue(ACCESS_STRUCT(ptr_config,_7SegmentPins)._7SEG_F_PORT, ACCESS_STRUCT(ptr_config,_7SegmentPins)._7SEG_F_PIN, !ACCESS_STRUCT(ptr_config,_7SegmentType)) ; 	// F OFF
 8002bca:	687b      	ldr	r3, [r7, #4]
 8002bcc:	7b18      	ldrb	r0, [r3, #12]
 8002bce:	687b      	ldr	r3, [r7, #4]
 8002bd0:	7b59      	ldrb	r1, [r3, #13]
 8002bd2:	687b      	ldr	r3, [r7, #4]
 8002bd4:	781b      	ldrb	r3, [r3, #0]
 8002bd6:	2b00      	cmp	r3, #0
 8002bd8:	bf0c      	ite	eq
 8002bda:	2301      	moveq	r3, #1
 8002bdc:	2300      	movne	r3, #0
 8002bde:	b2db      	uxtb	r3, r3
 8002be0:	461a      	mov	r2, r3
 8002be2:	f000 fd3f 	bl	8003664 <GPIO_voidSetPinValue>
		 GPIO_voidSetPinValue(ACCESS_STRUCT(ptr_config,_7SegmentPins)._7SEG_G_PORT, ACCESS_STRUCT(ptr_config,_7SegmentPins)._7SEG_G_PIN, ACCESS_STRUCT(ptr_config,_7SegmentType)) ; 	// G ON
 8002be6:	687b      	ldr	r3, [r7, #4]
 8002be8:	7b98      	ldrb	r0, [r3, #14]
 8002bea:	687b      	ldr	r3, [r7, #4]
 8002bec:	7bd9      	ldrb	r1, [r3, #15]
 8002bee:	687b      	ldr	r3, [r7, #4]
 8002bf0:	781b      	ldrb	r3, [r3, #0]
 8002bf2:	461a      	mov	r2, r3
 8002bf4:	f000 fd36 	bl	8003664 <GPIO_voidSetPinValue>
		 break ;
 8002bf8:	e02e      	b.n	8002c58 <_7SegThree+0x108>
			GPIO_voidSetPinValue(ACCESS_STRUCT(ptr_config,_7SegmentPins)._7SEG_A_PORT, ACCESS_STRUCT(ptr_config,_7SegmentPins)._7SEG_A_PIN, !ACCESS_STRUCT(ptr_config,_7SegmentType)) ; 
 8002bfa:	687b      	ldr	r3, [r7, #4]
 8002bfc:	7898      	ldrb	r0, [r3, #2]
 8002bfe:	687b      	ldr	r3, [r7, #4]
 8002c00:	78d9      	ldrb	r1, [r3, #3]
 8002c02:	687b      	ldr	r3, [r7, #4]
 8002c04:	781b      	ldrb	r3, [r3, #0]
 8002c06:	2b00      	cmp	r3, #0
 8002c08:	bf0c      	ite	eq
 8002c0a:	2301      	moveq	r3, #1
 8002c0c:	2300      	movne	r3, #0
 8002c0e:	b2db      	uxtb	r3, r3
 8002c10:	461a      	mov	r2, r3
 8002c12:	f000 fd27 	bl	8003664 <GPIO_voidSetPinValue>
			GPIO_voidSetPinValue(ACCESS_STRUCT(ptr_config,_7SegmentPins)._7SEG_B_PORT, ACCESS_STRUCT(ptr_config,_7SegmentPins)._7SEG_B_PIN, !ACCESS_STRUCT(ptr_config,_7SegmentType)) ; 
 8002c16:	687b      	ldr	r3, [r7, #4]
 8002c18:	7918      	ldrb	r0, [r3, #4]
 8002c1a:	687b      	ldr	r3, [r7, #4]
 8002c1c:	7959      	ldrb	r1, [r3, #5]
 8002c1e:	687b      	ldr	r3, [r7, #4]
 8002c20:	781b      	ldrb	r3, [r3, #0]
 8002c22:	2b00      	cmp	r3, #0
 8002c24:	bf0c      	ite	eq
 8002c26:	2301      	moveq	r3, #1
 8002c28:	2300      	movne	r3, #0
 8002c2a:	b2db      	uxtb	r3, r3
 8002c2c:	461a      	mov	r2, r3
 8002c2e:	f000 fd19 	bl	8003664 <GPIO_voidSetPinValue>
			GPIO_voidSetPinValue(ACCESS_STRUCT(ptr_config,_7SegmentPins)._7SEG_C_PORT, ACCESS_STRUCT(ptr_config,_7SegmentPins)._7SEG_C_PIN, ACCESS_STRUCT(ptr_config,_7SegmentType)) ; 
 8002c32:	687b      	ldr	r3, [r7, #4]
 8002c34:	7998      	ldrb	r0, [r3, #6]
 8002c36:	687b      	ldr	r3, [r7, #4]
 8002c38:	79d9      	ldrb	r1, [r3, #7]
 8002c3a:	687b      	ldr	r3, [r7, #4]
 8002c3c:	781b      	ldrb	r3, [r3, #0]
 8002c3e:	461a      	mov	r2, r3
 8002c40:	f000 fd10 	bl	8003664 <GPIO_voidSetPinValue>
			GPIO_voidSetPinValue(ACCESS_STRUCT(ptr_config,_7SegmentPins)._7SEG_D_PORT, ACCESS_STRUCT(ptr_config,_7SegmentPins)._7SEG_D_PIN, ACCESS_STRUCT(ptr_config,_7SegmentType)) ; 		
 8002c44:	687b      	ldr	r3, [r7, #4]
 8002c46:	7a18      	ldrb	r0, [r3, #8]
 8002c48:	687b      	ldr	r3, [r7, #4]
 8002c4a:	7a59      	ldrb	r1, [r3, #9]
 8002c4c:	687b      	ldr	r3, [r7, #4]
 8002c4e:	781b      	ldrb	r3, [r3, #0]
 8002c50:	461a      	mov	r2, r3
 8002c52:	f000 fd07 	bl	8003664 <GPIO_voidSetPinValue>
		break;
 8002c56:	bf00      	nop
}
 8002c58:	bf00      	nop
 8002c5a:	3708      	adds	r7, #8
 8002c5c:	46bd      	mov	sp, r7
 8002c5e:	bd80      	pop	{r7, pc}

08002c60 <_7SegFour>:
static void _7SegFour  (_7Segment_Config* ptr_config) 
{
 8002c60:	b580      	push	{r7, lr}
 8002c62:	b082      	sub	sp, #8
 8002c64:	af00      	add	r7, sp, #0
 8002c66:	6078      	str	r0, [r7, #4]
	switch(ACCESS_STRUCT(ptr_config,_7SegmentMode))
 8002c68:	687b      	ldr	r3, [r7, #4]
 8002c6a:	785b      	ldrb	r3, [r3, #1]
 8002c6c:	2b00      	cmp	r3, #0
 8002c6e:	d002      	beq.n	8002c76 <_7SegFour+0x16>
 8002c70:	2b01      	cmp	r3, #1
 8002c72:	d04f      	beq.n	8002d14 <_7SegFour+0xb4>
			GPIO_voidSetPinValue(ACCESS_STRUCT(ptr_config,_7SegmentPins)._7SEG_B_PORT, ACCESS_STRUCT(ptr_config,_7SegmentPins)._7SEG_B_PIN, ACCESS_STRUCT(ptr_config,_7SegmentType)) ; 
			GPIO_voidSetPinValue(ACCESS_STRUCT(ptr_config,_7SegmentPins)._7SEG_C_PORT, ACCESS_STRUCT(ptr_config,_7SegmentPins)._7SEG_C_PIN, !ACCESS_STRUCT(ptr_config,_7SegmentType)) ; 
			GPIO_voidSetPinValue(ACCESS_STRUCT(ptr_config,_7SegmentPins)._7SEG_D_PORT, ACCESS_STRUCT(ptr_config,_7SegmentPins)._7SEG_D_PIN, ACCESS_STRUCT(ptr_config,_7SegmentType)) ; 		
		break;
	}
}
 8002c74:	e078      	b.n	8002d68 <_7SegFour+0x108>
		 GPIO_voidSetPinValue(ACCESS_STRUCT(ptr_config,_7SegmentPins)._7SEG_A_PORT, ACCESS_STRUCT(ptr_config,_7SegmentPins)._7SEG_A_PIN, !ACCESS_STRUCT(ptr_config,_7SegmentType)) ;		// A OFF
 8002c76:	687b      	ldr	r3, [r7, #4]
 8002c78:	7898      	ldrb	r0, [r3, #2]
 8002c7a:	687b      	ldr	r3, [r7, #4]
 8002c7c:	78d9      	ldrb	r1, [r3, #3]
 8002c7e:	687b      	ldr	r3, [r7, #4]
 8002c80:	781b      	ldrb	r3, [r3, #0]
 8002c82:	2b00      	cmp	r3, #0
 8002c84:	bf0c      	ite	eq
 8002c86:	2301      	moveq	r3, #1
 8002c88:	2300      	movne	r3, #0
 8002c8a:	b2db      	uxtb	r3, r3
 8002c8c:	461a      	mov	r2, r3
 8002c8e:	f000 fce9 	bl	8003664 <GPIO_voidSetPinValue>
		 GPIO_voidSetPinValue(ACCESS_STRUCT(ptr_config,_7SegmentPins)._7SEG_B_PORT, ACCESS_STRUCT(ptr_config,_7SegmentPins)._7SEG_B_PIN, ACCESS_STRUCT(ptr_config,_7SegmentType)) ;		// B ON
 8002c92:	687b      	ldr	r3, [r7, #4]
 8002c94:	7918      	ldrb	r0, [r3, #4]
 8002c96:	687b      	ldr	r3, [r7, #4]
 8002c98:	7959      	ldrb	r1, [r3, #5]
 8002c9a:	687b      	ldr	r3, [r7, #4]
 8002c9c:	781b      	ldrb	r3, [r3, #0]
 8002c9e:	461a      	mov	r2, r3
 8002ca0:	f000 fce0 	bl	8003664 <GPIO_voidSetPinValue>
		 GPIO_voidSetPinValue(ACCESS_STRUCT(ptr_config,_7SegmentPins)._7SEG_C_PORT, ACCESS_STRUCT(ptr_config,_7SegmentPins)._7SEG_C_PIN, ACCESS_STRUCT(ptr_config,_7SegmentType)) ;	// C ON
 8002ca4:	687b      	ldr	r3, [r7, #4]
 8002ca6:	7998      	ldrb	r0, [r3, #6]
 8002ca8:	687b      	ldr	r3, [r7, #4]
 8002caa:	79d9      	ldrb	r1, [r3, #7]
 8002cac:	687b      	ldr	r3, [r7, #4]
 8002cae:	781b      	ldrb	r3, [r3, #0]
 8002cb0:	461a      	mov	r2, r3
 8002cb2:	f000 fcd7 	bl	8003664 <GPIO_voidSetPinValue>
		 GPIO_voidSetPinValue(ACCESS_STRUCT(ptr_config,_7SegmentPins)._7SEG_D_PORT, ACCESS_STRUCT(ptr_config,_7SegmentPins)._7SEG_D_PIN, !ACCESS_STRUCT(ptr_config,_7SegmentType)) ;		// D OFF
 8002cb6:	687b      	ldr	r3, [r7, #4]
 8002cb8:	7a18      	ldrb	r0, [r3, #8]
 8002cba:	687b      	ldr	r3, [r7, #4]
 8002cbc:	7a59      	ldrb	r1, [r3, #9]
 8002cbe:	687b      	ldr	r3, [r7, #4]
 8002cc0:	781b      	ldrb	r3, [r3, #0]
 8002cc2:	2b00      	cmp	r3, #0
 8002cc4:	bf0c      	ite	eq
 8002cc6:	2301      	moveq	r3, #1
 8002cc8:	2300      	movne	r3, #0
 8002cca:	b2db      	uxtb	r3, r3
 8002ccc:	461a      	mov	r2, r3
 8002cce:	f000 fcc9 	bl	8003664 <GPIO_voidSetPinValue>
		 GPIO_voidSetPinValue(ACCESS_STRUCT(ptr_config,_7SegmentPins)._7SEG_E_PORT, ACCESS_STRUCT(ptr_config,_7SegmentPins)._7SEG_E_PIN, !ACCESS_STRUCT(ptr_config,_7SegmentType)) ;		// E OFF
 8002cd2:	687b      	ldr	r3, [r7, #4]
 8002cd4:	7a98      	ldrb	r0, [r3, #10]
 8002cd6:	687b      	ldr	r3, [r7, #4]
 8002cd8:	7ad9      	ldrb	r1, [r3, #11]
 8002cda:	687b      	ldr	r3, [r7, #4]
 8002cdc:	781b      	ldrb	r3, [r3, #0]
 8002cde:	2b00      	cmp	r3, #0
 8002ce0:	bf0c      	ite	eq
 8002ce2:	2301      	moveq	r3, #1
 8002ce4:	2300      	movne	r3, #0
 8002ce6:	b2db      	uxtb	r3, r3
 8002ce8:	461a      	mov	r2, r3
 8002cea:	f000 fcbb 	bl	8003664 <GPIO_voidSetPinValue>
		 GPIO_voidSetPinValue(ACCESS_STRUCT(ptr_config,_7SegmentPins)._7SEG_F_PORT, ACCESS_STRUCT(ptr_config,_7SegmentPins)._7SEG_F_PIN, ACCESS_STRUCT(ptr_config,_7SegmentType)) ; 	// F ON
 8002cee:	687b      	ldr	r3, [r7, #4]
 8002cf0:	7b18      	ldrb	r0, [r3, #12]
 8002cf2:	687b      	ldr	r3, [r7, #4]
 8002cf4:	7b59      	ldrb	r1, [r3, #13]
 8002cf6:	687b      	ldr	r3, [r7, #4]
 8002cf8:	781b      	ldrb	r3, [r3, #0]
 8002cfa:	461a      	mov	r2, r3
 8002cfc:	f000 fcb2 	bl	8003664 <GPIO_voidSetPinValue>
		 GPIO_voidSetPinValue(ACCESS_STRUCT(ptr_config,_7SegmentPins)._7SEG_G_PORT, ACCESS_STRUCT(ptr_config,_7SegmentPins)._7SEG_G_PIN, ACCESS_STRUCT(ptr_config,_7SegmentType)) ; 	// G ON
 8002d00:	687b      	ldr	r3, [r7, #4]
 8002d02:	7b98      	ldrb	r0, [r3, #14]
 8002d04:	687b      	ldr	r3, [r7, #4]
 8002d06:	7bd9      	ldrb	r1, [r3, #15]
 8002d08:	687b      	ldr	r3, [r7, #4]
 8002d0a:	781b      	ldrb	r3, [r3, #0]
 8002d0c:	461a      	mov	r2, r3
 8002d0e:	f000 fca9 	bl	8003664 <GPIO_voidSetPinValue>
		break ;
 8002d12:	e029      	b.n	8002d68 <_7SegFour+0x108>
			GPIO_voidSetPinValue(ACCESS_STRUCT(ptr_config,_7SegmentPins)._7SEG_A_PORT, ACCESS_STRUCT(ptr_config,_7SegmentPins)._7SEG_A_PIN, ACCESS_STRUCT(ptr_config,_7SegmentType)) ; 
 8002d14:	687b      	ldr	r3, [r7, #4]
 8002d16:	7898      	ldrb	r0, [r3, #2]
 8002d18:	687b      	ldr	r3, [r7, #4]
 8002d1a:	78d9      	ldrb	r1, [r3, #3]
 8002d1c:	687b      	ldr	r3, [r7, #4]
 8002d1e:	781b      	ldrb	r3, [r3, #0]
 8002d20:	461a      	mov	r2, r3
 8002d22:	f000 fc9f 	bl	8003664 <GPIO_voidSetPinValue>
			GPIO_voidSetPinValue(ACCESS_STRUCT(ptr_config,_7SegmentPins)._7SEG_B_PORT, ACCESS_STRUCT(ptr_config,_7SegmentPins)._7SEG_B_PIN, ACCESS_STRUCT(ptr_config,_7SegmentType)) ; 
 8002d26:	687b      	ldr	r3, [r7, #4]
 8002d28:	7918      	ldrb	r0, [r3, #4]
 8002d2a:	687b      	ldr	r3, [r7, #4]
 8002d2c:	7959      	ldrb	r1, [r3, #5]
 8002d2e:	687b      	ldr	r3, [r7, #4]
 8002d30:	781b      	ldrb	r3, [r3, #0]
 8002d32:	461a      	mov	r2, r3
 8002d34:	f000 fc96 	bl	8003664 <GPIO_voidSetPinValue>
			GPIO_voidSetPinValue(ACCESS_STRUCT(ptr_config,_7SegmentPins)._7SEG_C_PORT, ACCESS_STRUCT(ptr_config,_7SegmentPins)._7SEG_C_PIN, !ACCESS_STRUCT(ptr_config,_7SegmentType)) ; 
 8002d38:	687b      	ldr	r3, [r7, #4]
 8002d3a:	7998      	ldrb	r0, [r3, #6]
 8002d3c:	687b      	ldr	r3, [r7, #4]
 8002d3e:	79d9      	ldrb	r1, [r3, #7]
 8002d40:	687b      	ldr	r3, [r7, #4]
 8002d42:	781b      	ldrb	r3, [r3, #0]
 8002d44:	2b00      	cmp	r3, #0
 8002d46:	bf0c      	ite	eq
 8002d48:	2301      	moveq	r3, #1
 8002d4a:	2300      	movne	r3, #0
 8002d4c:	b2db      	uxtb	r3, r3
 8002d4e:	461a      	mov	r2, r3
 8002d50:	f000 fc88 	bl	8003664 <GPIO_voidSetPinValue>
			GPIO_voidSetPinValue(ACCESS_STRUCT(ptr_config,_7SegmentPins)._7SEG_D_PORT, ACCESS_STRUCT(ptr_config,_7SegmentPins)._7SEG_D_PIN, ACCESS_STRUCT(ptr_config,_7SegmentType)) ; 		
 8002d54:	687b      	ldr	r3, [r7, #4]
 8002d56:	7a18      	ldrb	r0, [r3, #8]
 8002d58:	687b      	ldr	r3, [r7, #4]
 8002d5a:	7a59      	ldrb	r1, [r3, #9]
 8002d5c:	687b      	ldr	r3, [r7, #4]
 8002d5e:	781b      	ldrb	r3, [r3, #0]
 8002d60:	461a      	mov	r2, r3
 8002d62:	f000 fc7f 	bl	8003664 <GPIO_voidSetPinValue>
		break;
 8002d66:	bf00      	nop
}
 8002d68:	bf00      	nop
 8002d6a:	3708      	adds	r7, #8
 8002d6c:	46bd      	mov	sp, r7
 8002d6e:	bd80      	pop	{r7, pc}

08002d70 <_7SegFive>:
static void _7SegFive  (_7Segment_Config* ptr_config) 
{
 8002d70:	b580      	push	{r7, lr}
 8002d72:	b082      	sub	sp, #8
 8002d74:	af00      	add	r7, sp, #0
 8002d76:	6078      	str	r0, [r7, #4]
	switch(ACCESS_STRUCT(ptr_config,_7SegmentMode))
 8002d78:	687b      	ldr	r3, [r7, #4]
 8002d7a:	785b      	ldrb	r3, [r3, #1]
 8002d7c:	2b00      	cmp	r3, #0
 8002d7e:	d002      	beq.n	8002d86 <_7SegFive+0x16>
 8002d80:	2b01      	cmp	r3, #1
 8002d82:	d04a      	beq.n	8002e1a <_7SegFive+0xaa>
			GPIO_voidSetPinValue(ACCESS_STRUCT(ptr_config,_7SegmentPins)._7SEG_B_PORT, ACCESS_STRUCT(ptr_config,_7SegmentPins)._7SEG_B_PIN, ACCESS_STRUCT(ptr_config,_7SegmentType)) ; 
			GPIO_voidSetPinValue(ACCESS_STRUCT(ptr_config,_7SegmentPins)._7SEG_C_PORT, ACCESS_STRUCT(ptr_config,_7SegmentPins)._7SEG_C_PIN, !ACCESS_STRUCT(ptr_config,_7SegmentType)) ; 
			GPIO_voidSetPinValue(ACCESS_STRUCT(ptr_config,_7SegmentPins)._7SEG_D_PORT, ACCESS_STRUCT(ptr_config,_7SegmentPins)._7SEG_D_PIN, ACCESS_STRUCT(ptr_config,_7SegmentType)) ; 		
		break;
	}
}
 8002d84:	e078      	b.n	8002e78 <_7SegFive+0x108>
		 GPIO_voidSetPinValue(ACCESS_STRUCT(ptr_config,_7SegmentPins)._7SEG_A_PORT, ACCESS_STRUCT(ptr_config,_7SegmentPins)._7SEG_A_PIN, ACCESS_STRUCT(ptr_config,_7SegmentType)) ;		// A ON 
 8002d86:	687b      	ldr	r3, [r7, #4]
 8002d88:	7898      	ldrb	r0, [r3, #2]
 8002d8a:	687b      	ldr	r3, [r7, #4]
 8002d8c:	78d9      	ldrb	r1, [r3, #3]
 8002d8e:	687b      	ldr	r3, [r7, #4]
 8002d90:	781b      	ldrb	r3, [r3, #0]
 8002d92:	461a      	mov	r2, r3
 8002d94:	f000 fc66 	bl	8003664 <GPIO_voidSetPinValue>
		 GPIO_voidSetPinValue(ACCESS_STRUCT(ptr_config,_7SegmentPins)._7SEG_B_PORT, ACCESS_STRUCT(ptr_config,_7SegmentPins)._7SEG_B_PIN, !ACCESS_STRUCT(ptr_config,_7SegmentType)) ;		// B OFF
 8002d98:	687b      	ldr	r3, [r7, #4]
 8002d9a:	7918      	ldrb	r0, [r3, #4]
 8002d9c:	687b      	ldr	r3, [r7, #4]
 8002d9e:	7959      	ldrb	r1, [r3, #5]
 8002da0:	687b      	ldr	r3, [r7, #4]
 8002da2:	781b      	ldrb	r3, [r3, #0]
 8002da4:	2b00      	cmp	r3, #0
 8002da6:	bf0c      	ite	eq
 8002da8:	2301      	moveq	r3, #1
 8002daa:	2300      	movne	r3, #0
 8002dac:	b2db      	uxtb	r3, r3
 8002dae:	461a      	mov	r2, r3
 8002db0:	f000 fc58 	bl	8003664 <GPIO_voidSetPinValue>
		 GPIO_voidSetPinValue(ACCESS_STRUCT(ptr_config,_7SegmentPins)._7SEG_C_PORT, ACCESS_STRUCT(ptr_config,_7SegmentPins)._7SEG_C_PIN, ACCESS_STRUCT(ptr_config,_7SegmentType)) ;	// C ON
 8002db4:	687b      	ldr	r3, [r7, #4]
 8002db6:	7998      	ldrb	r0, [r3, #6]
 8002db8:	687b      	ldr	r3, [r7, #4]
 8002dba:	79d9      	ldrb	r1, [r3, #7]
 8002dbc:	687b      	ldr	r3, [r7, #4]
 8002dbe:	781b      	ldrb	r3, [r3, #0]
 8002dc0:	461a      	mov	r2, r3
 8002dc2:	f000 fc4f 	bl	8003664 <GPIO_voidSetPinValue>
		 GPIO_voidSetPinValue(ACCESS_STRUCT(ptr_config,_7SegmentPins)._7SEG_D_PORT, ACCESS_STRUCT(ptr_config,_7SegmentPins)._7SEG_D_PIN, ACCESS_STRUCT(ptr_config,_7SegmentType)) ;		// D ON
 8002dc6:	687b      	ldr	r3, [r7, #4]
 8002dc8:	7a18      	ldrb	r0, [r3, #8]
 8002dca:	687b      	ldr	r3, [r7, #4]
 8002dcc:	7a59      	ldrb	r1, [r3, #9]
 8002dce:	687b      	ldr	r3, [r7, #4]
 8002dd0:	781b      	ldrb	r3, [r3, #0]
 8002dd2:	461a      	mov	r2, r3
 8002dd4:	f000 fc46 	bl	8003664 <GPIO_voidSetPinValue>
		 GPIO_voidSetPinValue(ACCESS_STRUCT(ptr_config,_7SegmentPins)._7SEG_E_PORT, ACCESS_STRUCT(ptr_config,_7SegmentPins)._7SEG_E_PIN, !ACCESS_STRUCT(ptr_config,_7SegmentType)) ;		// E OFF
 8002dd8:	687b      	ldr	r3, [r7, #4]
 8002dda:	7a98      	ldrb	r0, [r3, #10]
 8002ddc:	687b      	ldr	r3, [r7, #4]
 8002dde:	7ad9      	ldrb	r1, [r3, #11]
 8002de0:	687b      	ldr	r3, [r7, #4]
 8002de2:	781b      	ldrb	r3, [r3, #0]
 8002de4:	2b00      	cmp	r3, #0
 8002de6:	bf0c      	ite	eq
 8002de8:	2301      	moveq	r3, #1
 8002dea:	2300      	movne	r3, #0
 8002dec:	b2db      	uxtb	r3, r3
 8002dee:	461a      	mov	r2, r3
 8002df0:	f000 fc38 	bl	8003664 <GPIO_voidSetPinValue>
		 GPIO_voidSetPinValue(ACCESS_STRUCT(ptr_config,_7SegmentPins)._7SEG_F_PORT, ACCESS_STRUCT(ptr_config,_7SegmentPins)._7SEG_F_PIN, ACCESS_STRUCT(ptr_config,_7SegmentType)) ; 	// F ON
 8002df4:	687b      	ldr	r3, [r7, #4]
 8002df6:	7b18      	ldrb	r0, [r3, #12]
 8002df8:	687b      	ldr	r3, [r7, #4]
 8002dfa:	7b59      	ldrb	r1, [r3, #13]
 8002dfc:	687b      	ldr	r3, [r7, #4]
 8002dfe:	781b      	ldrb	r3, [r3, #0]
 8002e00:	461a      	mov	r2, r3
 8002e02:	f000 fc2f 	bl	8003664 <GPIO_voidSetPinValue>
		 GPIO_voidSetPinValue(ACCESS_STRUCT(ptr_config,_7SegmentPins)._7SEG_G_PORT, ACCESS_STRUCT(ptr_config,_7SegmentPins)._7SEG_G_PIN, ACCESS_STRUCT(ptr_config,_7SegmentType)) ; 	// G ON
 8002e06:	687b      	ldr	r3, [r7, #4]
 8002e08:	7b98      	ldrb	r0, [r3, #14]
 8002e0a:	687b      	ldr	r3, [r7, #4]
 8002e0c:	7bd9      	ldrb	r1, [r3, #15]
 8002e0e:	687b      	ldr	r3, [r7, #4]
 8002e10:	781b      	ldrb	r3, [r3, #0]
 8002e12:	461a      	mov	r2, r3
 8002e14:	f000 fc26 	bl	8003664 <GPIO_voidSetPinValue>
		break ;
 8002e18:	e02e      	b.n	8002e78 <_7SegFive+0x108>
			GPIO_voidSetPinValue(ACCESS_STRUCT(ptr_config,_7SegmentPins)._7SEG_A_PORT, ACCESS_STRUCT(ptr_config,_7SegmentPins)._7SEG_A_PIN, !ACCESS_STRUCT(ptr_config,_7SegmentType)) ; 
 8002e1a:	687b      	ldr	r3, [r7, #4]
 8002e1c:	7898      	ldrb	r0, [r3, #2]
 8002e1e:	687b      	ldr	r3, [r7, #4]
 8002e20:	78d9      	ldrb	r1, [r3, #3]
 8002e22:	687b      	ldr	r3, [r7, #4]
 8002e24:	781b      	ldrb	r3, [r3, #0]
 8002e26:	2b00      	cmp	r3, #0
 8002e28:	bf0c      	ite	eq
 8002e2a:	2301      	moveq	r3, #1
 8002e2c:	2300      	movne	r3, #0
 8002e2e:	b2db      	uxtb	r3, r3
 8002e30:	461a      	mov	r2, r3
 8002e32:	f000 fc17 	bl	8003664 <GPIO_voidSetPinValue>
			GPIO_voidSetPinValue(ACCESS_STRUCT(ptr_config,_7SegmentPins)._7SEG_B_PORT, ACCESS_STRUCT(ptr_config,_7SegmentPins)._7SEG_B_PIN, ACCESS_STRUCT(ptr_config,_7SegmentType)) ; 
 8002e36:	687b      	ldr	r3, [r7, #4]
 8002e38:	7918      	ldrb	r0, [r3, #4]
 8002e3a:	687b      	ldr	r3, [r7, #4]
 8002e3c:	7959      	ldrb	r1, [r3, #5]
 8002e3e:	687b      	ldr	r3, [r7, #4]
 8002e40:	781b      	ldrb	r3, [r3, #0]
 8002e42:	461a      	mov	r2, r3
 8002e44:	f000 fc0e 	bl	8003664 <GPIO_voidSetPinValue>
			GPIO_voidSetPinValue(ACCESS_STRUCT(ptr_config,_7SegmentPins)._7SEG_C_PORT, ACCESS_STRUCT(ptr_config,_7SegmentPins)._7SEG_C_PIN, !ACCESS_STRUCT(ptr_config,_7SegmentType)) ; 
 8002e48:	687b      	ldr	r3, [r7, #4]
 8002e4a:	7998      	ldrb	r0, [r3, #6]
 8002e4c:	687b      	ldr	r3, [r7, #4]
 8002e4e:	79d9      	ldrb	r1, [r3, #7]
 8002e50:	687b      	ldr	r3, [r7, #4]
 8002e52:	781b      	ldrb	r3, [r3, #0]
 8002e54:	2b00      	cmp	r3, #0
 8002e56:	bf0c      	ite	eq
 8002e58:	2301      	moveq	r3, #1
 8002e5a:	2300      	movne	r3, #0
 8002e5c:	b2db      	uxtb	r3, r3
 8002e5e:	461a      	mov	r2, r3
 8002e60:	f000 fc00 	bl	8003664 <GPIO_voidSetPinValue>
			GPIO_voidSetPinValue(ACCESS_STRUCT(ptr_config,_7SegmentPins)._7SEG_D_PORT, ACCESS_STRUCT(ptr_config,_7SegmentPins)._7SEG_D_PIN, ACCESS_STRUCT(ptr_config,_7SegmentType)) ; 		
 8002e64:	687b      	ldr	r3, [r7, #4]
 8002e66:	7a18      	ldrb	r0, [r3, #8]
 8002e68:	687b      	ldr	r3, [r7, #4]
 8002e6a:	7a59      	ldrb	r1, [r3, #9]
 8002e6c:	687b      	ldr	r3, [r7, #4]
 8002e6e:	781b      	ldrb	r3, [r3, #0]
 8002e70:	461a      	mov	r2, r3
 8002e72:	f000 fbf7 	bl	8003664 <GPIO_voidSetPinValue>
		break;
 8002e76:	bf00      	nop
}
 8002e78:	bf00      	nop
 8002e7a:	3708      	adds	r7, #8
 8002e7c:	46bd      	mov	sp, r7
 8002e7e:	bd80      	pop	{r7, pc}

08002e80 <_7SegSix>:
static void _7SegSix   (_7Segment_Config* ptr_config) 
{
 8002e80:	b580      	push	{r7, lr}
 8002e82:	b082      	sub	sp, #8
 8002e84:	af00      	add	r7, sp, #0
 8002e86:	6078      	str	r0, [r7, #4]
	switch(ACCESS_STRUCT(ptr_config,_7SegmentMode))
 8002e88:	687b      	ldr	r3, [r7, #4]
 8002e8a:	785b      	ldrb	r3, [r3, #1]
 8002e8c:	2b00      	cmp	r3, #0
 8002e8e:	d002      	beq.n	8002e96 <_7SegSix+0x16>
 8002e90:	2b01      	cmp	r3, #1
 8002e92:	d045      	beq.n	8002f20 <_7SegSix+0xa0>
			GPIO_voidSetPinValue(ACCESS_STRUCT(ptr_config,_7SegmentPins)._7SEG_C_PORT, ACCESS_STRUCT(ptr_config,_7SegmentPins)._7SEG_C_PIN, !ACCESS_STRUCT(ptr_config,_7SegmentType)) ; 
			GPIO_voidSetPinValue(ACCESS_STRUCT(ptr_config,_7SegmentPins)._7SEG_D_PORT, ACCESS_STRUCT(ptr_config,_7SegmentPins)._7SEG_D_PIN, ACCESS_STRUCT(ptr_config,_7SegmentType)) ; 		
		
		break;
	}
}
 8002e94:	e073      	b.n	8002f7e <_7SegSix+0xfe>
		 GPIO_voidSetPinValue(ACCESS_STRUCT(ptr_config,_7SegmentPins)._7SEG_A_PORT, ACCESS_STRUCT(ptr_config,_7SegmentPins)._7SEG_A_PIN, ACCESS_STRUCT(ptr_config,_7SegmentType)) ;		// A ON 
 8002e96:	687b      	ldr	r3, [r7, #4]
 8002e98:	7898      	ldrb	r0, [r3, #2]
 8002e9a:	687b      	ldr	r3, [r7, #4]
 8002e9c:	78d9      	ldrb	r1, [r3, #3]
 8002e9e:	687b      	ldr	r3, [r7, #4]
 8002ea0:	781b      	ldrb	r3, [r3, #0]
 8002ea2:	461a      	mov	r2, r3
 8002ea4:	f000 fbde 	bl	8003664 <GPIO_voidSetPinValue>
		 GPIO_voidSetPinValue(ACCESS_STRUCT(ptr_config,_7SegmentPins)._7SEG_B_PORT, ACCESS_STRUCT(ptr_config,_7SegmentPins)._7SEG_B_PIN, !ACCESS_STRUCT(ptr_config,_7SegmentType)) ;		// B OFF
 8002ea8:	687b      	ldr	r3, [r7, #4]
 8002eaa:	7918      	ldrb	r0, [r3, #4]
 8002eac:	687b      	ldr	r3, [r7, #4]
 8002eae:	7959      	ldrb	r1, [r3, #5]
 8002eb0:	687b      	ldr	r3, [r7, #4]
 8002eb2:	781b      	ldrb	r3, [r3, #0]
 8002eb4:	2b00      	cmp	r3, #0
 8002eb6:	bf0c      	ite	eq
 8002eb8:	2301      	moveq	r3, #1
 8002eba:	2300      	movne	r3, #0
 8002ebc:	b2db      	uxtb	r3, r3
 8002ebe:	461a      	mov	r2, r3
 8002ec0:	f000 fbd0 	bl	8003664 <GPIO_voidSetPinValue>
		 GPIO_voidSetPinValue(ACCESS_STRUCT(ptr_config,_7SegmentPins)._7SEG_C_PORT, ACCESS_STRUCT(ptr_config,_7SegmentPins)._7SEG_C_PIN, ACCESS_STRUCT(ptr_config,_7SegmentType)) ;	// C ON
 8002ec4:	687b      	ldr	r3, [r7, #4]
 8002ec6:	7998      	ldrb	r0, [r3, #6]
 8002ec8:	687b      	ldr	r3, [r7, #4]
 8002eca:	79d9      	ldrb	r1, [r3, #7]
 8002ecc:	687b      	ldr	r3, [r7, #4]
 8002ece:	781b      	ldrb	r3, [r3, #0]
 8002ed0:	461a      	mov	r2, r3
 8002ed2:	f000 fbc7 	bl	8003664 <GPIO_voidSetPinValue>
		 GPIO_voidSetPinValue(ACCESS_STRUCT(ptr_config,_7SegmentPins)._7SEG_D_PORT, ACCESS_STRUCT(ptr_config,_7SegmentPins)._7SEG_D_PIN, ACCESS_STRUCT(ptr_config,_7SegmentType)) ;		// D ON
 8002ed6:	687b      	ldr	r3, [r7, #4]
 8002ed8:	7a18      	ldrb	r0, [r3, #8]
 8002eda:	687b      	ldr	r3, [r7, #4]
 8002edc:	7a59      	ldrb	r1, [r3, #9]
 8002ede:	687b      	ldr	r3, [r7, #4]
 8002ee0:	781b      	ldrb	r3, [r3, #0]
 8002ee2:	461a      	mov	r2, r3
 8002ee4:	f000 fbbe 	bl	8003664 <GPIO_voidSetPinValue>
		 GPIO_voidSetPinValue(ACCESS_STRUCT(ptr_config,_7SegmentPins)._7SEG_E_PORT, ACCESS_STRUCT(ptr_config,_7SegmentPins)._7SEG_E_PIN, ACCESS_STRUCT(ptr_config,_7SegmentType)) ;		// E ON
 8002ee8:	687b      	ldr	r3, [r7, #4]
 8002eea:	7a98      	ldrb	r0, [r3, #10]
 8002eec:	687b      	ldr	r3, [r7, #4]
 8002eee:	7ad9      	ldrb	r1, [r3, #11]
 8002ef0:	687b      	ldr	r3, [r7, #4]
 8002ef2:	781b      	ldrb	r3, [r3, #0]
 8002ef4:	461a      	mov	r2, r3
 8002ef6:	f000 fbb5 	bl	8003664 <GPIO_voidSetPinValue>
		 GPIO_voidSetPinValue(ACCESS_STRUCT(ptr_config,_7SegmentPins)._7SEG_F_PORT, ACCESS_STRUCT(ptr_config,_7SegmentPins)._7SEG_F_PIN, ACCESS_STRUCT(ptr_config,_7SegmentType)) ; 	// F ON
 8002efa:	687b      	ldr	r3, [r7, #4]
 8002efc:	7b18      	ldrb	r0, [r3, #12]
 8002efe:	687b      	ldr	r3, [r7, #4]
 8002f00:	7b59      	ldrb	r1, [r3, #13]
 8002f02:	687b      	ldr	r3, [r7, #4]
 8002f04:	781b      	ldrb	r3, [r3, #0]
 8002f06:	461a      	mov	r2, r3
 8002f08:	f000 fbac 	bl	8003664 <GPIO_voidSetPinValue>
		 GPIO_voidSetPinValue(ACCESS_STRUCT(ptr_config,_7SegmentPins)._7SEG_G_PORT, ACCESS_STRUCT(ptr_config,_7SegmentPins)._7SEG_G_PIN, ACCESS_STRUCT(ptr_config,_7SegmentType)) ; 	// G ON
 8002f0c:	687b      	ldr	r3, [r7, #4]
 8002f0e:	7b98      	ldrb	r0, [r3, #14]
 8002f10:	687b      	ldr	r3, [r7, #4]
 8002f12:	7bd9      	ldrb	r1, [r3, #15]
 8002f14:	687b      	ldr	r3, [r7, #4]
 8002f16:	781b      	ldrb	r3, [r3, #0]
 8002f18:	461a      	mov	r2, r3
 8002f1a:	f000 fba3 	bl	8003664 <GPIO_voidSetPinValue>
		break ;
 8002f1e:	e02e      	b.n	8002f7e <_7SegSix+0xfe>
			GPIO_voidSetPinValue(ACCESS_STRUCT(ptr_config,_7SegmentPins)._7SEG_A_PORT, ACCESS_STRUCT(ptr_config,_7SegmentPins)._7SEG_A_PIN, ACCESS_STRUCT(ptr_config,_7SegmentType)) ; 
 8002f20:	687b      	ldr	r3, [r7, #4]
 8002f22:	7898      	ldrb	r0, [r3, #2]
 8002f24:	687b      	ldr	r3, [r7, #4]
 8002f26:	78d9      	ldrb	r1, [r3, #3]
 8002f28:	687b      	ldr	r3, [r7, #4]
 8002f2a:	781b      	ldrb	r3, [r3, #0]
 8002f2c:	461a      	mov	r2, r3
 8002f2e:	f000 fb99 	bl	8003664 <GPIO_voidSetPinValue>
			GPIO_voidSetPinValue(ACCESS_STRUCT(ptr_config,_7SegmentPins)._7SEG_B_PORT, ACCESS_STRUCT(ptr_config,_7SegmentPins)._7SEG_B_PIN, !ACCESS_STRUCT(ptr_config,_7SegmentType)) ; 
 8002f32:	687b      	ldr	r3, [r7, #4]
 8002f34:	7918      	ldrb	r0, [r3, #4]
 8002f36:	687b      	ldr	r3, [r7, #4]
 8002f38:	7959      	ldrb	r1, [r3, #5]
 8002f3a:	687b      	ldr	r3, [r7, #4]
 8002f3c:	781b      	ldrb	r3, [r3, #0]
 8002f3e:	2b00      	cmp	r3, #0
 8002f40:	bf0c      	ite	eq
 8002f42:	2301      	moveq	r3, #1
 8002f44:	2300      	movne	r3, #0
 8002f46:	b2db      	uxtb	r3, r3
 8002f48:	461a      	mov	r2, r3
 8002f4a:	f000 fb8b 	bl	8003664 <GPIO_voidSetPinValue>
			GPIO_voidSetPinValue(ACCESS_STRUCT(ptr_config,_7SegmentPins)._7SEG_C_PORT, ACCESS_STRUCT(ptr_config,_7SegmentPins)._7SEG_C_PIN, !ACCESS_STRUCT(ptr_config,_7SegmentType)) ; 
 8002f4e:	687b      	ldr	r3, [r7, #4]
 8002f50:	7998      	ldrb	r0, [r3, #6]
 8002f52:	687b      	ldr	r3, [r7, #4]
 8002f54:	79d9      	ldrb	r1, [r3, #7]
 8002f56:	687b      	ldr	r3, [r7, #4]
 8002f58:	781b      	ldrb	r3, [r3, #0]
 8002f5a:	2b00      	cmp	r3, #0
 8002f5c:	bf0c      	ite	eq
 8002f5e:	2301      	moveq	r3, #1
 8002f60:	2300      	movne	r3, #0
 8002f62:	b2db      	uxtb	r3, r3
 8002f64:	461a      	mov	r2, r3
 8002f66:	f000 fb7d 	bl	8003664 <GPIO_voidSetPinValue>
			GPIO_voidSetPinValue(ACCESS_STRUCT(ptr_config,_7SegmentPins)._7SEG_D_PORT, ACCESS_STRUCT(ptr_config,_7SegmentPins)._7SEG_D_PIN, ACCESS_STRUCT(ptr_config,_7SegmentType)) ; 		
 8002f6a:	687b      	ldr	r3, [r7, #4]
 8002f6c:	7a18      	ldrb	r0, [r3, #8]
 8002f6e:	687b      	ldr	r3, [r7, #4]
 8002f70:	7a59      	ldrb	r1, [r3, #9]
 8002f72:	687b      	ldr	r3, [r7, #4]
 8002f74:	781b      	ldrb	r3, [r3, #0]
 8002f76:	461a      	mov	r2, r3
 8002f78:	f000 fb74 	bl	8003664 <GPIO_voidSetPinValue>
		break;
 8002f7c:	bf00      	nop
}
 8002f7e:	bf00      	nop
 8002f80:	3708      	adds	r7, #8
 8002f82:	46bd      	mov	sp, r7
 8002f84:	bd80      	pop	{r7, pc}

08002f86 <_7SegSeven>:
static void _7SegSeven (_7Segment_Config* ptr_config) 
{
 8002f86:	b580      	push	{r7, lr}
 8002f88:	b082      	sub	sp, #8
 8002f8a:	af00      	add	r7, sp, #0
 8002f8c:	6078      	str	r0, [r7, #4]
	switch(ACCESS_STRUCT(ptr_config,_7SegmentMode))
 8002f8e:	687b      	ldr	r3, [r7, #4]
 8002f90:	785b      	ldrb	r3, [r3, #1]
 8002f92:	2b00      	cmp	r3, #0
 8002f94:	d002      	beq.n	8002f9c <_7SegSeven+0x16>
 8002f96:	2b01      	cmp	r3, #1
 8002f98:	d054      	beq.n	8003044 <_7SegSeven+0xbe>
			GPIO_voidSetPinValue(ACCESS_STRUCT(ptr_config,_7SegmentPins)._7SEG_C_PORT, ACCESS_STRUCT(ptr_config,_7SegmentPins)._7SEG_C_PIN, !ACCESS_STRUCT(ptr_config,_7SegmentType)) ; 
			GPIO_voidSetPinValue(ACCESS_STRUCT(ptr_config,_7SegmentPins)._7SEG_D_PORT, ACCESS_STRUCT(ptr_config,_7SegmentPins)._7SEG_D_PIN, ACCESS_STRUCT(ptr_config,_7SegmentType)) ; 		
		
		break;
	}
}
 8002f9a:	e087      	b.n	80030ac <_7SegSeven+0x126>
		 GPIO_voidSetPinValue(ACCESS_STRUCT(ptr_config,_7SegmentPins)._7SEG_A_PORT, ACCESS_STRUCT(ptr_config,_7SegmentPins)._7SEG_A_PIN, ACCESS_STRUCT(ptr_config,_7SegmentType)) ;		// A ON 
 8002f9c:	687b      	ldr	r3, [r7, #4]
 8002f9e:	7898      	ldrb	r0, [r3, #2]
 8002fa0:	687b      	ldr	r3, [r7, #4]
 8002fa2:	78d9      	ldrb	r1, [r3, #3]
 8002fa4:	687b      	ldr	r3, [r7, #4]
 8002fa6:	781b      	ldrb	r3, [r3, #0]
 8002fa8:	461a      	mov	r2, r3
 8002faa:	f000 fb5b 	bl	8003664 <GPIO_voidSetPinValue>
		 GPIO_voidSetPinValue(ACCESS_STRUCT(ptr_config,_7SegmentPins)._7SEG_B_PORT, ACCESS_STRUCT(ptr_config,_7SegmentPins)._7SEG_B_PIN, ACCESS_STRUCT(ptr_config,_7SegmentType)) ;		// B ON
 8002fae:	687b      	ldr	r3, [r7, #4]
 8002fb0:	7918      	ldrb	r0, [r3, #4]
 8002fb2:	687b      	ldr	r3, [r7, #4]
 8002fb4:	7959      	ldrb	r1, [r3, #5]
 8002fb6:	687b      	ldr	r3, [r7, #4]
 8002fb8:	781b      	ldrb	r3, [r3, #0]
 8002fba:	461a      	mov	r2, r3
 8002fbc:	f000 fb52 	bl	8003664 <GPIO_voidSetPinValue>
		 GPIO_voidSetPinValue(ACCESS_STRUCT(ptr_config,_7SegmentPins)._7SEG_C_PORT, ACCESS_STRUCT(ptr_config,_7SegmentPins)._7SEG_C_PIN, ACCESS_STRUCT(ptr_config,_7SegmentType)) ;	// C ON
 8002fc0:	687b      	ldr	r3, [r7, #4]
 8002fc2:	7998      	ldrb	r0, [r3, #6]
 8002fc4:	687b      	ldr	r3, [r7, #4]
 8002fc6:	79d9      	ldrb	r1, [r3, #7]
 8002fc8:	687b      	ldr	r3, [r7, #4]
 8002fca:	781b      	ldrb	r3, [r3, #0]
 8002fcc:	461a      	mov	r2, r3
 8002fce:	f000 fb49 	bl	8003664 <GPIO_voidSetPinValue>
		 GPIO_voidSetPinValue(ACCESS_STRUCT(ptr_config,_7SegmentPins)._7SEG_D_PORT, ACCESS_STRUCT(ptr_config,_7SegmentPins)._7SEG_D_PIN, !ACCESS_STRUCT(ptr_config,_7SegmentType)) ;		// D OFF
 8002fd2:	687b      	ldr	r3, [r7, #4]
 8002fd4:	7a18      	ldrb	r0, [r3, #8]
 8002fd6:	687b      	ldr	r3, [r7, #4]
 8002fd8:	7a59      	ldrb	r1, [r3, #9]
 8002fda:	687b      	ldr	r3, [r7, #4]
 8002fdc:	781b      	ldrb	r3, [r3, #0]
 8002fde:	2b00      	cmp	r3, #0
 8002fe0:	bf0c      	ite	eq
 8002fe2:	2301      	moveq	r3, #1
 8002fe4:	2300      	movne	r3, #0
 8002fe6:	b2db      	uxtb	r3, r3
 8002fe8:	461a      	mov	r2, r3
 8002fea:	f000 fb3b 	bl	8003664 <GPIO_voidSetPinValue>
		 GPIO_voidSetPinValue(ACCESS_STRUCT(ptr_config,_7SegmentPins)._7SEG_E_PORT, ACCESS_STRUCT(ptr_config,_7SegmentPins)._7SEG_E_PIN, !ACCESS_STRUCT(ptr_config,_7SegmentType)) ;		// E OFF
 8002fee:	687b      	ldr	r3, [r7, #4]
 8002ff0:	7a98      	ldrb	r0, [r3, #10]
 8002ff2:	687b      	ldr	r3, [r7, #4]
 8002ff4:	7ad9      	ldrb	r1, [r3, #11]
 8002ff6:	687b      	ldr	r3, [r7, #4]
 8002ff8:	781b      	ldrb	r3, [r3, #0]
 8002ffa:	2b00      	cmp	r3, #0
 8002ffc:	bf0c      	ite	eq
 8002ffe:	2301      	moveq	r3, #1
 8003000:	2300      	movne	r3, #0
 8003002:	b2db      	uxtb	r3, r3
 8003004:	461a      	mov	r2, r3
 8003006:	f000 fb2d 	bl	8003664 <GPIO_voidSetPinValue>
		 GPIO_voidSetPinValue(ACCESS_STRUCT(ptr_config,_7SegmentPins)._7SEG_F_PORT, ACCESS_STRUCT(ptr_config,_7SegmentPins)._7SEG_F_PIN, !ACCESS_STRUCT(ptr_config,_7SegmentType)) ; 	// F OFF
 800300a:	687b      	ldr	r3, [r7, #4]
 800300c:	7b18      	ldrb	r0, [r3, #12]
 800300e:	687b      	ldr	r3, [r7, #4]
 8003010:	7b59      	ldrb	r1, [r3, #13]
 8003012:	687b      	ldr	r3, [r7, #4]
 8003014:	781b      	ldrb	r3, [r3, #0]
 8003016:	2b00      	cmp	r3, #0
 8003018:	bf0c      	ite	eq
 800301a:	2301      	moveq	r3, #1
 800301c:	2300      	movne	r3, #0
 800301e:	b2db      	uxtb	r3, r3
 8003020:	461a      	mov	r2, r3
 8003022:	f000 fb1f 	bl	8003664 <GPIO_voidSetPinValue>
		 GPIO_voidSetPinValue(ACCESS_STRUCT(ptr_config,_7SegmentPins)._7SEG_G_PORT, ACCESS_STRUCT(ptr_config,_7SegmentPins)._7SEG_G_PIN, !ACCESS_STRUCT(ptr_config,_7SegmentType)) ; 	// G OFF
 8003026:	687b      	ldr	r3, [r7, #4]
 8003028:	7b98      	ldrb	r0, [r3, #14]
 800302a:	687b      	ldr	r3, [r7, #4]
 800302c:	7bd9      	ldrb	r1, [r3, #15]
 800302e:	687b      	ldr	r3, [r7, #4]
 8003030:	781b      	ldrb	r3, [r3, #0]
 8003032:	2b00      	cmp	r3, #0
 8003034:	bf0c      	ite	eq
 8003036:	2301      	moveq	r3, #1
 8003038:	2300      	movne	r3, #0
 800303a:	b2db      	uxtb	r3, r3
 800303c:	461a      	mov	r2, r3
 800303e:	f000 fb11 	bl	8003664 <GPIO_voidSetPinValue>
		break ;
 8003042:	e033      	b.n	80030ac <_7SegSeven+0x126>
			GPIO_voidSetPinValue(ACCESS_STRUCT(ptr_config,_7SegmentPins)._7SEG_A_PORT, ACCESS_STRUCT(ptr_config,_7SegmentPins)._7SEG_A_PIN, !ACCESS_STRUCT(ptr_config,_7SegmentType)) ; 
 8003044:	687b      	ldr	r3, [r7, #4]
 8003046:	7898      	ldrb	r0, [r3, #2]
 8003048:	687b      	ldr	r3, [r7, #4]
 800304a:	78d9      	ldrb	r1, [r3, #3]
 800304c:	687b      	ldr	r3, [r7, #4]
 800304e:	781b      	ldrb	r3, [r3, #0]
 8003050:	2b00      	cmp	r3, #0
 8003052:	bf0c      	ite	eq
 8003054:	2301      	moveq	r3, #1
 8003056:	2300      	movne	r3, #0
 8003058:	b2db      	uxtb	r3, r3
 800305a:	461a      	mov	r2, r3
 800305c:	f000 fb02 	bl	8003664 <GPIO_voidSetPinValue>
			GPIO_voidSetPinValue(ACCESS_STRUCT(ptr_config,_7SegmentPins)._7SEG_B_PORT, ACCESS_STRUCT(ptr_config,_7SegmentPins)._7SEG_B_PIN, !ACCESS_STRUCT(ptr_config,_7SegmentType)) ; 
 8003060:	687b      	ldr	r3, [r7, #4]
 8003062:	7918      	ldrb	r0, [r3, #4]
 8003064:	687b      	ldr	r3, [r7, #4]
 8003066:	7959      	ldrb	r1, [r3, #5]
 8003068:	687b      	ldr	r3, [r7, #4]
 800306a:	781b      	ldrb	r3, [r3, #0]
 800306c:	2b00      	cmp	r3, #0
 800306e:	bf0c      	ite	eq
 8003070:	2301      	moveq	r3, #1
 8003072:	2300      	movne	r3, #0
 8003074:	b2db      	uxtb	r3, r3
 8003076:	461a      	mov	r2, r3
 8003078:	f000 faf4 	bl	8003664 <GPIO_voidSetPinValue>
			GPIO_voidSetPinValue(ACCESS_STRUCT(ptr_config,_7SegmentPins)._7SEG_C_PORT, ACCESS_STRUCT(ptr_config,_7SegmentPins)._7SEG_C_PIN, !ACCESS_STRUCT(ptr_config,_7SegmentType)) ; 
 800307c:	687b      	ldr	r3, [r7, #4]
 800307e:	7998      	ldrb	r0, [r3, #6]
 8003080:	687b      	ldr	r3, [r7, #4]
 8003082:	79d9      	ldrb	r1, [r3, #7]
 8003084:	687b      	ldr	r3, [r7, #4]
 8003086:	781b      	ldrb	r3, [r3, #0]
 8003088:	2b00      	cmp	r3, #0
 800308a:	bf0c      	ite	eq
 800308c:	2301      	moveq	r3, #1
 800308e:	2300      	movne	r3, #0
 8003090:	b2db      	uxtb	r3, r3
 8003092:	461a      	mov	r2, r3
 8003094:	f000 fae6 	bl	8003664 <GPIO_voidSetPinValue>
			GPIO_voidSetPinValue(ACCESS_STRUCT(ptr_config,_7SegmentPins)._7SEG_D_PORT, ACCESS_STRUCT(ptr_config,_7SegmentPins)._7SEG_D_PIN, ACCESS_STRUCT(ptr_config,_7SegmentType)) ; 		
 8003098:	687b      	ldr	r3, [r7, #4]
 800309a:	7a18      	ldrb	r0, [r3, #8]
 800309c:	687b      	ldr	r3, [r7, #4]
 800309e:	7a59      	ldrb	r1, [r3, #9]
 80030a0:	687b      	ldr	r3, [r7, #4]
 80030a2:	781b      	ldrb	r3, [r3, #0]
 80030a4:	461a      	mov	r2, r3
 80030a6:	f000 fadd 	bl	8003664 <GPIO_voidSetPinValue>
		break;
 80030aa:	bf00      	nop
}
 80030ac:	bf00      	nop
 80030ae:	3708      	adds	r7, #8
 80030b0:	46bd      	mov	sp, r7
 80030b2:	bd80      	pop	{r7, pc}

080030b4 <_7SegEight>:
static void _7SegEight (_7Segment_Config* ptr_config) 
{
 80030b4:	b580      	push	{r7, lr}
 80030b6:	b082      	sub	sp, #8
 80030b8:	af00      	add	r7, sp, #0
 80030ba:	6078      	str	r0, [r7, #4]
	switch(ACCESS_STRUCT(ptr_config,_7SegmentMode))
 80030bc:	687b      	ldr	r3, [r7, #4]
 80030be:	785b      	ldrb	r3, [r3, #1]
 80030c0:	2b00      	cmp	r3, #0
 80030c2:	d002      	beq.n	80030ca <_7SegEight+0x16>
 80030c4:	2b01      	cmp	r3, #1
 80030c6:	d040      	beq.n	800314a <_7SegEight+0x96>
			GPIO_voidSetPinValue(ACCESS_STRUCT(ptr_config,_7SegmentPins)._7SEG_C_PORT, ACCESS_STRUCT(ptr_config,_7SegmentPins)._7SEG_C_PIN, ACCESS_STRUCT(ptr_config,_7SegmentType)) ; 
			GPIO_voidSetPinValue(ACCESS_STRUCT(ptr_config,_7SegmentPins)._7SEG_D_PORT, ACCESS_STRUCT(ptr_config,_7SegmentPins)._7SEG_D_PIN, !ACCESS_STRUCT(ptr_config,_7SegmentType)) ; 		
		
		break;
	}
}
 80030c8:	e069      	b.n	800319e <_7SegEight+0xea>
		 GPIO_voidSetPinValue(ACCESS_STRUCT(ptr_config,_7SegmentPins)._7SEG_A_PORT, ACCESS_STRUCT(ptr_config,_7SegmentPins)._7SEG_A_PIN, ACCESS_STRUCT(ptr_config,_7SegmentType)) ;		// A ON 
 80030ca:	687b      	ldr	r3, [r7, #4]
 80030cc:	7898      	ldrb	r0, [r3, #2]
 80030ce:	687b      	ldr	r3, [r7, #4]
 80030d0:	78d9      	ldrb	r1, [r3, #3]
 80030d2:	687b      	ldr	r3, [r7, #4]
 80030d4:	781b      	ldrb	r3, [r3, #0]
 80030d6:	461a      	mov	r2, r3
 80030d8:	f000 fac4 	bl	8003664 <GPIO_voidSetPinValue>
		 GPIO_voidSetPinValue(ACCESS_STRUCT(ptr_config,_7SegmentPins)._7SEG_B_PORT, ACCESS_STRUCT(ptr_config,_7SegmentPins)._7SEG_B_PIN, ACCESS_STRUCT(ptr_config,_7SegmentType)) ;		// B ON
 80030dc:	687b      	ldr	r3, [r7, #4]
 80030de:	7918      	ldrb	r0, [r3, #4]
 80030e0:	687b      	ldr	r3, [r7, #4]
 80030e2:	7959      	ldrb	r1, [r3, #5]
 80030e4:	687b      	ldr	r3, [r7, #4]
 80030e6:	781b      	ldrb	r3, [r3, #0]
 80030e8:	461a      	mov	r2, r3
 80030ea:	f000 fabb 	bl	8003664 <GPIO_voidSetPinValue>
		 GPIO_voidSetPinValue(ACCESS_STRUCT(ptr_config,_7SegmentPins)._7SEG_C_PORT, ACCESS_STRUCT(ptr_config,_7SegmentPins)._7SEG_C_PIN, ACCESS_STRUCT(ptr_config,_7SegmentType)) ;	// C ON
 80030ee:	687b      	ldr	r3, [r7, #4]
 80030f0:	7998      	ldrb	r0, [r3, #6]
 80030f2:	687b      	ldr	r3, [r7, #4]
 80030f4:	79d9      	ldrb	r1, [r3, #7]
 80030f6:	687b      	ldr	r3, [r7, #4]
 80030f8:	781b      	ldrb	r3, [r3, #0]
 80030fa:	461a      	mov	r2, r3
 80030fc:	f000 fab2 	bl	8003664 <GPIO_voidSetPinValue>
		 GPIO_voidSetPinValue(ACCESS_STRUCT(ptr_config,_7SegmentPins)._7SEG_D_PORT, ACCESS_STRUCT(ptr_config,_7SegmentPins)._7SEG_D_PIN, ACCESS_STRUCT(ptr_config,_7SegmentType)) ;		// D ON
 8003100:	687b      	ldr	r3, [r7, #4]
 8003102:	7a18      	ldrb	r0, [r3, #8]
 8003104:	687b      	ldr	r3, [r7, #4]
 8003106:	7a59      	ldrb	r1, [r3, #9]
 8003108:	687b      	ldr	r3, [r7, #4]
 800310a:	781b      	ldrb	r3, [r3, #0]
 800310c:	461a      	mov	r2, r3
 800310e:	f000 faa9 	bl	8003664 <GPIO_voidSetPinValue>
		 GPIO_voidSetPinValue(ACCESS_STRUCT(ptr_config,_7SegmentPins)._7SEG_E_PORT, ACCESS_STRUCT(ptr_config,_7SegmentPins)._7SEG_E_PIN, ACCESS_STRUCT(ptr_config,_7SegmentType)) ;		// E ON
 8003112:	687b      	ldr	r3, [r7, #4]
 8003114:	7a98      	ldrb	r0, [r3, #10]
 8003116:	687b      	ldr	r3, [r7, #4]
 8003118:	7ad9      	ldrb	r1, [r3, #11]
 800311a:	687b      	ldr	r3, [r7, #4]
 800311c:	781b      	ldrb	r3, [r3, #0]
 800311e:	461a      	mov	r2, r3
 8003120:	f000 faa0 	bl	8003664 <GPIO_voidSetPinValue>
		 GPIO_voidSetPinValue(ACCESS_STRUCT(ptr_config,_7SegmentPins)._7SEG_F_PORT, ACCESS_STRUCT(ptr_config,_7SegmentPins)._7SEG_F_PIN, ACCESS_STRUCT(ptr_config,_7SegmentType)) ; 	// F ON
 8003124:	687b      	ldr	r3, [r7, #4]
 8003126:	7b18      	ldrb	r0, [r3, #12]
 8003128:	687b      	ldr	r3, [r7, #4]
 800312a:	7b59      	ldrb	r1, [r3, #13]
 800312c:	687b      	ldr	r3, [r7, #4]
 800312e:	781b      	ldrb	r3, [r3, #0]
 8003130:	461a      	mov	r2, r3
 8003132:	f000 fa97 	bl	8003664 <GPIO_voidSetPinValue>
		 GPIO_voidSetPinValue(ACCESS_STRUCT(ptr_config,_7SegmentPins)._7SEG_G_PORT, ACCESS_STRUCT(ptr_config,_7SegmentPins)._7SEG_G_PIN, ACCESS_STRUCT(ptr_config,_7SegmentType)) ; 	// G ON
 8003136:	687b      	ldr	r3, [r7, #4]
 8003138:	7b98      	ldrb	r0, [r3, #14]
 800313a:	687b      	ldr	r3, [r7, #4]
 800313c:	7bd9      	ldrb	r1, [r3, #15]
 800313e:	687b      	ldr	r3, [r7, #4]
 8003140:	781b      	ldrb	r3, [r3, #0]
 8003142:	461a      	mov	r2, r3
 8003144:	f000 fa8e 	bl	8003664 <GPIO_voidSetPinValue>
		break ;
 8003148:	e029      	b.n	800319e <_7SegEight+0xea>
			GPIO_voidSetPinValue(ACCESS_STRUCT(ptr_config,_7SegmentPins)._7SEG_A_PORT, ACCESS_STRUCT(ptr_config,_7SegmentPins)._7SEG_A_PIN, ACCESS_STRUCT(ptr_config,_7SegmentType)) ; 
 800314a:	687b      	ldr	r3, [r7, #4]
 800314c:	7898      	ldrb	r0, [r3, #2]
 800314e:	687b      	ldr	r3, [r7, #4]
 8003150:	78d9      	ldrb	r1, [r3, #3]
 8003152:	687b      	ldr	r3, [r7, #4]
 8003154:	781b      	ldrb	r3, [r3, #0]
 8003156:	461a      	mov	r2, r3
 8003158:	f000 fa84 	bl	8003664 <GPIO_voidSetPinValue>
			GPIO_voidSetPinValue(ACCESS_STRUCT(ptr_config,_7SegmentPins)._7SEG_B_PORT, ACCESS_STRUCT(ptr_config,_7SegmentPins)._7SEG_B_PIN, ACCESS_STRUCT(ptr_config,_7SegmentType)) ; 
 800315c:	687b      	ldr	r3, [r7, #4]
 800315e:	7918      	ldrb	r0, [r3, #4]
 8003160:	687b      	ldr	r3, [r7, #4]
 8003162:	7959      	ldrb	r1, [r3, #5]
 8003164:	687b      	ldr	r3, [r7, #4]
 8003166:	781b      	ldrb	r3, [r3, #0]
 8003168:	461a      	mov	r2, r3
 800316a:	f000 fa7b 	bl	8003664 <GPIO_voidSetPinValue>
			GPIO_voidSetPinValue(ACCESS_STRUCT(ptr_config,_7SegmentPins)._7SEG_C_PORT, ACCESS_STRUCT(ptr_config,_7SegmentPins)._7SEG_C_PIN, ACCESS_STRUCT(ptr_config,_7SegmentType)) ; 
 800316e:	687b      	ldr	r3, [r7, #4]
 8003170:	7998      	ldrb	r0, [r3, #6]
 8003172:	687b      	ldr	r3, [r7, #4]
 8003174:	79d9      	ldrb	r1, [r3, #7]
 8003176:	687b      	ldr	r3, [r7, #4]
 8003178:	781b      	ldrb	r3, [r3, #0]
 800317a:	461a      	mov	r2, r3
 800317c:	f000 fa72 	bl	8003664 <GPIO_voidSetPinValue>
			GPIO_voidSetPinValue(ACCESS_STRUCT(ptr_config,_7SegmentPins)._7SEG_D_PORT, ACCESS_STRUCT(ptr_config,_7SegmentPins)._7SEG_D_PIN, !ACCESS_STRUCT(ptr_config,_7SegmentType)) ; 		
 8003180:	687b      	ldr	r3, [r7, #4]
 8003182:	7a18      	ldrb	r0, [r3, #8]
 8003184:	687b      	ldr	r3, [r7, #4]
 8003186:	7a59      	ldrb	r1, [r3, #9]
 8003188:	687b      	ldr	r3, [r7, #4]
 800318a:	781b      	ldrb	r3, [r3, #0]
 800318c:	2b00      	cmp	r3, #0
 800318e:	bf0c      	ite	eq
 8003190:	2301      	moveq	r3, #1
 8003192:	2300      	movne	r3, #0
 8003194:	b2db      	uxtb	r3, r3
 8003196:	461a      	mov	r2, r3
 8003198:	f000 fa64 	bl	8003664 <GPIO_voidSetPinValue>
		break;
 800319c:	bf00      	nop
}
 800319e:	bf00      	nop
 80031a0:	3708      	adds	r7, #8
 80031a2:	46bd      	mov	sp, r7
 80031a4:	bd80      	pop	{r7, pc}

080031a6 <_7SegNine>:
static void _7SegNine  (_7Segment_Config* ptr_config) 
{
 80031a6:	b580      	push	{r7, lr}
 80031a8:	b082      	sub	sp, #8
 80031aa:	af00      	add	r7, sp, #0
 80031ac:	6078      	str	r0, [r7, #4]
	switch(ACCESS_STRUCT(ptr_config,_7SegmentMode))
 80031ae:	687b      	ldr	r3, [r7, #4]
 80031b0:	785b      	ldrb	r3, [r3, #1]
 80031b2:	2b00      	cmp	r3, #0
 80031b4:	d002      	beq.n	80031bc <_7SegNine+0x16>
 80031b6:	2b01      	cmp	r3, #1
 80031b8:	d045      	beq.n	8003246 <_7SegNine+0xa0>
			GPIO_voidSetPinValue(ACCESS_STRUCT(ptr_config,_7SegmentPins)._7SEG_C_PORT, ACCESS_STRUCT(ptr_config,_7SegmentPins)._7SEG_C_PIN, ACCESS_STRUCT(ptr_config,_7SegmentType)) ; 
			GPIO_voidSetPinValue(ACCESS_STRUCT(ptr_config,_7SegmentPins)._7SEG_D_PORT, ACCESS_STRUCT(ptr_config,_7SegmentPins)._7SEG_D_PIN, !ACCESS_STRUCT(ptr_config,_7SegmentType)) ; 		
		
		break;
	}
}
 80031ba:	e073      	b.n	80032a4 <_7SegNine+0xfe>
		 GPIO_voidSetPinValue(ACCESS_STRUCT(ptr_config,_7SegmentPins)._7SEG_A_PORT, ACCESS_STRUCT(ptr_config,_7SegmentPins)._7SEG_A_PIN, ACCESS_STRUCT(ptr_config,_7SegmentType)) ;		// A ON 
 80031bc:	687b      	ldr	r3, [r7, #4]
 80031be:	7898      	ldrb	r0, [r3, #2]
 80031c0:	687b      	ldr	r3, [r7, #4]
 80031c2:	78d9      	ldrb	r1, [r3, #3]
 80031c4:	687b      	ldr	r3, [r7, #4]
 80031c6:	781b      	ldrb	r3, [r3, #0]
 80031c8:	461a      	mov	r2, r3
 80031ca:	f000 fa4b 	bl	8003664 <GPIO_voidSetPinValue>
		 GPIO_voidSetPinValue(ACCESS_STRUCT(ptr_config,_7SegmentPins)._7SEG_B_PORT, ACCESS_STRUCT(ptr_config,_7SegmentPins)._7SEG_B_PIN, ACCESS_STRUCT(ptr_config,_7SegmentType)) ;		// B ON
 80031ce:	687b      	ldr	r3, [r7, #4]
 80031d0:	7918      	ldrb	r0, [r3, #4]
 80031d2:	687b      	ldr	r3, [r7, #4]
 80031d4:	7959      	ldrb	r1, [r3, #5]
 80031d6:	687b      	ldr	r3, [r7, #4]
 80031d8:	781b      	ldrb	r3, [r3, #0]
 80031da:	461a      	mov	r2, r3
 80031dc:	f000 fa42 	bl	8003664 <GPIO_voidSetPinValue>
		 GPIO_voidSetPinValue(ACCESS_STRUCT(ptr_config,_7SegmentPins)._7SEG_C_PORT, ACCESS_STRUCT(ptr_config,_7SegmentPins)._7SEG_C_PIN, ACCESS_STRUCT(ptr_config,_7SegmentType)) ;	// C ON
 80031e0:	687b      	ldr	r3, [r7, #4]
 80031e2:	7998      	ldrb	r0, [r3, #6]
 80031e4:	687b      	ldr	r3, [r7, #4]
 80031e6:	79d9      	ldrb	r1, [r3, #7]
 80031e8:	687b      	ldr	r3, [r7, #4]
 80031ea:	781b      	ldrb	r3, [r3, #0]
 80031ec:	461a      	mov	r2, r3
 80031ee:	f000 fa39 	bl	8003664 <GPIO_voidSetPinValue>
		 GPIO_voidSetPinValue(ACCESS_STRUCT(ptr_config,_7SegmentPins)._7SEG_D_PORT, ACCESS_STRUCT(ptr_config,_7SegmentPins)._7SEG_D_PIN, ACCESS_STRUCT(ptr_config,_7SegmentType)) ;		// D ON
 80031f2:	687b      	ldr	r3, [r7, #4]
 80031f4:	7a18      	ldrb	r0, [r3, #8]
 80031f6:	687b      	ldr	r3, [r7, #4]
 80031f8:	7a59      	ldrb	r1, [r3, #9]
 80031fa:	687b      	ldr	r3, [r7, #4]
 80031fc:	781b      	ldrb	r3, [r3, #0]
 80031fe:	461a      	mov	r2, r3
 8003200:	f000 fa30 	bl	8003664 <GPIO_voidSetPinValue>
		 GPIO_voidSetPinValue(ACCESS_STRUCT(ptr_config,_7SegmentPins)._7SEG_E_PORT, ACCESS_STRUCT(ptr_config,_7SegmentPins)._7SEG_E_PIN, !ACCESS_STRUCT(ptr_config,_7SegmentType)) ;		// E OFF
 8003204:	687b      	ldr	r3, [r7, #4]
 8003206:	7a98      	ldrb	r0, [r3, #10]
 8003208:	687b      	ldr	r3, [r7, #4]
 800320a:	7ad9      	ldrb	r1, [r3, #11]
 800320c:	687b      	ldr	r3, [r7, #4]
 800320e:	781b      	ldrb	r3, [r3, #0]
 8003210:	2b00      	cmp	r3, #0
 8003212:	bf0c      	ite	eq
 8003214:	2301      	moveq	r3, #1
 8003216:	2300      	movne	r3, #0
 8003218:	b2db      	uxtb	r3, r3
 800321a:	461a      	mov	r2, r3
 800321c:	f000 fa22 	bl	8003664 <GPIO_voidSetPinValue>
		 GPIO_voidSetPinValue(ACCESS_STRUCT(ptr_config,_7SegmentPins)._7SEG_F_PORT, ACCESS_STRUCT(ptr_config,_7SegmentPins)._7SEG_F_PIN, ACCESS_STRUCT(ptr_config,_7SegmentType)) ; 	// F ON
 8003220:	687b      	ldr	r3, [r7, #4]
 8003222:	7b18      	ldrb	r0, [r3, #12]
 8003224:	687b      	ldr	r3, [r7, #4]
 8003226:	7b59      	ldrb	r1, [r3, #13]
 8003228:	687b      	ldr	r3, [r7, #4]
 800322a:	781b      	ldrb	r3, [r3, #0]
 800322c:	461a      	mov	r2, r3
 800322e:	f000 fa19 	bl	8003664 <GPIO_voidSetPinValue>
		 GPIO_voidSetPinValue(ACCESS_STRUCT(ptr_config,_7SegmentPins)._7SEG_G_PORT, ACCESS_STRUCT(ptr_config,_7SegmentPins)._7SEG_G_PIN, ACCESS_STRUCT(ptr_config,_7SegmentType)) ; 	// G ON
 8003232:	687b      	ldr	r3, [r7, #4]
 8003234:	7b98      	ldrb	r0, [r3, #14]
 8003236:	687b      	ldr	r3, [r7, #4]
 8003238:	7bd9      	ldrb	r1, [r3, #15]
 800323a:	687b      	ldr	r3, [r7, #4]
 800323c:	781b      	ldrb	r3, [r3, #0]
 800323e:	461a      	mov	r2, r3
 8003240:	f000 fa10 	bl	8003664 <GPIO_voidSetPinValue>
		break ;
 8003244:	e02e      	b.n	80032a4 <_7SegNine+0xfe>
			GPIO_voidSetPinValue(ACCESS_STRUCT(ptr_config,_7SegmentPins)._7SEG_A_PORT, ACCESS_STRUCT(ptr_config,_7SegmentPins)._7SEG_A_PIN, !ACCESS_STRUCT(ptr_config,_7SegmentType)) ; 
 8003246:	687b      	ldr	r3, [r7, #4]
 8003248:	7898      	ldrb	r0, [r3, #2]
 800324a:	687b      	ldr	r3, [r7, #4]
 800324c:	78d9      	ldrb	r1, [r3, #3]
 800324e:	687b      	ldr	r3, [r7, #4]
 8003250:	781b      	ldrb	r3, [r3, #0]
 8003252:	2b00      	cmp	r3, #0
 8003254:	bf0c      	ite	eq
 8003256:	2301      	moveq	r3, #1
 8003258:	2300      	movne	r3, #0
 800325a:	b2db      	uxtb	r3, r3
 800325c:	461a      	mov	r2, r3
 800325e:	f000 fa01 	bl	8003664 <GPIO_voidSetPinValue>
			GPIO_voidSetPinValue(ACCESS_STRUCT(ptr_config,_7SegmentPins)._7SEG_B_PORT, ACCESS_STRUCT(ptr_config,_7SegmentPins)._7SEG_B_PIN, ACCESS_STRUCT(ptr_config,_7SegmentType)) ; 
 8003262:	687b      	ldr	r3, [r7, #4]
 8003264:	7918      	ldrb	r0, [r3, #4]
 8003266:	687b      	ldr	r3, [r7, #4]
 8003268:	7959      	ldrb	r1, [r3, #5]
 800326a:	687b      	ldr	r3, [r7, #4]
 800326c:	781b      	ldrb	r3, [r3, #0]
 800326e:	461a      	mov	r2, r3
 8003270:	f000 f9f8 	bl	8003664 <GPIO_voidSetPinValue>
			GPIO_voidSetPinValue(ACCESS_STRUCT(ptr_config,_7SegmentPins)._7SEG_C_PORT, ACCESS_STRUCT(ptr_config,_7SegmentPins)._7SEG_C_PIN, ACCESS_STRUCT(ptr_config,_7SegmentType)) ; 
 8003274:	687b      	ldr	r3, [r7, #4]
 8003276:	7998      	ldrb	r0, [r3, #6]
 8003278:	687b      	ldr	r3, [r7, #4]
 800327a:	79d9      	ldrb	r1, [r3, #7]
 800327c:	687b      	ldr	r3, [r7, #4]
 800327e:	781b      	ldrb	r3, [r3, #0]
 8003280:	461a      	mov	r2, r3
 8003282:	f000 f9ef 	bl	8003664 <GPIO_voidSetPinValue>
			GPIO_voidSetPinValue(ACCESS_STRUCT(ptr_config,_7SegmentPins)._7SEG_D_PORT, ACCESS_STRUCT(ptr_config,_7SegmentPins)._7SEG_D_PIN, !ACCESS_STRUCT(ptr_config,_7SegmentType)) ; 		
 8003286:	687b      	ldr	r3, [r7, #4]
 8003288:	7a18      	ldrb	r0, [r3, #8]
 800328a:	687b      	ldr	r3, [r7, #4]
 800328c:	7a59      	ldrb	r1, [r3, #9]
 800328e:	687b      	ldr	r3, [r7, #4]
 8003290:	781b      	ldrb	r3, [r3, #0]
 8003292:	2b00      	cmp	r3, #0
 8003294:	bf0c      	ite	eq
 8003296:	2301      	moveq	r3, #1
 8003298:	2300      	movne	r3, #0
 800329a:	b2db      	uxtb	r3, r3
 800329c:	461a      	mov	r2, r3
 800329e:	f000 f9e1 	bl	8003664 <GPIO_voidSetPinValue>
		break;
 80032a2:	bf00      	nop
}
 80032a4:	bf00      	nop
 80032a6:	3708      	adds	r7, #8
 80032a8:	46bd      	mov	sp, r7
 80032aa:	bd80      	pop	{r7, pc}

080032ac <AFIO_voidEXTIConfiguration>:
/******************************************************************************
* Function Definitions
*******************************************************************************/

void AFIO_voidEXTIConfiguration(EXTI_Lines Copy_LineID , u8 Copy_u8PortNumber)
{
 80032ac:	b480      	push	{r7}
 80032ae:	b085      	sub	sp, #20
 80032b0:	af00      	add	r7, sp, #0
 80032b2:	4603      	mov	r3, r0
 80032b4:	460a      	mov	r2, r1
 80032b6:	71fb      	strb	r3, [r7, #7]
 80032b8:	4613      	mov	r3, r2
 80032ba:	71bb      	strb	r3, [r7, #6]
    Copy_u8PortNumber = Copy_u8PortNumber - PORTA ; // Ex PORTB = 3 = 3 - 2 = 1 
 80032bc:	79bb      	ldrb	r3, [r7, #6]
 80032be:	3b02      	subs	r3, #2
 80032c0:	71bb      	strb	r3, [r7, #6]
    u8 LOC_u8IntIndex = 0  ; 
 80032c2:	2300      	movs	r3, #0
 80032c4:	73fb      	strb	r3, [r7, #15]
    u8 LOC_u8LinePosition = 0  ; 
 80032c6:	2300      	movs	r3, #0
 80032c8:	73bb      	strb	r3, [r7, #14]
    LOC_u8IntIndex = Copy_LineID / 4 ;
 80032ca:	79fb      	ldrb	r3, [r7, #7]
 80032cc:	089b      	lsrs	r3, r3, #2
 80032ce:	73fb      	strb	r3, [r7, #15]
    LOC_u8LinePosition = Copy_LineID % 4 ;  
 80032d0:	79fb      	ldrb	r3, [r7, #7]
 80032d2:	f003 0303 	and.w	r3, r3, #3
 80032d6:	73bb      	strb	r3, [r7, #14]
    /*			RESET		*/
	AFIO -> AFIO_EXTICR[LOC_u8IntIndex] &=~((0b1111)<<(LOC_u8LinePosition));
 80032d8:	4a12      	ldr	r2, [pc, #72]	; (8003324 <AFIO_voidEXTIConfiguration+0x78>)
 80032da:	7bfb      	ldrb	r3, [r7, #15]
 80032dc:	3302      	adds	r3, #2
 80032de:	f852 2023 	ldr.w	r2, [r2, r3, lsl #2]
 80032e2:	7bbb      	ldrb	r3, [r7, #14]
 80032e4:	210f      	movs	r1, #15
 80032e6:	fa01 f303 	lsl.w	r3, r1, r3
 80032ea:	43db      	mvns	r3, r3
 80032ec:	4618      	mov	r0, r3
 80032ee:	490d      	ldr	r1, [pc, #52]	; (8003324 <AFIO_voidEXTIConfiguration+0x78>)
 80032f0:	7bfb      	ldrb	r3, [r7, #15]
 80032f2:	4002      	ands	r2, r0
 80032f4:	3302      	adds	r3, #2
 80032f6:	f841 2023 	str.w	r2, [r1, r3, lsl #2]
	/*			ASSIGN		*/
	AFIO -> AFIO_EXTICR[LOC_u8IntIndex]  |= ((Copy_u8PortNumber)<<(LOC_u8LinePosition));
 80032fa:	4a0a      	ldr	r2, [pc, #40]	; (8003324 <AFIO_voidEXTIConfiguration+0x78>)
 80032fc:	7bfb      	ldrb	r3, [r7, #15]
 80032fe:	3302      	adds	r3, #2
 8003300:	f852 2023 	ldr.w	r2, [r2, r3, lsl #2]
 8003304:	79b9      	ldrb	r1, [r7, #6]
 8003306:	7bbb      	ldrb	r3, [r7, #14]
 8003308:	fa01 f303 	lsl.w	r3, r1, r3
 800330c:	4618      	mov	r0, r3
 800330e:	4905      	ldr	r1, [pc, #20]	; (8003324 <AFIO_voidEXTIConfiguration+0x78>)
 8003310:	7bfb      	ldrb	r3, [r7, #15]
 8003312:	4302      	orrs	r2, r0
 8003314:	3302      	adds	r3, #2
 8003316:	f841 2023 	str.w	r2, [r1, r3, lsl #2]
}
 800331a:	bf00      	nop
 800331c:	3714      	adds	r7, #20
 800331e:	46bd      	mov	sp, r7
 8003320:	bc80      	pop	{r7}
 8003322:	4770      	bx	lr
 8003324:	40010400 	.word	0x40010400

08003328 <EXTI_voidInitLine>:
/******************************************************************************
* Function Definitions
*******************************************************************************/

void EXTI_voidInitLine(EXTI_Lines copy_LineID , EXTI_CapturingMode copy_SetModeOfIRQ)
{
 8003328:	b480      	push	{r7}
 800332a:	b083      	sub	sp, #12
 800332c:	af00      	add	r7, sp, #0
 800332e:	4603      	mov	r3, r0
 8003330:	460a      	mov	r2, r1
 8003332:	71fb      	strb	r3, [r7, #7]
 8003334:	4613      	mov	r3, r2
 8003336:	71bb      	strb	r3, [r7, #6]
    switch (copy_SetModeOfIRQ)
 8003338:	79bb      	ldrb	r3, [r7, #6]
 800333a:	2b01      	cmp	r3, #1
 800333c:	d019      	beq.n	8003372 <EXTI_voidInitLine+0x4a>
 800333e:	2b02      	cmp	r3, #2
 8003340:	d02c      	beq.n	800339c <EXTI_voidInitLine+0x74>
 8003342:	2b00      	cmp	r3, #0
 8003344:	d000      	beq.n	8003348 <EXTI_voidInitLine+0x20>
    case EXTI_ON_CHANGE: 
    SET_BIT(EXTI->RTSR , copy_LineID);
    SET_BIT(EXTI->FTSR , copy_LineID);
    default:
        // <TODO> ERROR
        break;
 8003346:	e03d      	b.n	80033c4 <EXTI_voidInitLine+0x9c>
    CLR_BIT(EXTI->FTSR , copy_LineID);
 8003348:	4b21      	ldr	r3, [pc, #132]	; (80033d0 <EXTI_voidInitLine+0xa8>)
 800334a:	68db      	ldr	r3, [r3, #12]
 800334c:	79fa      	ldrb	r2, [r7, #7]
 800334e:	2101      	movs	r1, #1
 8003350:	fa01 f202 	lsl.w	r2, r1, r2
 8003354:	43d2      	mvns	r2, r2
 8003356:	4611      	mov	r1, r2
 8003358:	4a1d      	ldr	r2, [pc, #116]	; (80033d0 <EXTI_voidInitLine+0xa8>)
 800335a:	400b      	ands	r3, r1
 800335c:	60d3      	str	r3, [r2, #12]
    SET_BIT(EXTI->RTSR , copy_LineID);
 800335e:	4b1c      	ldr	r3, [pc, #112]	; (80033d0 <EXTI_voidInitLine+0xa8>)
 8003360:	689b      	ldr	r3, [r3, #8]
 8003362:	79fa      	ldrb	r2, [r7, #7]
 8003364:	2101      	movs	r1, #1
 8003366:	fa01 f202 	lsl.w	r2, r1, r2
 800336a:	4611      	mov	r1, r2
 800336c:	4a18      	ldr	r2, [pc, #96]	; (80033d0 <EXTI_voidInitLine+0xa8>)
 800336e:	430b      	orrs	r3, r1
 8003370:	6093      	str	r3, [r2, #8]
    SET_BIT(EXTI->FTSR , copy_LineID);
 8003372:	4b17      	ldr	r3, [pc, #92]	; (80033d0 <EXTI_voidInitLine+0xa8>)
 8003374:	68db      	ldr	r3, [r3, #12]
 8003376:	79fa      	ldrb	r2, [r7, #7]
 8003378:	2101      	movs	r1, #1
 800337a:	fa01 f202 	lsl.w	r2, r1, r2
 800337e:	4611      	mov	r1, r2
 8003380:	4a13      	ldr	r2, [pc, #76]	; (80033d0 <EXTI_voidInitLine+0xa8>)
 8003382:	430b      	orrs	r3, r1
 8003384:	60d3      	str	r3, [r2, #12]
    CLR_BIT(EXTI->RTSR , copy_LineID);
 8003386:	4b12      	ldr	r3, [pc, #72]	; (80033d0 <EXTI_voidInitLine+0xa8>)
 8003388:	689b      	ldr	r3, [r3, #8]
 800338a:	79fa      	ldrb	r2, [r7, #7]
 800338c:	2101      	movs	r1, #1
 800338e:	fa01 f202 	lsl.w	r2, r1, r2
 8003392:	43d2      	mvns	r2, r2
 8003394:	4611      	mov	r1, r2
 8003396:	4a0e      	ldr	r2, [pc, #56]	; (80033d0 <EXTI_voidInitLine+0xa8>)
 8003398:	400b      	ands	r3, r1
 800339a:	6093      	str	r3, [r2, #8]
    SET_BIT(EXTI->RTSR , copy_LineID);
 800339c:	4b0c      	ldr	r3, [pc, #48]	; (80033d0 <EXTI_voidInitLine+0xa8>)
 800339e:	689b      	ldr	r3, [r3, #8]
 80033a0:	79fa      	ldrb	r2, [r7, #7]
 80033a2:	2101      	movs	r1, #1
 80033a4:	fa01 f202 	lsl.w	r2, r1, r2
 80033a8:	4611      	mov	r1, r2
 80033aa:	4a09      	ldr	r2, [pc, #36]	; (80033d0 <EXTI_voidInitLine+0xa8>)
 80033ac:	430b      	orrs	r3, r1
 80033ae:	6093      	str	r3, [r2, #8]
    SET_BIT(EXTI->FTSR , copy_LineID);
 80033b0:	4b07      	ldr	r3, [pc, #28]	; (80033d0 <EXTI_voidInitLine+0xa8>)
 80033b2:	68db      	ldr	r3, [r3, #12]
 80033b4:	79fa      	ldrb	r2, [r7, #7]
 80033b6:	2101      	movs	r1, #1
 80033b8:	fa01 f202 	lsl.w	r2, r1, r2
 80033bc:	4611      	mov	r1, r2
 80033be:	4a04      	ldr	r2, [pc, #16]	; (80033d0 <EXTI_voidInitLine+0xa8>)
 80033c0:	430b      	orrs	r3, r1
 80033c2:	60d3      	str	r3, [r2, #12]
        break;
 80033c4:	bf00      	nop
    }
}
 80033c6:	bf00      	nop
 80033c8:	370c      	adds	r7, #12
 80033ca:	46bd      	mov	sp, r7
 80033cc:	bc80      	pop	{r7}
 80033ce:	4770      	bx	lr
 80033d0:	40010400 	.word	0x40010400

080033d4 <EXTI_voidEnableEXTI>:


void EXTI_voidEnableEXTI(EXTI_Lines copy_LineID)
{
 80033d4:	b480      	push	{r7}
 80033d6:	b083      	sub	sp, #12
 80033d8:	af00      	add	r7, sp, #0
 80033da:	4603      	mov	r3, r0
 80033dc:	71fb      	strb	r3, [r7, #7]
    SET_BIT((EXTI->IMR) , copy_LineID );
 80033de:	4b07      	ldr	r3, [pc, #28]	; (80033fc <EXTI_voidEnableEXTI+0x28>)
 80033e0:	681b      	ldr	r3, [r3, #0]
 80033e2:	79fa      	ldrb	r2, [r7, #7]
 80033e4:	2101      	movs	r1, #1
 80033e6:	fa01 f202 	lsl.w	r2, r1, r2
 80033ea:	4611      	mov	r1, r2
 80033ec:	4a03      	ldr	r2, [pc, #12]	; (80033fc <EXTI_voidEnableEXTI+0x28>)
 80033ee:	430b      	orrs	r3, r1
 80033f0:	6013      	str	r3, [r2, #0]
}
 80033f2:	bf00      	nop
 80033f4:	370c      	adds	r7, #12
 80033f6:	46bd      	mov	sp, r7
 80033f8:	bc80      	pop	{r7}
 80033fa:	4770      	bx	lr
 80033fc:	40010400 	.word	0x40010400

08003400 <EXTI_voidSetCallBackFCN>:
{
    EXTI_voidInitLine(copy_LineID,copy_SetModeOfIRQ);
}

void EXTI_voidSetCallBackFCN(EXTI_Lines copy_LineID , EXTI_voidPtrToFunction ptr_ISRFunc)
{
 8003400:	b480      	push	{r7}
 8003402:	b083      	sub	sp, #12
 8003404:	af00      	add	r7, sp, #0
 8003406:	4603      	mov	r3, r0
 8003408:	6039      	str	r1, [r7, #0]
 800340a:	71fb      	strb	r3, [r7, #7]
    EXTI_PtrFunction[copy_LineID] = ptr_ISRFunc ; 
 800340c:	79fb      	ldrb	r3, [r7, #7]
 800340e:	4904      	ldr	r1, [pc, #16]	; (8003420 <EXTI_voidSetCallBackFCN+0x20>)
 8003410:	683a      	ldr	r2, [r7, #0]
 8003412:	f841 2023 	str.w	r2, [r1, r3, lsl #2]
}
 8003416:	bf00      	nop
 8003418:	370c      	adds	r7, #12
 800341a:	46bd      	mov	sp, r7
 800341c:	bc80      	pop	{r7}
 800341e:	4770      	bx	lr
 8003420:	200000dc 	.word	0x200000dc

08003424 <EXTI0_IRQHandler>:

/************************************* Callback Functions   ********************************/
   void EXTI0_IRQHandler(void)
  {
 8003424:	b580      	push	{r7, lr}
 8003426:	af00      	add	r7, sp, #0
    EXTI_PtrFunction[0]();
 8003428:	4b05      	ldr	r3, [pc, #20]	; (8003440 <EXTI0_IRQHandler+0x1c>)
 800342a:	681b      	ldr	r3, [r3, #0]
 800342c:	4798      	blx	r3
    /*	CLR Pending Flag	*/
    EXTI->PR |= (1<<0);
 800342e:	4b05      	ldr	r3, [pc, #20]	; (8003444 <EXTI0_IRQHandler+0x20>)
 8003430:	695b      	ldr	r3, [r3, #20]
 8003432:	4a04      	ldr	r2, [pc, #16]	; (8003444 <EXTI0_IRQHandler+0x20>)
 8003434:	f043 0301 	orr.w	r3, r3, #1
 8003438:	6153      	str	r3, [r2, #20]

  }
 800343a:	bf00      	nop
 800343c:	bd80      	pop	{r7, pc}
 800343e:	bf00      	nop
 8003440:	200000dc 	.word	0x200000dc
 8003444:	40010400 	.word	0x40010400

08003448 <EXTI1_IRQHandler>:
   void EXTI1_IRQHandler(void)
  {
 8003448:	b580      	push	{r7, lr}
 800344a:	af00      	add	r7, sp, #0
    EXTI_PtrFunction[1]();
 800344c:	4b05      	ldr	r3, [pc, #20]	; (8003464 <EXTI1_IRQHandler+0x1c>)
 800344e:	685b      	ldr	r3, [r3, #4]
 8003450:	4798      	blx	r3
    /*	CLR Pending Flag	*/
    EXTI->PR |= (1<<1);
 8003452:	4b05      	ldr	r3, [pc, #20]	; (8003468 <EXTI1_IRQHandler+0x20>)
 8003454:	695b      	ldr	r3, [r3, #20]
 8003456:	4a04      	ldr	r2, [pc, #16]	; (8003468 <EXTI1_IRQHandler+0x20>)
 8003458:	f043 0302 	orr.w	r3, r3, #2
 800345c:	6153      	str	r3, [r2, #20]
  }
 800345e:	bf00      	nop
 8003460:	bd80      	pop	{r7, pc}
 8003462:	bf00      	nop
 8003464:	200000dc 	.word	0x200000dc
 8003468:	40010400 	.word	0x40010400

0800346c <EXTI2_IRQHandler>:
   void EXTI2_IRQHandler(void)
  {
 800346c:	b580      	push	{r7, lr}
 800346e:	af00      	add	r7, sp, #0
    EXTI_PtrFunction[2]();
 8003470:	4b05      	ldr	r3, [pc, #20]	; (8003488 <EXTI2_IRQHandler+0x1c>)
 8003472:	689b      	ldr	r3, [r3, #8]
 8003474:	4798      	blx	r3
    /*	CLR Pending Flag	*/
    EXTI->PR |= (1<<2);
 8003476:	4b05      	ldr	r3, [pc, #20]	; (800348c <EXTI2_IRQHandler+0x20>)
 8003478:	695b      	ldr	r3, [r3, #20]
 800347a:	4a04      	ldr	r2, [pc, #16]	; (800348c <EXTI2_IRQHandler+0x20>)
 800347c:	f043 0304 	orr.w	r3, r3, #4
 8003480:	6153      	str	r3, [r2, #20]
  }
 8003482:	bf00      	nop
 8003484:	bd80      	pop	{r7, pc}
 8003486:	bf00      	nop
 8003488:	200000dc 	.word	0x200000dc
 800348c:	40010400 	.word	0x40010400

08003490 <EXTI3_IRQHandler>:
   void EXTI3_IRQHandler(void)
  {
 8003490:	b580      	push	{r7, lr}
 8003492:	af00      	add	r7, sp, #0
    EXTI_PtrFunction[3]();
 8003494:	4b05      	ldr	r3, [pc, #20]	; (80034ac <EXTI3_IRQHandler+0x1c>)
 8003496:	68db      	ldr	r3, [r3, #12]
 8003498:	4798      	blx	r3
    /*	CLR Pending Flag	*/
    EXTI->PR |= (1<<3);
 800349a:	4b05      	ldr	r3, [pc, #20]	; (80034b0 <EXTI3_IRQHandler+0x20>)
 800349c:	695b      	ldr	r3, [r3, #20]
 800349e:	4a04      	ldr	r2, [pc, #16]	; (80034b0 <EXTI3_IRQHandler+0x20>)
 80034a0:	f043 0308 	orr.w	r3, r3, #8
 80034a4:	6153      	str	r3, [r2, #20]
  }
 80034a6:	bf00      	nop
 80034a8:	bd80      	pop	{r7, pc}
 80034aa:	bf00      	nop
 80034ac:	200000dc 	.word	0x200000dc
 80034b0:	40010400 	.word	0x40010400

080034b4 <EXTI4_IRQHandler>:
   void EXTI4_IRQHandler(void)
  {
 80034b4:	b580      	push	{r7, lr}
 80034b6:	af00      	add	r7, sp, #0
    EXTI_PtrFunction[4]();
 80034b8:	4b05      	ldr	r3, [pc, #20]	; (80034d0 <EXTI4_IRQHandler+0x1c>)
 80034ba:	691b      	ldr	r3, [r3, #16]
 80034bc:	4798      	blx	r3
    /*	CLR Pending Flag	*/
    EXTI->PR |= (1<<4);
 80034be:	4b05      	ldr	r3, [pc, #20]	; (80034d4 <EXTI4_IRQHandler+0x20>)
 80034c0:	695b      	ldr	r3, [r3, #20]
 80034c2:	4a04      	ldr	r2, [pc, #16]	; (80034d4 <EXTI4_IRQHandler+0x20>)
 80034c4:	f043 0310 	orr.w	r3, r3, #16
 80034c8:	6153      	str	r3, [r2, #20]
  }
 80034ca:	bf00      	nop
 80034cc:	bd80      	pop	{r7, pc}
 80034ce:	bf00      	nop
 80034d0:	200000dc 	.word	0x200000dc
 80034d4:	40010400 	.word	0x40010400

080034d8 <GPIO_voidSetPinDirection>:
/******************************************************************************
* Function Prototypes
*******************************************************************************/

void GPIO_voidSetPinDirection	(u8 Copy_u8Port, Pin_t Copy_Pin , u8 Copy_u8Mode)
{
 80034d8:	b480      	push	{r7}
 80034da:	b083      	sub	sp, #12
 80034dc:	af00      	add	r7, sp, #0
 80034de:	4603      	mov	r3, r0
 80034e0:	71fb      	strb	r3, [r7, #7]
 80034e2:	460b      	mov	r3, r1
 80034e4:	71bb      	strb	r3, [r7, #6]
 80034e6:	4613      	mov	r3, r2
 80034e8:	717b      	strb	r3, [r7, #5]
    switch(Copy_u8Port)
 80034ea:	79fb      	ldrb	r3, [r7, #7]
 80034ec:	2b03      	cmp	r3, #3
 80034ee:	d03e      	beq.n	800356e <GPIO_voidSetPinDirection+0x96>
 80034f0:	2b04      	cmp	r3, #4
 80034f2:	d075      	beq.n	80035e0 <GPIO_voidSetPinDirection+0x108>
 80034f4:	2b02      	cmp	r3, #2
 80034f6:	d000      	beq.n	80034fa <GPIO_voidSetPinDirection+0x22>
			else 
			{
				/* error */ 
			}
			break;
		default : break ;	
 80034f8:	e0a9      	b.n	800364e <GPIO_voidSetPinDirection+0x176>
			if(Copy_Pin <= 7)
 80034fa:	79bb      	ldrb	r3, [r7, #6]
 80034fc:	2b07      	cmp	r3, #7
 80034fe:	d817      	bhi.n	8003530 <GPIO_voidSetPinDirection+0x58>
				GPIOA->CRL &= ~(0b1111<<(Copy_Pin*4));
 8003500:	4b55      	ldr	r3, [pc, #340]	; (8003658 <GPIO_voidSetPinDirection+0x180>)
 8003502:	681b      	ldr	r3, [r3, #0]
 8003504:	79ba      	ldrb	r2, [r7, #6]
 8003506:	0092      	lsls	r2, r2, #2
 8003508:	210f      	movs	r1, #15
 800350a:	fa01 f202 	lsl.w	r2, r1, r2
 800350e:	43d2      	mvns	r2, r2
 8003510:	4611      	mov	r1, r2
 8003512:	4a51      	ldr	r2, [pc, #324]	; (8003658 <GPIO_voidSetPinDirection+0x180>)
 8003514:	400b      	ands	r3, r1
 8003516:	6013      	str	r3, [r2, #0]
				GPIOA->CRL |= ((Copy_u8Mode)<< (4*Copy_Pin));
 8003518:	4b4f      	ldr	r3, [pc, #316]	; (8003658 <GPIO_voidSetPinDirection+0x180>)
 800351a:	681b      	ldr	r3, [r3, #0]
 800351c:	7979      	ldrb	r1, [r7, #5]
 800351e:	79ba      	ldrb	r2, [r7, #6]
 8003520:	0092      	lsls	r2, r2, #2
 8003522:	fa01 f202 	lsl.w	r2, r1, r2
 8003526:	4611      	mov	r1, r2
 8003528:	4a4b      	ldr	r2, [pc, #300]	; (8003658 <GPIO_voidSetPinDirection+0x180>)
 800352a:	430b      	orrs	r3, r1
 800352c:	6013      	str	r3, [r2, #0]
			break;
 800352e:	e089      	b.n	8003644 <GPIO_voidSetPinDirection+0x16c>
			else if (Copy_Pin <= 15 )
 8003530:	79bb      	ldrb	r3, [r7, #6]
 8003532:	2b0f      	cmp	r3, #15
 8003534:	f200 8086 	bhi.w	8003644 <GPIO_voidSetPinDirection+0x16c>
				Copy_Pin = Copy_Pin - 8 ;
 8003538:	79bb      	ldrb	r3, [r7, #6]
 800353a:	3b08      	subs	r3, #8
 800353c:	71bb      	strb	r3, [r7, #6]
				GPIOA->CRH &= ~(0b1111<<(Copy_Pin*4));
 800353e:	4b46      	ldr	r3, [pc, #280]	; (8003658 <GPIO_voidSetPinDirection+0x180>)
 8003540:	685b      	ldr	r3, [r3, #4]
 8003542:	79ba      	ldrb	r2, [r7, #6]
 8003544:	0092      	lsls	r2, r2, #2
 8003546:	210f      	movs	r1, #15
 8003548:	fa01 f202 	lsl.w	r2, r1, r2
 800354c:	43d2      	mvns	r2, r2
 800354e:	4611      	mov	r1, r2
 8003550:	4a41      	ldr	r2, [pc, #260]	; (8003658 <GPIO_voidSetPinDirection+0x180>)
 8003552:	400b      	ands	r3, r1
 8003554:	6053      	str	r3, [r2, #4]
				GPIOA->CRH |= ((Copy_u8Mode)<< ( 4 * Copy_Pin));
 8003556:	4b40      	ldr	r3, [pc, #256]	; (8003658 <GPIO_voidSetPinDirection+0x180>)
 8003558:	685b      	ldr	r3, [r3, #4]
 800355a:	7979      	ldrb	r1, [r7, #5]
 800355c:	79ba      	ldrb	r2, [r7, #6]
 800355e:	0092      	lsls	r2, r2, #2
 8003560:	fa01 f202 	lsl.w	r2, r1, r2
 8003564:	4611      	mov	r1, r2
 8003566:	4a3c      	ldr	r2, [pc, #240]	; (8003658 <GPIO_voidSetPinDirection+0x180>)
 8003568:	430b      	orrs	r3, r1
 800356a:	6053      	str	r3, [r2, #4]
			break;
 800356c:	e06a      	b.n	8003644 <GPIO_voidSetPinDirection+0x16c>
			if(Copy_Pin <= 7)
 800356e:	79bb      	ldrb	r3, [r7, #6]
 8003570:	2b07      	cmp	r3, #7
 8003572:	d817      	bhi.n	80035a4 <GPIO_voidSetPinDirection+0xcc>
				GPIOB->CRL &= ~(0b1111<<(Copy_Pin*4)); // to reset pin
 8003574:	4b39      	ldr	r3, [pc, #228]	; (800365c <GPIO_voidSetPinDirection+0x184>)
 8003576:	681b      	ldr	r3, [r3, #0]
 8003578:	79ba      	ldrb	r2, [r7, #6]
 800357a:	0092      	lsls	r2, r2, #2
 800357c:	210f      	movs	r1, #15
 800357e:	fa01 f202 	lsl.w	r2, r1, r2
 8003582:	43d2      	mvns	r2, r2
 8003584:	4611      	mov	r1, r2
 8003586:	4a35      	ldr	r2, [pc, #212]	; (800365c <GPIO_voidSetPinDirection+0x184>)
 8003588:	400b      	ands	r3, r1
 800358a:	6013      	str	r3, [r2, #0]
				GPIOB->CRL |= ((Copy_u8Mode)<< ( 4 * Copy_Pin));
 800358c:	4b33      	ldr	r3, [pc, #204]	; (800365c <GPIO_voidSetPinDirection+0x184>)
 800358e:	681b      	ldr	r3, [r3, #0]
 8003590:	7979      	ldrb	r1, [r7, #5]
 8003592:	79ba      	ldrb	r2, [r7, #6]
 8003594:	0092      	lsls	r2, r2, #2
 8003596:	fa01 f202 	lsl.w	r2, r1, r2
 800359a:	4611      	mov	r1, r2
 800359c:	4a2f      	ldr	r2, [pc, #188]	; (800365c <GPIO_voidSetPinDirection+0x184>)
 800359e:	430b      	orrs	r3, r1
 80035a0:	6013      	str	r3, [r2, #0]
			break;
 80035a2:	e051      	b.n	8003648 <GPIO_voidSetPinDirection+0x170>
			else if (Copy_Pin <= 15 )
 80035a4:	79bb      	ldrb	r3, [r7, #6]
 80035a6:	2b0f      	cmp	r3, #15
 80035a8:	d84e      	bhi.n	8003648 <GPIO_voidSetPinDirection+0x170>
				Copy_Pin = Copy_Pin - 8 ; //TO REPRESENT PIN 8 IN FIRST 4 BITS IN CRH REGESTER
 80035aa:	79bb      	ldrb	r3, [r7, #6]
 80035ac:	3b08      	subs	r3, #8
 80035ae:	71bb      	strb	r3, [r7, #6]
				GPIOB->CRH &= ~(0b1111<<(Copy_Pin*4));
 80035b0:	4b2a      	ldr	r3, [pc, #168]	; (800365c <GPIO_voidSetPinDirection+0x184>)
 80035b2:	685b      	ldr	r3, [r3, #4]
 80035b4:	79ba      	ldrb	r2, [r7, #6]
 80035b6:	0092      	lsls	r2, r2, #2
 80035b8:	210f      	movs	r1, #15
 80035ba:	fa01 f202 	lsl.w	r2, r1, r2
 80035be:	43d2      	mvns	r2, r2
 80035c0:	4611      	mov	r1, r2
 80035c2:	4a26      	ldr	r2, [pc, #152]	; (800365c <GPIO_voidSetPinDirection+0x184>)
 80035c4:	400b      	ands	r3, r1
 80035c6:	6053      	str	r3, [r2, #4]
				GPIOB->CRH |= ((Copy_u8Mode)<< (4*Copy_Pin));
 80035c8:	4b24      	ldr	r3, [pc, #144]	; (800365c <GPIO_voidSetPinDirection+0x184>)
 80035ca:	685b      	ldr	r3, [r3, #4]
 80035cc:	7979      	ldrb	r1, [r7, #5]
 80035ce:	79ba      	ldrb	r2, [r7, #6]
 80035d0:	0092      	lsls	r2, r2, #2
 80035d2:	fa01 f202 	lsl.w	r2, r1, r2
 80035d6:	4611      	mov	r1, r2
 80035d8:	4a20      	ldr	r2, [pc, #128]	; (800365c <GPIO_voidSetPinDirection+0x184>)
 80035da:	430b      	orrs	r3, r1
 80035dc:	6053      	str	r3, [r2, #4]
			break;
 80035de:	e033      	b.n	8003648 <GPIO_voidSetPinDirection+0x170>
			if(Copy_Pin <= 7)
 80035e0:	79bb      	ldrb	r3, [r7, #6]
 80035e2:	2b07      	cmp	r3, #7
 80035e4:	d810      	bhi.n	8003608 <GPIO_voidSetPinDirection+0x130>
				GPIOC->CRL &= ((0b0000)     << ( 4 * Copy_Pin)) ; // to reset pin
 80035e6:	4b1e      	ldr	r3, [pc, #120]	; (8003660 <GPIO_voidSetPinDirection+0x188>)
 80035e8:	681b      	ldr	r3, [r3, #0]
 80035ea:	4b1d      	ldr	r3, [pc, #116]	; (8003660 <GPIO_voidSetPinDirection+0x188>)
 80035ec:	2200      	movs	r2, #0
 80035ee:	601a      	str	r2, [r3, #0]
				GPIOC->CRL |= ((Copy_u8Mode)<< ( 4 * Copy_Pin));
 80035f0:	4b1b      	ldr	r3, [pc, #108]	; (8003660 <GPIO_voidSetPinDirection+0x188>)
 80035f2:	681b      	ldr	r3, [r3, #0]
 80035f4:	7979      	ldrb	r1, [r7, #5]
 80035f6:	79ba      	ldrb	r2, [r7, #6]
 80035f8:	0092      	lsls	r2, r2, #2
 80035fa:	fa01 f202 	lsl.w	r2, r1, r2
 80035fe:	4611      	mov	r1, r2
 8003600:	4a17      	ldr	r2, [pc, #92]	; (8003660 <GPIO_voidSetPinDirection+0x188>)
 8003602:	430b      	orrs	r3, r1
 8003604:	6013      	str	r3, [r2, #0]
			break;
 8003606:	e021      	b.n	800364c <GPIO_voidSetPinDirection+0x174>
			else if (Copy_Pin <= 15 )
 8003608:	79bb      	ldrb	r3, [r7, #6]
 800360a:	2b0f      	cmp	r3, #15
 800360c:	d81e      	bhi.n	800364c <GPIO_voidSetPinDirection+0x174>
				Copy_Pin = Copy_Pin - 8 ; //TO REPRESENT PIN 8 IN FIRST 4 BITS IN CRH REGESTER
 800360e:	79bb      	ldrb	r3, [r7, #6]
 8003610:	3b08      	subs	r3, #8
 8003612:	71bb      	strb	r3, [r7, #6]
				GPIOC->CRH &= ~(0b1111<<(Copy_Pin*4)); // to reset pin
 8003614:	4b12      	ldr	r3, [pc, #72]	; (8003660 <GPIO_voidSetPinDirection+0x188>)
 8003616:	685b      	ldr	r3, [r3, #4]
 8003618:	79ba      	ldrb	r2, [r7, #6]
 800361a:	0092      	lsls	r2, r2, #2
 800361c:	210f      	movs	r1, #15
 800361e:	fa01 f202 	lsl.w	r2, r1, r2
 8003622:	43d2      	mvns	r2, r2
 8003624:	4611      	mov	r1, r2
 8003626:	4a0e      	ldr	r2, [pc, #56]	; (8003660 <GPIO_voidSetPinDirection+0x188>)
 8003628:	400b      	ands	r3, r1
 800362a:	6053      	str	r3, [r2, #4]
				GPIOC->CRH |= ((Copy_u8Mode)<< (4*Copy_Pin));
 800362c:	4b0c      	ldr	r3, [pc, #48]	; (8003660 <GPIO_voidSetPinDirection+0x188>)
 800362e:	685b      	ldr	r3, [r3, #4]
 8003630:	7979      	ldrb	r1, [r7, #5]
 8003632:	79ba      	ldrb	r2, [r7, #6]
 8003634:	0092      	lsls	r2, r2, #2
 8003636:	fa01 f202 	lsl.w	r2, r1, r2
 800363a:	4611      	mov	r1, r2
 800363c:	4a08      	ldr	r2, [pc, #32]	; (8003660 <GPIO_voidSetPinDirection+0x188>)
 800363e:	430b      	orrs	r3, r1
 8003640:	6053      	str	r3, [r2, #4]
			break;
 8003642:	e003      	b.n	800364c <GPIO_voidSetPinDirection+0x174>
			break;
 8003644:	bf00      	nop
 8003646:	e002      	b.n	800364e <GPIO_voidSetPinDirection+0x176>
			break;
 8003648:	bf00      	nop
 800364a:	e000      	b.n	800364e <GPIO_voidSetPinDirection+0x176>
			break;
 800364c:	bf00      	nop
	}

}
 800364e:	bf00      	nop
 8003650:	370c      	adds	r7, #12
 8003652:	46bd      	mov	sp, r7
 8003654:	bc80      	pop	{r7}
 8003656:	4770      	bx	lr
 8003658:	40010800 	.word	0x40010800
 800365c:	40010c00 	.word	0x40010c00
 8003660:	40011000 	.word	0x40011000

08003664 <GPIO_voidSetPinValue>:
		default :  break ;
	}

}
void GPIO_voidSetPinValue(u8 Copy_u8Port, Pin_t Copy_Pin , u8 Copy_u8Value)
{
 8003664:	b480      	push	{r7}
 8003666:	b083      	sub	sp, #12
 8003668:	af00      	add	r7, sp, #0
 800366a:	4603      	mov	r3, r0
 800366c:	71fb      	strb	r3, [r7, #7]
 800366e:	460b      	mov	r3, r1
 8003670:	71bb      	strb	r3, [r7, #6]
 8003672:	4613      	mov	r3, r2
 8003674:	717b      	strb	r3, [r7, #5]
	switch(Copy_u8Port)
 8003676:	79fb      	ldrb	r3, [r7, #7]
 8003678:	2b03      	cmp	r3, #3
 800367a:	d017      	beq.n	80036ac <GPIO_voidSetPinValue+0x48>
 800367c:	2b04      	cmp	r3, #4
 800367e:	d028      	beq.n	80036d2 <GPIO_voidSetPinValue+0x6e>
 8003680:	2b02      	cmp	r3, #2
 8003682:	d000      	beq.n	8003686 <GPIO_voidSetPinValue+0x22>
					break ; 
			}	
			break ;
		default :
		//error
			break ;
 8003684:	e038      	b.n	80036f8 <GPIO_voidSetPinValue+0x94>
			switch (Copy_u8Value)
 8003686:	797b      	ldrb	r3, [r7, #5]
 8003688:	2b00      	cmp	r3, #0
 800368a:	d008      	beq.n	800369e <GPIO_voidSetPinValue+0x3a>
 800368c:	2b01      	cmp	r3, #1
 800368e:	d000      	beq.n	8003692 <GPIO_voidSetPinValue+0x2e>
					break ; 
 8003690:	e00b      	b.n	80036aa <GPIO_voidSetPinValue+0x46>
					GPIOA->BSRR = (1 << Copy_Pin);
 8003692:	79bb      	ldrb	r3, [r7, #6]
 8003694:	2201      	movs	r2, #1
 8003696:	409a      	lsls	r2, r3
 8003698:	4b1a      	ldr	r3, [pc, #104]	; (8003704 <GPIO_voidSetPinValue+0xa0>)
 800369a:	611a      	str	r2, [r3, #16]
					break ;
 800369c:	e005      	b.n	80036aa <GPIO_voidSetPinValue+0x46>
					GPIOA->BRR = (1 << Copy_Pin);
 800369e:	79bb      	ldrb	r3, [r7, #6]
 80036a0:	2201      	movs	r2, #1
 80036a2:	409a      	lsls	r2, r3
 80036a4:	4b17      	ldr	r3, [pc, #92]	; (8003704 <GPIO_voidSetPinValue+0xa0>)
 80036a6:	615a      	str	r2, [r3, #20]
					break ;
 80036a8:	bf00      	nop
			break ; 
 80036aa:	e025      	b.n	80036f8 <GPIO_voidSetPinValue+0x94>
			switch (Copy_u8Value)
 80036ac:	797b      	ldrb	r3, [r7, #5]
 80036ae:	2b00      	cmp	r3, #0
 80036b0:	d008      	beq.n	80036c4 <GPIO_voidSetPinValue+0x60>
 80036b2:	2b01      	cmp	r3, #1
 80036b4:	d000      	beq.n	80036b8 <GPIO_voidSetPinValue+0x54>
					break ; 
 80036b6:	e00b      	b.n	80036d0 <GPIO_voidSetPinValue+0x6c>
					GPIOB->BSRR = (1 << Copy_Pin);
 80036b8:	79bb      	ldrb	r3, [r7, #6]
 80036ba:	2201      	movs	r2, #1
 80036bc:	409a      	lsls	r2, r3
 80036be:	4b12      	ldr	r3, [pc, #72]	; (8003708 <GPIO_voidSetPinValue+0xa4>)
 80036c0:	611a      	str	r2, [r3, #16]
					break ;
 80036c2:	e005      	b.n	80036d0 <GPIO_voidSetPinValue+0x6c>
					GPIOB->BRR = (1 << Copy_Pin);
 80036c4:	79bb      	ldrb	r3, [r7, #6]
 80036c6:	2201      	movs	r2, #1
 80036c8:	409a      	lsls	r2, r3
 80036ca:	4b0f      	ldr	r3, [pc, #60]	; (8003708 <GPIO_voidSetPinValue+0xa4>)
 80036cc:	615a      	str	r2, [r3, #20]
					break ;
 80036ce:	bf00      	nop
			break ;
 80036d0:	e012      	b.n	80036f8 <GPIO_voidSetPinValue+0x94>
			switch (Copy_u8Value)
 80036d2:	797b      	ldrb	r3, [r7, #5]
 80036d4:	2b00      	cmp	r3, #0
 80036d6:	d008      	beq.n	80036ea <GPIO_voidSetPinValue+0x86>
 80036d8:	2b01      	cmp	r3, #1
 80036da:	d000      	beq.n	80036de <GPIO_voidSetPinValue+0x7a>
					break ; 
 80036dc:	e00b      	b.n	80036f6 <GPIO_voidSetPinValue+0x92>
					GPIOC->BSRR = (1 << Copy_Pin);
 80036de:	79bb      	ldrb	r3, [r7, #6]
 80036e0:	2201      	movs	r2, #1
 80036e2:	409a      	lsls	r2, r3
 80036e4:	4b09      	ldr	r3, [pc, #36]	; (800370c <GPIO_voidSetPinValue+0xa8>)
 80036e6:	611a      	str	r2, [r3, #16]
					break ;
 80036e8:	e005      	b.n	80036f6 <GPIO_voidSetPinValue+0x92>
					GPIOC->BRR = (1 << Copy_Pin);
 80036ea:	79bb      	ldrb	r3, [r7, #6]
 80036ec:	2201      	movs	r2, #1
 80036ee:	409a      	lsls	r2, r3
 80036f0:	4b06      	ldr	r3, [pc, #24]	; (800370c <GPIO_voidSetPinValue+0xa8>)
 80036f2:	615a      	str	r2, [r3, #20]
					break ;
 80036f4:	bf00      	nop
			break ;
 80036f6:	bf00      	nop
	}

}
 80036f8:	bf00      	nop
 80036fa:	370c      	adds	r7, #12
 80036fc:	46bd      	mov	sp, r7
 80036fe:	bc80      	pop	{r7}
 8003700:	4770      	bx	lr
 8003702:	bf00      	nop
 8003704:	40010800 	.word	0x40010800
 8003708:	40010c00 	.word	0x40010c00
 800370c:	40011000 	.word	0x40011000

08003710 <GPIO_u8GetPinValue>:


}

u8 GPIO_u8GetPinValue (u8 Copy_u8Port, Pin_t Copy_Pin)
{
 8003710:	b480      	push	{r7}
 8003712:	b085      	sub	sp, #20
 8003714:	af00      	add	r7, sp, #0
 8003716:	4603      	mov	r3, r0
 8003718:	460a      	mov	r2, r1
 800371a:	71fb      	strb	r3, [r7, #7]
 800371c:	4613      	mov	r3, r2
 800371e:	71bb      	strb	r3, [r7, #6]
	u8 LOC_u8Result = 0;
 8003720:	2300      	movs	r3, #0
 8003722:	73fb      	strb	r3, [r7, #15]
	if(Copy_Pin > 15)
	{
		/* error */
	}
	switch(Copy_u8Port)
 8003724:	79fb      	ldrb	r3, [r7, #7]
 8003726:	2b03      	cmp	r3, #3
 8003728:	d00e      	beq.n	8003748 <GPIO_u8GetPinValue+0x38>
 800372a:	2b04      	cmp	r3, #4
 800372c:	d016      	beq.n	800375c <GPIO_u8GetPinValue+0x4c>
 800372e:	2b02      	cmp	r3, #2
 8003730:	d000      	beq.n	8003734 <GPIO_u8GetPinValue+0x24>
		case PORTC :
			LOC_u8Result  = GET_BIT(GPIOC->IDR , Copy_Pin ) ;
			break ;
		default :
			/* error */
			break ;
 8003732:	e01d      	b.n	8003770 <GPIO_u8GetPinValue+0x60>
			LOC_u8Result  = GET_BIT(GPIOA->IDR , Copy_Pin ) ;
 8003734:	4b11      	ldr	r3, [pc, #68]	; (800377c <GPIO_u8GetPinValue+0x6c>)
 8003736:	689a      	ldr	r2, [r3, #8]
 8003738:	79bb      	ldrb	r3, [r7, #6]
 800373a:	fa22 f303 	lsr.w	r3, r2, r3
 800373e:	b2db      	uxtb	r3, r3
 8003740:	f003 0301 	and.w	r3, r3, #1
 8003744:	73fb      	strb	r3, [r7, #15]
			break ;
 8003746:	e013      	b.n	8003770 <GPIO_u8GetPinValue+0x60>
			LOC_u8Result  = GET_BIT(GPIOB->IDR , Copy_Pin ) ;
 8003748:	4b0d      	ldr	r3, [pc, #52]	; (8003780 <GPIO_u8GetPinValue+0x70>)
 800374a:	689a      	ldr	r2, [r3, #8]
 800374c:	79bb      	ldrb	r3, [r7, #6]
 800374e:	fa22 f303 	lsr.w	r3, r2, r3
 8003752:	b2db      	uxtb	r3, r3
 8003754:	f003 0301 	and.w	r3, r3, #1
 8003758:	73fb      	strb	r3, [r7, #15]
			break ;
 800375a:	e009      	b.n	8003770 <GPIO_u8GetPinValue+0x60>
			LOC_u8Result  = GET_BIT(GPIOC->IDR , Copy_Pin ) ;
 800375c:	4b09      	ldr	r3, [pc, #36]	; (8003784 <GPIO_u8GetPinValue+0x74>)
 800375e:	689a      	ldr	r2, [r3, #8]
 8003760:	79bb      	ldrb	r3, [r7, #6]
 8003762:	fa22 f303 	lsr.w	r3, r2, r3
 8003766:	b2db      	uxtb	r3, r3
 8003768:	f003 0301 	and.w	r3, r3, #1
 800376c:	73fb      	strb	r3, [r7, #15]
			break ;
 800376e:	bf00      	nop
	}
	return LOC_u8Result ;
 8003770:	7bfb      	ldrb	r3, [r7, #15]
}
 8003772:	4618      	mov	r0, r3
 8003774:	3714      	adds	r7, #20
 8003776:	46bd      	mov	sp, r7
 8003778:	bc80      	pop	{r7}
 800377a:	4770      	bx	lr
 800377c:	40010800 	.word	0x40010800
 8003780:	40010c00 	.word	0x40010c00
 8003784:	40011000 	.word	0x40011000

08003788 <GPIO_u8ChoosePullMode>:

void GPIO_u8ChoosePullMode(u8 Copy_u8Port, Pin_t Copy_Pin, GPIO_PULL_MODE_t Copy_Mode)
{
 8003788:	b480      	push	{r7}
 800378a:	b083      	sub	sp, #12
 800378c:	af00      	add	r7, sp, #0
 800378e:	4603      	mov	r3, r0
 8003790:	71fb      	strb	r3, [r7, #7]
 8003792:	460b      	mov	r3, r1
 8003794:	71bb      	strb	r3, [r7, #6]
 8003796:	4613      	mov	r3, r2
 8003798:	717b      	strb	r3, [r7, #5]
	switch(Copy_u8Port)
 800379a:	79fb      	ldrb	r3, [r7, #7]
 800379c:	2b03      	cmp	r3, #3
 800379e:	d022      	beq.n	80037e6 <GPIO_u8ChoosePullMode+0x5e>
 80037a0:	2b04      	cmp	r3, #4
 80037a2:	d03e      	beq.n	8003822 <GPIO_u8ChoosePullMode+0x9a>
 80037a4:	2b02      	cmp	r3, #2
 80037a6:	d000      	beq.n	80037aa <GPIO_u8ChoosePullMode+0x22>
                case GPIO_PULL_UP   : SET_BIT(GPIOC->ODR, Copy_Pin);break;
                default : /*!<TODO: Error Code*/break;
            }			break ;
		default :
			/* error */
			break ;
 80037a8:	e059      	b.n	800385e <GPIO_u8ChoosePullMode+0xd6>
            switch(Copy_Mode)
 80037aa:	797b      	ldrb	r3, [r7, #5]
 80037ac:	2b00      	cmp	r3, #0
 80037ae:	d002      	beq.n	80037b6 <GPIO_u8ChoosePullMode+0x2e>
 80037b0:	2b01      	cmp	r3, #1
 80037b2:	d00c      	beq.n	80037ce <GPIO_u8ChoosePullMode+0x46>
                default : /*!<TODO: Error Code*/break;
 80037b4:	e016      	b.n	80037e4 <GPIO_u8ChoosePullMode+0x5c>
                case GPIO_PULL_DOWN : CLR_BIT(GPIOA->ODR, Copy_Pin);break;
 80037b6:	4b2c      	ldr	r3, [pc, #176]	; (8003868 <GPIO_u8ChoosePullMode+0xe0>)
 80037b8:	68db      	ldr	r3, [r3, #12]
 80037ba:	79ba      	ldrb	r2, [r7, #6]
 80037bc:	2101      	movs	r1, #1
 80037be:	fa01 f202 	lsl.w	r2, r1, r2
 80037c2:	43d2      	mvns	r2, r2
 80037c4:	4611      	mov	r1, r2
 80037c6:	4a28      	ldr	r2, [pc, #160]	; (8003868 <GPIO_u8ChoosePullMode+0xe0>)
 80037c8:	400b      	ands	r3, r1
 80037ca:	60d3      	str	r3, [r2, #12]
 80037cc:	e00a      	b.n	80037e4 <GPIO_u8ChoosePullMode+0x5c>
                case GPIO_PULL_UP   : SET_BIT(GPIOA->ODR, Copy_Pin);break;
 80037ce:	4b26      	ldr	r3, [pc, #152]	; (8003868 <GPIO_u8ChoosePullMode+0xe0>)
 80037d0:	68db      	ldr	r3, [r3, #12]
 80037d2:	79ba      	ldrb	r2, [r7, #6]
 80037d4:	2101      	movs	r1, #1
 80037d6:	fa01 f202 	lsl.w	r2, r1, r2
 80037da:	4611      	mov	r1, r2
 80037dc:	4a22      	ldr	r2, [pc, #136]	; (8003868 <GPIO_u8ChoosePullMode+0xe0>)
 80037de:	430b      	orrs	r3, r1
 80037e0:	60d3      	str	r3, [r2, #12]
 80037e2:	bf00      	nop
            }			break ;
 80037e4:	e03b      	b.n	800385e <GPIO_u8ChoosePullMode+0xd6>
            switch(Copy_Mode)
 80037e6:	797b      	ldrb	r3, [r7, #5]
 80037e8:	2b00      	cmp	r3, #0
 80037ea:	d002      	beq.n	80037f2 <GPIO_u8ChoosePullMode+0x6a>
 80037ec:	2b01      	cmp	r3, #1
 80037ee:	d00c      	beq.n	800380a <GPIO_u8ChoosePullMode+0x82>
                default : /*!<TODO: Error Code*/break;
 80037f0:	e016      	b.n	8003820 <GPIO_u8ChoosePullMode+0x98>
                case GPIO_PULL_DOWN : CLR_BIT(GPIOB->ODR, Copy_Pin);break;
 80037f2:	4b1e      	ldr	r3, [pc, #120]	; (800386c <GPIO_u8ChoosePullMode+0xe4>)
 80037f4:	68db      	ldr	r3, [r3, #12]
 80037f6:	79ba      	ldrb	r2, [r7, #6]
 80037f8:	2101      	movs	r1, #1
 80037fa:	fa01 f202 	lsl.w	r2, r1, r2
 80037fe:	43d2      	mvns	r2, r2
 8003800:	4611      	mov	r1, r2
 8003802:	4a1a      	ldr	r2, [pc, #104]	; (800386c <GPIO_u8ChoosePullMode+0xe4>)
 8003804:	400b      	ands	r3, r1
 8003806:	60d3      	str	r3, [r2, #12]
 8003808:	e00a      	b.n	8003820 <GPIO_u8ChoosePullMode+0x98>
                case GPIO_PULL_UP   : SET_BIT(GPIOB->ODR, Copy_Pin);break;
 800380a:	4b18      	ldr	r3, [pc, #96]	; (800386c <GPIO_u8ChoosePullMode+0xe4>)
 800380c:	68db      	ldr	r3, [r3, #12]
 800380e:	79ba      	ldrb	r2, [r7, #6]
 8003810:	2101      	movs	r1, #1
 8003812:	fa01 f202 	lsl.w	r2, r1, r2
 8003816:	4611      	mov	r1, r2
 8003818:	4a14      	ldr	r2, [pc, #80]	; (800386c <GPIO_u8ChoosePullMode+0xe4>)
 800381a:	430b      	orrs	r3, r1
 800381c:	60d3      	str	r3, [r2, #12]
 800381e:	bf00      	nop
            }			break ;
 8003820:	e01d      	b.n	800385e <GPIO_u8ChoosePullMode+0xd6>
            switch(Copy_Mode)
 8003822:	797b      	ldrb	r3, [r7, #5]
 8003824:	2b00      	cmp	r3, #0
 8003826:	d002      	beq.n	800382e <GPIO_u8ChoosePullMode+0xa6>
 8003828:	2b01      	cmp	r3, #1
 800382a:	d00c      	beq.n	8003846 <GPIO_u8ChoosePullMode+0xbe>
                default : /*!<TODO: Error Code*/break;
 800382c:	e016      	b.n	800385c <GPIO_u8ChoosePullMode+0xd4>
                case GPIO_PULL_DOWN : CLR_BIT(GPIOC->ODR, Copy_Pin);break;
 800382e:	4b10      	ldr	r3, [pc, #64]	; (8003870 <GPIO_u8ChoosePullMode+0xe8>)
 8003830:	68db      	ldr	r3, [r3, #12]
 8003832:	79ba      	ldrb	r2, [r7, #6]
 8003834:	2101      	movs	r1, #1
 8003836:	fa01 f202 	lsl.w	r2, r1, r2
 800383a:	43d2      	mvns	r2, r2
 800383c:	4611      	mov	r1, r2
 800383e:	4a0c      	ldr	r2, [pc, #48]	; (8003870 <GPIO_u8ChoosePullMode+0xe8>)
 8003840:	400b      	ands	r3, r1
 8003842:	60d3      	str	r3, [r2, #12]
 8003844:	e00a      	b.n	800385c <GPIO_u8ChoosePullMode+0xd4>
                case GPIO_PULL_UP   : SET_BIT(GPIOC->ODR, Copy_Pin);break;
 8003846:	4b0a      	ldr	r3, [pc, #40]	; (8003870 <GPIO_u8ChoosePullMode+0xe8>)
 8003848:	68db      	ldr	r3, [r3, #12]
 800384a:	79ba      	ldrb	r2, [r7, #6]
 800384c:	2101      	movs	r1, #1
 800384e:	fa01 f202 	lsl.w	r2, r1, r2
 8003852:	4611      	mov	r1, r2
 8003854:	4a06      	ldr	r2, [pc, #24]	; (8003870 <GPIO_u8ChoosePullMode+0xe8>)
 8003856:	430b      	orrs	r3, r1
 8003858:	60d3      	str	r3, [r2, #12]
 800385a:	bf00      	nop
            }			break ;
 800385c:	bf00      	nop
	}

}
 800385e:	bf00      	nop
 8003860:	370c      	adds	r7, #12
 8003862:	46bd      	mov	sp, r7
 8003864:	bc80      	pop	{r7}
 8003866:	4770      	bx	lr
 8003868:	40010800 	.word	0x40010800
 800386c:	40010c00 	.word	0x40010c00
 8003870:	40011000 	.word	0x40011000

08003874 <NVIC_voidEnableInterrupt>:

/******************************************************************************
* Function Definitions
*******************************************************************************/
void NVIC_voidEnableInterrupt  ( u8 Copy_u8IntNumber )
{
 8003874:	b480      	push	{r7}
 8003876:	b083      	sub	sp, #12
 8003878:	af00      	add	r7, sp, #0
 800387a:	4603      	mov	r3, r0
 800387c:	71fb      	strb	r3, [r7, #7]
	if(Copy_u8IntNumber <= 31)
 800387e:	79fb      	ldrb	r3, [r7, #7]
 8003880:	2b1f      	cmp	r3, #31
 8003882:	d80a      	bhi.n	800389a <NVIC_voidEnableInterrupt+0x26>
	{
		SET_BIT(NVIC_ISER[0] , Copy_u8IntNumber ); 
 8003884:	4b0f      	ldr	r3, [pc, #60]	; (80038c4 <NVIC_voidEnableInterrupt+0x50>)
 8003886:	681b      	ldr	r3, [r3, #0]
 8003888:	79fa      	ldrb	r2, [r7, #7]
 800388a:	2101      	movs	r1, #1
 800388c:	fa01 f202 	lsl.w	r2, r1, r2
 8003890:	4611      	mov	r1, r2
 8003892:	4a0c      	ldr	r2, [pc, #48]	; (80038c4 <NVIC_voidEnableInterrupt+0x50>)
 8003894:	430b      	orrs	r3, r1
 8003896:	6013      	str	r3, [r2, #0]
	}
	else 
	{
		/*	 <TODO> ERROR OUT OF INTERRUPT NUMBERS	*/
	}
}
 8003898:	e00f      	b.n	80038ba <NVIC_voidEnableInterrupt+0x46>
	else if (Copy_u8IntNumber <= 59 )
 800389a:	79fb      	ldrb	r3, [r7, #7]
 800389c:	2b3b      	cmp	r3, #59	; 0x3b
 800389e:	d80c      	bhi.n	80038ba <NVIC_voidEnableInterrupt+0x46>
		Copy_u8IntNumber -= 32 ; 
 80038a0:	79fb      	ldrb	r3, [r7, #7]
 80038a2:	3b20      	subs	r3, #32
 80038a4:	71fb      	strb	r3, [r7, #7]
		SET_BIT(NVIC_ISER[1] , Copy_u8IntNumber ); 
 80038a6:	4b08      	ldr	r3, [pc, #32]	; (80038c8 <NVIC_voidEnableInterrupt+0x54>)
 80038a8:	681b      	ldr	r3, [r3, #0]
 80038aa:	79fa      	ldrb	r2, [r7, #7]
 80038ac:	2101      	movs	r1, #1
 80038ae:	fa01 f202 	lsl.w	r2, r1, r2
 80038b2:	4611      	mov	r1, r2
 80038b4:	4a04      	ldr	r2, [pc, #16]	; (80038c8 <NVIC_voidEnableInterrupt+0x54>)
 80038b6:	430b      	orrs	r3, r1
 80038b8:	6013      	str	r3, [r2, #0]
}
 80038ba:	bf00      	nop
 80038bc:	370c      	adds	r7, #12
 80038be:	46bd      	mov	sp, r7
 80038c0:	bc80      	pop	{r7}
 80038c2:	4770      	bx	lr
 80038c4:	e000e100 	.word	0xe000e100
 80038c8:	e000e104 	.word	0xe000e104

080038cc <RCC_voidEnableClock>:

/******************************************************************************
* Function Definitions
*******************************************************************************/
void RCC_voidEnableClock(Bus_t Copy_BusId, u8 Copy_u8BperId) 
{
 80038cc:	b480      	push	{r7}
 80038ce:	b083      	sub	sp, #12
 80038d0:	af00      	add	r7, sp, #0
 80038d2:	4603      	mov	r3, r0
 80038d4:	460a      	mov	r2, r1
 80038d6:	71fb      	strb	r3, [r7, #7]
 80038d8:	4613      	mov	r3, r2
 80038da:	71bb      	strb	r3, [r7, #6]
    if(Copy_u8BperId <= 31)
 80038dc:	79bb      	ldrb	r3, [r7, #6]
 80038de:	2b1f      	cmp	r3, #31
 80038e0:	d828      	bhi.n	8003934 <RCC_voidEnableClock+0x68>
	{
		switch(Copy_BusId)
 80038e2:	79fb      	ldrb	r3, [r7, #7]
 80038e4:	2b01      	cmp	r3, #1
 80038e6:	d00f      	beq.n	8003908 <RCC_voidEnableClock+0x3c>
 80038e8:	2b02      	cmp	r3, #2
 80038ea:	d018      	beq.n	800391e <RCC_voidEnableClock+0x52>
 80038ec:	2b00      	cmp	r3, #0
 80038ee:	d000      	beq.n	80038f2 <RCC_voidEnableClock+0x26>
	else
	{
		//TODO: Return Error Code
	}
	
}
 80038f0:	e020      	b.n	8003934 <RCC_voidEnableClock+0x68>
			case RCC_AHB  : SET_BIT(RCC_AHBENR,  Copy_u8BperId); break;
 80038f2:	4b13      	ldr	r3, [pc, #76]	; (8003940 <RCC_voidEnableClock+0x74>)
 80038f4:	681b      	ldr	r3, [r3, #0]
 80038f6:	79ba      	ldrb	r2, [r7, #6]
 80038f8:	2101      	movs	r1, #1
 80038fa:	fa01 f202 	lsl.w	r2, r1, r2
 80038fe:	4611      	mov	r1, r2
 8003900:	4a0f      	ldr	r2, [pc, #60]	; (8003940 <RCC_voidEnableClock+0x74>)
 8003902:	430b      	orrs	r3, r1
 8003904:	6013      	str	r3, [r2, #0]
 8003906:	e015      	b.n	8003934 <RCC_voidEnableClock+0x68>
			case RCC_APB1 : SET_BIT(RCC_APB1ENR, Copy_u8BperId); break;
 8003908:	4b0e      	ldr	r3, [pc, #56]	; (8003944 <RCC_voidEnableClock+0x78>)
 800390a:	681b      	ldr	r3, [r3, #0]
 800390c:	79ba      	ldrb	r2, [r7, #6]
 800390e:	2101      	movs	r1, #1
 8003910:	fa01 f202 	lsl.w	r2, r1, r2
 8003914:	4611      	mov	r1, r2
 8003916:	4a0b      	ldr	r2, [pc, #44]	; (8003944 <RCC_voidEnableClock+0x78>)
 8003918:	430b      	orrs	r3, r1
 800391a:	6013      	str	r3, [r2, #0]
 800391c:	e00a      	b.n	8003934 <RCC_voidEnableClock+0x68>
			case RCC_APB2 : SET_BIT(RCC_APB2ENR, Copy_u8BperId); break;
 800391e:	4b0a      	ldr	r3, [pc, #40]	; (8003948 <RCC_voidEnableClock+0x7c>)
 8003920:	681b      	ldr	r3, [r3, #0]
 8003922:	79ba      	ldrb	r2, [r7, #6]
 8003924:	2101      	movs	r1, #1
 8003926:	fa01 f202 	lsl.w	r2, r1, r2
 800392a:	4611      	mov	r1, r2
 800392c:	4a06      	ldr	r2, [pc, #24]	; (8003948 <RCC_voidEnableClock+0x7c>)
 800392e:	430b      	orrs	r3, r1
 8003930:	6013      	str	r3, [r2, #0]
 8003932:	bf00      	nop
}
 8003934:	bf00      	nop
 8003936:	370c      	adds	r7, #12
 8003938:	46bd      	mov	sp, r7
 800393a:	bc80      	pop	{r7}
 800393c:	4770      	bx	lr
 800393e:	bf00      	nop
 8003940:	40021014 	.word	0x40021014
 8003944:	4002101c 	.word	0x4002101c
 8003948:	40021018 	.word	0x40021018

0800394c <RCC_voidInitSysClocks>:
	}
	
}

void RCC_voidInitSysClocks(void)
{
 800394c:	b480      	push	{r7}
 800394e:	af00      	add	r7, sp, #0
/*      MAIN BUS SYSTEM INIT             */
    RCC_CR   = 0X00000080;                    
 8003950:	4b23      	ldr	r3, [pc, #140]	; (80039e0 <RCC_voidInitSysClocks+0x94>)
 8003952:	2280      	movs	r2, #128	; 0x80
 8003954:	601a      	str	r2, [r3, #0]
	RCC_CFGR = 0X00000000;                    
 8003956:	4b23      	ldr	r3, [pc, #140]	; (80039e4 <RCC_voidInitSysClocks+0x98>)
 8003958:	2200      	movs	r2, #0
 800395a:	601a      	str	r2, [r3, #0]
			   while(!(GET_BIT(RCC_CR, RCC_CR_HSERDY)));
			#endif
			RCC_CFGR |= RCC_CFGR_PLLXTPRE_HSE_Div2;
		#elif RCC_PLL_INPUT == RCC_PLL_IN_HSE
				#if   RCC_PLL_HSE == RCC_PLL_HSE_CRYSTAL
					SET_BIT(RCC_CR, RCC_CR_CSSON);
 800395c:	4b20      	ldr	r3, [pc, #128]	; (80039e0 <RCC_voidInitSysClocks+0x94>)
 800395e:	681b      	ldr	r3, [r3, #0]
 8003960:	4a1f      	ldr	r2, [pc, #124]	; (80039e0 <RCC_voidInitSysClocks+0x94>)
 8003962:	f443 2300 	orr.w	r3, r3, #524288	; 0x80000
 8003966:	6013      	str	r3, [r2, #0]
					SET_BIT(RCC_CR, RCC_CR_HSEON);
 8003968:	4b1d      	ldr	r3, [pc, #116]	; (80039e0 <RCC_voidInitSysClocks+0x94>)
 800396a:	681b      	ldr	r3, [r3, #0]
 800396c:	4a1c      	ldr	r2, [pc, #112]	; (80039e0 <RCC_voidInitSysClocks+0x94>)
 800396e:	f443 3380 	orr.w	r3, r3, #65536	; 0x10000
 8003972:	6013      	str	r3, [r2, #0]
					while(!(GET_BIT(RCC_CR, RCC_CR_HSERDY)));
 8003974:	bf00      	nop
 8003976:	4b1a      	ldr	r3, [pc, #104]	; (80039e0 <RCC_voidInitSysClocks+0x94>)
 8003978:	681b      	ldr	r3, [r3, #0]
 800397a:	0c5b      	lsrs	r3, r3, #17
 800397c:	f003 0301 	and.w	r3, r3, #1
 8003980:	2b00      	cmp	r3, #0
 8003982:	d0f8      	beq.n	8003976 <RCC_voidInitSysClocks+0x2a>
				   #warning("Wrong PLL input from HSE...Crystal is default")
				   SET_BIT(RCC_CR, RCC_CR_CSSON);
				   SET_BIT(RCC_CR, RCC_CR_HSEON);
				   while(!(GET_BIT(RCC_CR, RCC_CR_HSERDY)));
				#endif
				RCC_CFGR |= RCC_CFGR_PLLSRC_HSE;
 8003984:	4b17      	ldr	r3, [pc, #92]	; (80039e4 <RCC_voidInitSysClocks+0x98>)
 8003986:	681b      	ldr	r3, [r3, #0]
 8003988:	4a16      	ldr	r2, [pc, #88]	; (80039e4 <RCC_voidInitSysClocks+0x98>)
 800398a:	f443 3380 	orr.w	r3, r3, #65536	; 0x10000
 800398e:	6013      	str	r3, [r2, #0]
		#endif
			/***************************** SET MUX VAL	***********************************/
				RCC_CFGR |= RCC_PLL_MUL_VAL ;
 8003990:	4b14      	ldr	r3, [pc, #80]	; (80039e4 <RCC_voidInitSysClocks+0x98>)
 8003992:	4a14      	ldr	r2, [pc, #80]	; (80039e4 <RCC_voidInitSysClocks+0x98>)
 8003994:	681b      	ldr	r3, [r3, #0]
 8003996:	6013      	str	r3, [r2, #0]
			SET_BIT(RCC_CR, RCC_CR_PLLON);
 8003998:	4b11      	ldr	r3, [pc, #68]	; (80039e0 <RCC_voidInitSysClocks+0x94>)
 800399a:	681b      	ldr	r3, [r3, #0]
 800399c:	4a10      	ldr	r2, [pc, #64]	; (80039e0 <RCC_voidInitSysClocks+0x94>)
 800399e:	f043 7380 	orr.w	r3, r3, #16777216	; 0x1000000
 80039a2:	6013      	str	r3, [r2, #0]
			while(!(GET_BIT(RCC_CR, RCC_CR_PLLRDY)));
 80039a4:	bf00      	nop
 80039a6:	4b0e      	ldr	r3, [pc, #56]	; (80039e0 <RCC_voidInitSysClocks+0x94>)
 80039a8:	681b      	ldr	r3, [r3, #0]
 80039aa:	0e5b      	lsrs	r3, r3, #25
 80039ac:	f003 0301 	and.w	r3, r3, #1
 80039b0:	2b00      	cmp	r3, #0
 80039b2:	d0f8      	beq.n	80039a6 <RCC_voidInitSysClocks+0x5a>
			RCC_CFGR |= RCC_CFGR_SW_PLL;
 80039b4:	4b0b      	ldr	r3, [pc, #44]	; (80039e4 <RCC_voidInitSysClocks+0x98>)
 80039b6:	681b      	ldr	r3, [r3, #0]
 80039b8:	4a0a      	ldr	r2, [pc, #40]	; (80039e4 <RCC_voidInitSysClocks+0x98>)
 80039ba:	f043 0302 	orr.w	r3, r3, #2
 80039be:	6013      	str	r3, [r2, #0]
        RCC_CFGR |= RCC_CFGR_PLLSRC_HSI_Div2;
    #endif

/********************** AHB BUS PRESCALER ****************/ 
	#if   RCC_AHB_PRESCALER == RCC_AHB_PRESCALER_DEV_1
        RCC_CFGR |= RCC_CFGR_HPRE_DIV1;
 80039c0:	4b08      	ldr	r3, [pc, #32]	; (80039e4 <RCC_voidInitSysClocks+0x98>)
 80039c2:	4a08      	ldr	r2, [pc, #32]	; (80039e4 <RCC_voidInitSysClocks+0x98>)
 80039c4:	681b      	ldr	r3, [r3, #0]
 80039c6:	6013      	str	r3, [r2, #0]
	    RCC_CFGR |= RCC_CFGR_HPRE_DIV1;
		#warning(Wrong HPRE....DIV1 is default)
	#endif
/********************* AB1 BUS PRESCALER   ************************/ 
	#if   RCC_APB1_PRESCALER == RCC_APB1_PRESCALER_DEV_1
        RCC_CFGR |= RCC_CFGR_PPRE1_DIV1;
 80039c8:	4b06      	ldr	r3, [pc, #24]	; (80039e4 <RCC_voidInitSysClocks+0x98>)
 80039ca:	4a06      	ldr	r2, [pc, #24]	; (80039e4 <RCC_voidInitSysClocks+0x98>)
 80039cc:	681b      	ldr	r3, [r3, #0]
 80039ce:	6013      	str	r3, [r2, #0]
	    RCC_CFGR |= RCC_CFGR_PPRE1_DIV1;
		#warning(Wrong PPRE1....DIV1 is default)
	#endif
/********************* ABP2 BUS PRESCALER   ************************/ 
	#if   RCC_APB2_PRESCALER == RCC_APB2_PRESCALER_DEV_1
        RCC_CFGR |= RCC_CFGR_PPRE2_DIV1;
 80039d0:	4b04      	ldr	r3, [pc, #16]	; (80039e4 <RCC_voidInitSysClocks+0x98>)
 80039d2:	4a04      	ldr	r2, [pc, #16]	; (80039e4 <RCC_voidInitSysClocks+0x98>)
 80039d4:	681b      	ldr	r3, [r3, #0]
 80039d6:	6013      	str	r3, [r2, #0]
        RCC_CFGR |= RCC_CFGR_PPRE2_DIV16;
	#else
	    RCC_CFGR |= RCC_CFGR_PPRE2_DIV1;
		#warning(Wrong PRE2....DIV1 is default)
	#endif
}
 80039d8:	bf00      	nop
 80039da:	46bd      	mov	sp, r7
 80039dc:	bc80      	pop	{r7}
 80039de:	4770      	bx	lr
 80039e0:	40021000 	.word	0x40021000
 80039e4:	40021004 	.word	0x40021004

080039e8 <SPI_voidInit>:

/******************************************************************************
* Function Definitions
*******************************************************************************/
void SPI_voidInit(SPI_Select_t SPI_Number , SPI_config* SPI_UsrConfig)
{
 80039e8:	b480      	push	{r7}
 80039ea:	b085      	sub	sp, #20
 80039ec:	af00      	add	r7, sp, #0
 80039ee:	4603      	mov	r3, r0
 80039f0:	6039      	str	r1, [r7, #0]
 80039f2:	71fb      	strb	r3, [r7, #7]
	u16 LOC_u16Reg_CR1 = 0 ;
 80039f4:	2300      	movs	r3, #0
 80039f6:	81fb      	strh	r3, [r7, #14]
	u16 LOC_u16Reg_CR2 = 0 ;
 80039f8:	2300      	movs	r3, #0
 80039fa:	81bb      	strh	r3, [r7, #12]

	/*	Enable SPI	*/
	LOC_u16Reg_CR1  = (1<<6) ;
 80039fc:	2340      	movs	r3, #64	; 0x40
 80039fe:	81fb      	strh	r3, [r7, #14]
	/* Configuration Master/Slave	*/
	LOC_u16Reg_CR1  |= SPI_UsrConfig->SPI_Mode ;
 8003a00:	683b      	ldr	r3, [r7, #0]
 8003a02:	781b      	ldrb	r3, [r3, #0]
 8003a04:	b29a      	uxth	r2, r3
 8003a06:	89fb      	ldrh	r3, [r7, #14]
 8003a08:	4313      	orrs	r3, r2
 8003a0a:	81fb      	strh	r3, [r7, #14]
	/* Comm Mode	*/
	LOC_u16Reg_CR1  |= SPI_UsrConfig->SPI_CommMode ;
 8003a0c:	683b      	ldr	r3, [r7, #0]
 8003a0e:	885a      	ldrh	r2, [r3, #2]
 8003a10:	89fb      	ldrh	r3, [r7, #14]
 8003a12:	4313      	orrs	r3, r2
 8003a14:	81fb      	strh	r3, [r7, #14]
	/* Frame Format	*/
	LOC_u16Reg_CR1  |= SPI_UsrConfig->SPI_DataSize ;
 8003a16:	683b      	ldr	r3, [r7, #0]
 8003a18:	88da      	ldrh	r2, [r3, #6]
 8003a1a:	89fb      	ldrh	r3, [r7, #14]
 8003a1c:	4313      	orrs	r3, r2
 8003a1e:	81fb      	strh	r3, [r7, #14]
	/* Clock Polarity/Phase	*/
	LOC_u16Reg_CR1  |= SPI_UsrConfig->SPI_IdleLevel ;
 8003a20:	683b      	ldr	r3, [r7, #0]
 8003a22:	7a1b      	ldrb	r3, [r3, #8]
 8003a24:	b29a      	uxth	r2, r3
 8003a26:	89fb      	ldrh	r3, [r7, #14]
 8003a28:	4313      	orrs	r3, r2
 8003a2a:	81fb      	strh	r3, [r7, #14]
	LOC_u16Reg_CR1  |= SPI_UsrConfig->SPI_DataSampling ;
 8003a2c:	683b      	ldr	r3, [r7, #0]
 8003a2e:	7a5b      	ldrb	r3, [r3, #9]
 8003a30:	b29a      	uxth	r2, r3
 8003a32:	89fb      	ldrh	r3, [r7, #14]
 8003a34:	4313      	orrs	r3, r2
 8003a36:	81fb      	strh	r3, [r7, #14]
	/*	NSS	*/
	if(SPI_UsrConfig->SPI_SlaveSelectMangment == SPI_SSM_HW_MASTER_SS_EN)
 8003a38:	683b      	ldr	r3, [r7, #0]
 8003a3a:	f9b3 300a 	ldrsh.w	r3, [r3, #10]
 8003a3e:	2b04      	cmp	r3, #4
 8003a40:	d108      	bne.n	8003a54 <SPI_voidInit+0x6c>
	{
		LOC_u16Reg_CR2 |= SPI_UsrConfig->SPI_SlaveSelectMangment ;
 8003a42:	683b      	ldr	r3, [r7, #0]
 8003a44:	f9b3 200a 	ldrsh.w	r2, [r3, #10]
 8003a48:	f9b7 300c 	ldrsh.w	r3, [r7, #12]
 8003a4c:	4313      	orrs	r3, r2
 8003a4e:	b21b      	sxth	r3, r3
 8003a50:	81bb      	strh	r3, [r7, #12]
 8003a52:	e016      	b.n	8003a82 <SPI_voidInit+0x9a>
	}
	else if(SPI_UsrConfig->SPI_SlaveSelectMangment == SPI_SSM_HW_MASTER_SS_DISABLED)
 8003a54:	683b      	ldr	r3, [r7, #0]
 8003a56:	f9b3 300a 	ldrsh.w	r3, [r3, #10]
 8003a5a:	f113 0f05 	cmn.w	r3, #5
 8003a5e:	d108      	bne.n	8003a72 <SPI_voidInit+0x8a>
	{
		LOC_u16Reg_CR2 &= SPI_UsrConfig->SPI_SlaveSelectMangment ;
 8003a60:	683b      	ldr	r3, [r7, #0]
 8003a62:	f9b3 200a 	ldrsh.w	r2, [r3, #10]
 8003a66:	f9b7 300c 	ldrsh.w	r3, [r7, #12]
 8003a6a:	4013      	ands	r3, r2
 8003a6c:	b21b      	sxth	r3, r3
 8003a6e:	81bb      	strh	r3, [r7, #12]
 8003a70:	e007      	b.n	8003a82 <SPI_voidInit+0x9a>
	}
	else
	{
		LOC_u16Reg_CR1 |= SPI_UsrConfig->SPI_SlaveSelectMangment ;
 8003a72:	683b      	ldr	r3, [r7, #0]
 8003a74:	f9b3 200a 	ldrsh.w	r2, [r3, #10]
 8003a78:	f9b7 300e 	ldrsh.w	r3, [r7, #14]
 8003a7c:	4313      	orrs	r3, r2
 8003a7e:	b21b      	sxth	r3, r3
 8003a80:	81fb      	strh	r3, [r7, #14]
	}
	/* Buad Rate	*/
	LOC_u16Reg_CR1 |= SPI_UsrConfig->SPI_BuadRate ;
 8003a82:	683b      	ldr	r3, [r7, #0]
 8003a84:	7b1b      	ldrb	r3, [r3, #12]
 8003a86:	b29a      	uxth	r2, r3
 8003a88:	89fb      	ldrh	r3, [r7, #14]
 8003a8a:	4313      	orrs	r3, r2
 8003a8c:	81fb      	strh	r3, [r7, #14]

	/*	Interrupt	*/
	if(SPI_UsrConfig->SPI_IRQ != SPI_IRQ_DISABLED)
 8003a8e:	683b      	ldr	r3, [r7, #0]
 8003a90:	7b5b      	ldrb	r3, [r3, #13]
 8003a92:	2b00      	cmp	r3, #0
 8003a94:	d005      	beq.n	8003aa2 <SPI_voidInit+0xba>
	{
		LOC_u16Reg_CR2 |= SPI_UsrConfig->SPI_IRQ;
 8003a96:	683b      	ldr	r3, [r7, #0]
 8003a98:	7b5b      	ldrb	r3, [r3, #13]
 8003a9a:	b29a      	uxth	r2, r3
 8003a9c:	89bb      	ldrh	r3, [r7, #12]
 8003a9e:	4313      	orrs	r3, r2
 8003aa0:	81bb      	strh	r3, [r7, #12]
	}

	if(SPI_Number == SPI_1)
 8003aa2:	79fb      	ldrb	r3, [r7, #7]
 8003aa4:	2b00      	cmp	r3, #0
 8003aa6:	d109      	bne.n	8003abc <SPI_voidInit+0xd4>
	{
		Global_SPI_Config[0] = SPI_UsrConfig ;
 8003aa8:	4a0d      	ldr	r2, [pc, #52]	; (8003ae0 <SPI_voidInit+0xf8>)
 8003aaa:	683b      	ldr	r3, [r7, #0]
 8003aac:	6013      	str	r3, [r2, #0]
		SPI1->CR1 = LOC_u16Reg_CR1 ;
 8003aae:	4a0d      	ldr	r2, [pc, #52]	; (8003ae4 <SPI_voidInit+0xfc>)
 8003ab0:	89fb      	ldrh	r3, [r7, #14]
 8003ab2:	6013      	str	r3, [r2, #0]
		SPI1->CR2 = LOC_u16Reg_CR2 ;
 8003ab4:	4a0b      	ldr	r2, [pc, #44]	; (8003ae4 <SPI_voidInit+0xfc>)
 8003ab6:	89bb      	ldrh	r3, [r7, #12]
 8003ab8:	6053      	str	r3, [r2, #4]
	else
	{
		// <!TODO> Error in Init
	}

}
 8003aba:	e00b      	b.n	8003ad4 <SPI_voidInit+0xec>
	else if(SPI_Number == SPI_2)
 8003abc:	79fb      	ldrb	r3, [r7, #7]
 8003abe:	2b01      	cmp	r3, #1
 8003ac0:	d108      	bne.n	8003ad4 <SPI_voidInit+0xec>
		Global_SPI_Config[1] = SPI_UsrConfig ;
 8003ac2:	4a07      	ldr	r2, [pc, #28]	; (8003ae0 <SPI_voidInit+0xf8>)
 8003ac4:	683b      	ldr	r3, [r7, #0]
 8003ac6:	6053      	str	r3, [r2, #4]
		SPI2->CR1 = LOC_u16Reg_CR1 ;
 8003ac8:	4a07      	ldr	r2, [pc, #28]	; (8003ae8 <SPI_voidInit+0x100>)
 8003aca:	89fb      	ldrh	r3, [r7, #14]
 8003acc:	6013      	str	r3, [r2, #0]
		SPI2->CR2 = LOC_u16Reg_CR2 ;
 8003ace:	4a06      	ldr	r2, [pc, #24]	; (8003ae8 <SPI_voidInit+0x100>)
 8003ad0:	89bb      	ldrh	r3, [r7, #12]
 8003ad2:	6053      	str	r3, [r2, #4]
}
 8003ad4:	bf00      	nop
 8003ad6:	3714      	adds	r7, #20
 8003ad8:	46bd      	mov	sp, r7
 8003ada:	bc80      	pop	{r7}
 8003adc:	4770      	bx	lr
 8003ade:	bf00      	nop
 8003ae0:	2000011c 	.word	0x2000011c
 8003ae4:	40013000 	.word	0x40013000
 8003ae8:	40003800 	.word	0x40003800

08003aec <SPI_voidSend_RecieveDataSynch>:
		// <!TODO> Error in Init
	}
}

void SPI_voidSend_RecieveDataSynch(SPI_Select_t SPI_Number , u16 *pTxBuffer, u16 *pRxBuffer)
{
 8003aec:	b480      	push	{r7}
 8003aee:	b085      	sub	sp, #20
 8003af0:	af00      	add	r7, sp, #0
 8003af2:	4603      	mov	r3, r0
 8003af4:	60b9      	str	r1, [r7, #8]
 8003af6:	607a      	str	r2, [r7, #4]
 8003af8:	73fb      	strb	r3, [r7, #15]
	if(SPI_Number == SPI_1)
 8003afa:	7bfb      	ldrb	r3, [r7, #15]
 8003afc:	2b00      	cmp	r3, #0
 8003afe:	d117      	bne.n	8003b30 <SPI_voidSend_RecieveDataSynch+0x44>
	{
		SPI_WAIT_TX_EMPTY(SPI1);
 8003b00:	bf00      	nop
 8003b02:	4b1b      	ldr	r3, [pc, #108]	; (8003b70 <SPI_voidSend_RecieveDataSynch+0x84>)
 8003b04:	689b      	ldr	r3, [r3, #8]
 8003b06:	f003 0302 	and.w	r3, r3, #2
 8003b0a:	2b00      	cmp	r3, #0
 8003b0c:	d0f9      	beq.n	8003b02 <SPI_voidSend_RecieveDataSynch+0x16>
		SPI1->DR = *pTxBuffer ;
 8003b0e:	68bb      	ldr	r3, [r7, #8]
 8003b10:	881a      	ldrh	r2, [r3, #0]
 8003b12:	4b17      	ldr	r3, [pc, #92]	; (8003b70 <SPI_voidSend_RecieveDataSynch+0x84>)
 8003b14:	60da      	str	r2, [r3, #12]
		SPI_WAIT_RX_EMPTY(SPI1);
 8003b16:	bf00      	nop
 8003b18:	4b15      	ldr	r3, [pc, #84]	; (8003b70 <SPI_voidSend_RecieveDataSynch+0x84>)
 8003b1a:	689b      	ldr	r3, [r3, #8]
 8003b1c:	f003 0301 	and.w	r3, r3, #1
 8003b20:	2b00      	cmp	r3, #0
 8003b22:	d0f9      	beq.n	8003b18 <SPI_voidSend_RecieveDataSynch+0x2c>
		*pRxBuffer = SPI1->DR  ;
 8003b24:	4b12      	ldr	r3, [pc, #72]	; (8003b70 <SPI_voidSend_RecieveDataSynch+0x84>)
 8003b26:	68db      	ldr	r3, [r3, #12]
 8003b28:	b29a      	uxth	r2, r3
 8003b2a:	687b      	ldr	r3, [r7, #4]
 8003b2c:	801a      	strh	r2, [r3, #0]
	}
	else
	{
		// <!TODO> Error in Init
	}
}
 8003b2e:	e019      	b.n	8003b64 <SPI_voidSend_RecieveDataSynch+0x78>
	else if(SPI_Number == SPI_2)
 8003b30:	7bfb      	ldrb	r3, [r7, #15]
 8003b32:	2b01      	cmp	r3, #1
 8003b34:	d116      	bne.n	8003b64 <SPI_voidSend_RecieveDataSynch+0x78>
		SPI_WAIT_TX_EMPTY(SPI2);
 8003b36:	bf00      	nop
 8003b38:	4b0e      	ldr	r3, [pc, #56]	; (8003b74 <SPI_voidSend_RecieveDataSynch+0x88>)
 8003b3a:	689b      	ldr	r3, [r3, #8]
 8003b3c:	f003 0302 	and.w	r3, r3, #2
 8003b40:	2b00      	cmp	r3, #0
 8003b42:	d0f9      	beq.n	8003b38 <SPI_voidSend_RecieveDataSynch+0x4c>
		SPI2->DR = *pTxBuffer ;
 8003b44:	68bb      	ldr	r3, [r7, #8]
 8003b46:	881a      	ldrh	r2, [r3, #0]
 8003b48:	4b0a      	ldr	r3, [pc, #40]	; (8003b74 <SPI_voidSend_RecieveDataSynch+0x88>)
 8003b4a:	60da      	str	r2, [r3, #12]
		SPI_WAIT_RX_EMPTY(SPI2);
 8003b4c:	bf00      	nop
 8003b4e:	4b09      	ldr	r3, [pc, #36]	; (8003b74 <SPI_voidSend_RecieveDataSynch+0x88>)
 8003b50:	689b      	ldr	r3, [r3, #8]
 8003b52:	f003 0301 	and.w	r3, r3, #1
 8003b56:	2b00      	cmp	r3, #0
 8003b58:	d0f9      	beq.n	8003b4e <SPI_voidSend_RecieveDataSynch+0x62>
		*pRxBuffer = SPI2->DR  ;
 8003b5a:	4b06      	ldr	r3, [pc, #24]	; (8003b74 <SPI_voidSend_RecieveDataSynch+0x88>)
 8003b5c:	68db      	ldr	r3, [r3, #12]
 8003b5e:	b29a      	uxth	r2, r3
 8003b60:	687b      	ldr	r3, [r7, #4]
 8003b62:	801a      	strh	r2, [r3, #0]
}
 8003b64:	bf00      	nop
 8003b66:	3714      	adds	r7, #20
 8003b68:	46bd      	mov	sp, r7
 8003b6a:	bc80      	pop	{r7}
 8003b6c:	4770      	bx	lr
 8003b6e:	bf00      	nop
 8003b70:	40013000 	.word	0x40013000
 8003b74:	40003800 	.word	0x40003800

08003b78 <SPI_VoidGPIO_SetPins>:

void SPI_VoidGPIO_SetPins(SPI_Select_t SPI_Number)
{
 8003b78:	b580      	push	{r7, lr}
 8003b7a:	b082      	sub	sp, #8
 8003b7c:	af00      	add	r7, sp, #0
 8003b7e:	4603      	mov	r3, r0
 8003b80:	71fb      	strb	r3, [r7, #7]
	if(SPI_Number == SPI_1)
 8003b82:	79fb      	ldrb	r3, [r7, #7]
 8003b84:	2b00      	cmp	r3, #0
 8003b86:	d14f      	bne.n	8003c28 <SPI_VoidGPIO_SetPins+0xb0>
		//   	PA4 : SPI1_NSS
		//   	PA5 : SPI1_SCK
		//		PA6 : SPI1_MISO
		//   	PA7 : SPI1_MOSI
		// =========================== Master ====================================
		if(Global_SPI_Config[0]->SPI_Mode == SPI_MASTER)
 8003b88:	4b52      	ldr	r3, [pc, #328]	; (8003cd4 <SPI_VoidGPIO_SetPins+0x15c>)
 8003b8a:	681b      	ldr	r3, [r3, #0]
 8003b8c:	781b      	ldrb	r3, [r3, #0]
 8003b8e:	2b04      	cmp	r3, #4
 8003b90:	d12a      	bne.n	8003be8 <SPI_VoidGPIO_SetPins+0x70>
		{
			// PA4 Chek
			switch(Global_SPI_Config[0]->SPI_SlaveSelectMangment)
 8003b92:	4b50      	ldr	r3, [pc, #320]	; (8003cd4 <SPI_VoidGPIO_SetPins+0x15c>)
 8003b94:	681b      	ldr	r3, [r3, #0]
 8003b96:	f9b3 300a 	ldrsh.w	r3, [r3, #10]
 8003b9a:	f113 0f05 	cmn.w	r3, #5
 8003b9e:	d002      	beq.n	8003ba6 <SPI_VoidGPIO_SetPins+0x2e>
 8003ba0:	2b04      	cmp	r3, #4
 8003ba2:	d006      	beq.n	8003bb2 <SPI_VoidGPIO_SetPins+0x3a>
			{
				case SPI_SSM_HW_MASTER_SS_DISABLED : GPIO_voidSetPinDirection(PORTA,PIN4,GPIO_INPUT_FLOATING); 			  break ; 		// LIKE MULTIMASTER
				case SPI_SSM_HW_MASTER_SS_EN	   : GPIO_voidSetPinDirection(PORTA,PIN4,GPIO_OUTPUT_10MHZ_AF_PUSH_PULL); break ;
				default: break ;
 8003ba4:	e00b      	b.n	8003bbe <SPI_VoidGPIO_SetPins+0x46>
				case SPI_SSM_HW_MASTER_SS_DISABLED : GPIO_voidSetPinDirection(PORTA,PIN4,GPIO_INPUT_FLOATING); 			  break ; 		// LIKE MULTIMASTER
 8003ba6:	2204      	movs	r2, #4
 8003ba8:	2104      	movs	r1, #4
 8003baa:	2002      	movs	r0, #2
 8003bac:	f7ff fc94 	bl	80034d8 <GPIO_voidSetPinDirection>
 8003bb0:	e005      	b.n	8003bbe <SPI_VoidGPIO_SetPins+0x46>
				case SPI_SSM_HW_MASTER_SS_EN	   : GPIO_voidSetPinDirection(PORTA,PIN4,GPIO_OUTPUT_10MHZ_AF_PUSH_PULL); break ;
 8003bb2:	2209      	movs	r2, #9
 8003bb4:	2104      	movs	r1, #4
 8003bb6:	2002      	movs	r0, #2
 8003bb8:	f7ff fc8e 	bl	80034d8 <GPIO_voidSetPinDirection>
 8003bbc:	bf00      	nop
			}
			// PA5 : SPI1_SCK : OUTPUT AF
			GPIO_voidSetPinDirection(PORTA,PIN5,GPIO_OUTPUT_10MHZ_AF_PUSH_PULL);
 8003bbe:	2209      	movs	r2, #9
 8003bc0:	2105      	movs	r1, #5
 8003bc2:	2002      	movs	r0, #2
 8003bc4:	f7ff fc88 	bl	80034d8 <GPIO_voidSetPinDirection>
			// MISO AND MOSI
			if(Global_SPI_Config[0]->SPI_CommMode == SPI_FULL_DOUPLEX)
 8003bc8:	4b42      	ldr	r3, [pc, #264]	; (8003cd4 <SPI_VoidGPIO_SetPins+0x15c>)
 8003bca:	681b      	ldr	r3, [r3, #0]
 8003bcc:	885b      	ldrh	r3, [r3, #2]
 8003bce:	2b00      	cmp	r3, #0
 8003bd0:	d17c      	bne.n	8003ccc <SPI_VoidGPIO_SetPins+0x154>
			{
				// PA6  : SPI1_MISO
				GPIO_voidSetPinDirection(PORTA,PIN6,GPIO_INPUT_FLOATING);
 8003bd2:	2204      	movs	r2, #4
 8003bd4:	2106      	movs	r1, #6
 8003bd6:	2002      	movs	r0, #2
 8003bd8:	f7ff fc7e 	bl	80034d8 <GPIO_voidSetPinDirection>
				// PA7 : SPI1_MOSI
				GPIO_voidSetPinDirection(PORTA,PIN7,GPIO_OUTPUT_10MHZ_AF_PUSH_PULL);
 8003bdc:	2209      	movs	r2, #9
 8003bde:	2107      	movs	r1, #7
 8003be0:	2002      	movs	r0, #2
 8003be2:	f7ff fc79 	bl	80034d8 <GPIO_voidSetPinDirection>
	}
	else
	{
		// <!TODO> Error in Init
	}
}
 8003be6:	e071      	b.n	8003ccc <SPI_VoidGPIO_SetPins+0x154>
			if(Global_SPI_Config[0]->SPI_SlaveSelectMangment == SPI_SSM_HW_SLAVE)
 8003be8:	4b3a      	ldr	r3, [pc, #232]	; (8003cd4 <SPI_VoidGPIO_SetPins+0x15c>)
 8003bea:	681b      	ldr	r3, [r3, #0]
 8003bec:	f9b3 300a 	ldrsh.w	r3, [r3, #10]
 8003bf0:	2b00      	cmp	r3, #0
 8003bf2:	d104      	bne.n	8003bfe <SPI_VoidGPIO_SetPins+0x86>
				GPIO_voidSetPinDirection(PORTA,PIN4,GPIO_INPUT_FLOATING);
 8003bf4:	2204      	movs	r2, #4
 8003bf6:	2104      	movs	r1, #4
 8003bf8:	2002      	movs	r0, #2
 8003bfa:	f7ff fc6d 	bl	80034d8 <GPIO_voidSetPinDirection>
			GPIO_voidSetPinDirection(PORTA,PIN5,GPIO_INPUT_FLOATING);
 8003bfe:	2204      	movs	r2, #4
 8003c00:	2105      	movs	r1, #5
 8003c02:	2002      	movs	r0, #2
 8003c04:	f7ff fc68 	bl	80034d8 <GPIO_voidSetPinDirection>
			if(Global_SPI_Config[0]->SPI_CommMode == SPI_FULL_DOUPLEX)
 8003c08:	4b32      	ldr	r3, [pc, #200]	; (8003cd4 <SPI_VoidGPIO_SetPins+0x15c>)
 8003c0a:	681b      	ldr	r3, [r3, #0]
 8003c0c:	885b      	ldrh	r3, [r3, #2]
 8003c0e:	2b00      	cmp	r3, #0
 8003c10:	d15c      	bne.n	8003ccc <SPI_VoidGPIO_SetPins+0x154>
				GPIO_voidSetPinDirection(PORTA,PIN6,GPIO_OUTPUT_10MHZ_AF_PUSH_PULL);
 8003c12:	2209      	movs	r2, #9
 8003c14:	2106      	movs	r1, #6
 8003c16:	2002      	movs	r0, #2
 8003c18:	f7ff fc5e 	bl	80034d8 <GPIO_voidSetPinDirection>
				GPIO_voidSetPinDirection(PORTA,PIN7,GPIO_INPUT_FLOATING);
 8003c1c:	2204      	movs	r2, #4
 8003c1e:	2107      	movs	r1, #7
 8003c20:	2002      	movs	r0, #2
 8003c22:	f7ff fc59 	bl	80034d8 <GPIO_voidSetPinDirection>
}
 8003c26:	e051      	b.n	8003ccc <SPI_VoidGPIO_SetPins+0x154>
	else if(SPI_Number == SPI_2)
 8003c28:	79fb      	ldrb	r3, [r7, #7]
 8003c2a:	2b01      	cmp	r3, #1
 8003c2c:	d14e      	bne.n	8003ccc <SPI_VoidGPIO_SetPins+0x154>
			if(Global_SPI_Config[1]->SPI_Mode == SPI_MASTER)
 8003c2e:	4b29      	ldr	r3, [pc, #164]	; (8003cd4 <SPI_VoidGPIO_SetPins+0x15c>)
 8003c30:	685b      	ldr	r3, [r3, #4]
 8003c32:	781b      	ldrb	r3, [r3, #0]
 8003c34:	2b04      	cmp	r3, #4
 8003c36:	d12a      	bne.n	8003c8e <SPI_VoidGPIO_SetPins+0x116>
				switch(Global_SPI_Config[1]->SPI_SlaveSelectMangment)
 8003c38:	4b26      	ldr	r3, [pc, #152]	; (8003cd4 <SPI_VoidGPIO_SetPins+0x15c>)
 8003c3a:	685b      	ldr	r3, [r3, #4]
 8003c3c:	f9b3 300a 	ldrsh.w	r3, [r3, #10]
 8003c40:	f113 0f05 	cmn.w	r3, #5
 8003c44:	d002      	beq.n	8003c4c <SPI_VoidGPIO_SetPins+0xd4>
 8003c46:	2b04      	cmp	r3, #4
 8003c48:	d006      	beq.n	8003c58 <SPI_VoidGPIO_SetPins+0xe0>
					default: break ;
 8003c4a:	e00b      	b.n	8003c64 <SPI_VoidGPIO_SetPins+0xec>
					case SPI_SSM_HW_MASTER_SS_DISABLED : GPIO_voidSetPinDirection(PORTB,PIN12,GPIO_INPUT_FLOATING); 			  break ; 		// LIKE MULTIMASTER
 8003c4c:	2204      	movs	r2, #4
 8003c4e:	210c      	movs	r1, #12
 8003c50:	2003      	movs	r0, #3
 8003c52:	f7ff fc41 	bl	80034d8 <GPIO_voidSetPinDirection>
 8003c56:	e005      	b.n	8003c64 <SPI_VoidGPIO_SetPins+0xec>
					case SPI_SSM_HW_MASTER_SS_EN	   : GPIO_voidSetPinDirection(PORTB,PIN12,GPIO_OUTPUT_10MHZ_AF_PUSH_PULL); break ;
 8003c58:	2209      	movs	r2, #9
 8003c5a:	210c      	movs	r1, #12
 8003c5c:	2003      	movs	r0, #3
 8003c5e:	f7ff fc3b 	bl	80034d8 <GPIO_voidSetPinDirection>
 8003c62:	bf00      	nop
				GPIO_voidSetPinDirection(PORTB,PIN13,GPIO_OUTPUT_10MHZ_AF_PUSH_PULL);
 8003c64:	2209      	movs	r2, #9
 8003c66:	210d      	movs	r1, #13
 8003c68:	2003      	movs	r0, #3
 8003c6a:	f7ff fc35 	bl	80034d8 <GPIO_voidSetPinDirection>
				if(Global_SPI_Config[1]->SPI_CommMode == SPI_FULL_DOUPLEX)
 8003c6e:	4b19      	ldr	r3, [pc, #100]	; (8003cd4 <SPI_VoidGPIO_SetPins+0x15c>)
 8003c70:	685b      	ldr	r3, [r3, #4]
 8003c72:	885b      	ldrh	r3, [r3, #2]
 8003c74:	2b00      	cmp	r3, #0
 8003c76:	d129      	bne.n	8003ccc <SPI_VoidGPIO_SetPins+0x154>
					GPIO_voidSetPinDirection(PORTB,PIN14,GPIO_INPUT_FLOATING);
 8003c78:	2204      	movs	r2, #4
 8003c7a:	210e      	movs	r1, #14
 8003c7c:	2003      	movs	r0, #3
 8003c7e:	f7ff fc2b 	bl	80034d8 <GPIO_voidSetPinDirection>
					GPIO_voidSetPinDirection(PORTB,PIN14,GPIO_OUTPUT_10MHZ_AF_PUSH_PULL);
 8003c82:	2209      	movs	r2, #9
 8003c84:	210e      	movs	r1, #14
 8003c86:	2003      	movs	r0, #3
 8003c88:	f7ff fc26 	bl	80034d8 <GPIO_voidSetPinDirection>
}
 8003c8c:	e01e      	b.n	8003ccc <SPI_VoidGPIO_SetPins+0x154>
				if(Global_SPI_Config[1]->SPI_SlaveSelectMangment == SPI_SSM_HW_SLAVE)
 8003c8e:	4b11      	ldr	r3, [pc, #68]	; (8003cd4 <SPI_VoidGPIO_SetPins+0x15c>)
 8003c90:	685b      	ldr	r3, [r3, #4]
 8003c92:	f9b3 300a 	ldrsh.w	r3, [r3, #10]
 8003c96:	2b00      	cmp	r3, #0
 8003c98:	d104      	bne.n	8003ca4 <SPI_VoidGPIO_SetPins+0x12c>
					GPIO_voidSetPinDirection(PORTB,PIN12,GPIO_INPUT_FLOATING);
 8003c9a:	2204      	movs	r2, #4
 8003c9c:	210c      	movs	r1, #12
 8003c9e:	2003      	movs	r0, #3
 8003ca0:	f7ff fc1a 	bl	80034d8 <GPIO_voidSetPinDirection>
				GPIO_voidSetPinDirection(PORTB,PIN13,GPIO_INPUT_FLOATING);
 8003ca4:	2204      	movs	r2, #4
 8003ca6:	210d      	movs	r1, #13
 8003ca8:	2003      	movs	r0, #3
 8003caa:	f7ff fc15 	bl	80034d8 <GPIO_voidSetPinDirection>
				if(Global_SPI_Config[1]->SPI_CommMode == SPI_FULL_DOUPLEX)
 8003cae:	4b09      	ldr	r3, [pc, #36]	; (8003cd4 <SPI_VoidGPIO_SetPins+0x15c>)
 8003cb0:	685b      	ldr	r3, [r3, #4]
 8003cb2:	885b      	ldrh	r3, [r3, #2]
 8003cb4:	2b00      	cmp	r3, #0
 8003cb6:	d109      	bne.n	8003ccc <SPI_VoidGPIO_SetPins+0x154>
					GPIO_voidSetPinDirection(PORTB,PIN14,GPIO_OUTPUT_10MHZ_AF_PUSH_PULL);
 8003cb8:	2209      	movs	r2, #9
 8003cba:	210e      	movs	r1, #14
 8003cbc:	2003      	movs	r0, #3
 8003cbe:	f7ff fc0b 	bl	80034d8 <GPIO_voidSetPinDirection>
					GPIO_voidSetPinDirection(PORTB,PIN14,GPIO_INPUT_FLOATING);
 8003cc2:	2204      	movs	r2, #4
 8003cc4:	210e      	movs	r1, #14
 8003cc6:	2003      	movs	r0, #3
 8003cc8:	f7ff fc06 	bl	80034d8 <GPIO_voidSetPinDirection>
}
 8003ccc:	bf00      	nop
 8003cce:	3708      	adds	r7, #8
 8003cd0:	46bd      	mov	sp, r7
 8003cd2:	bd80      	pop	{r7, pc}
 8003cd4:	2000011c 	.word	0x2000011c

08003cd8 <SPI1_IRQHandler>:
/*************************************	IRQ	************************************************/

void SPI1_IRQHandler(void)
{
 8003cd8:	b580      	push	{r7, lr}
 8003cda:	b082      	sub	sp, #8
 8003cdc:	af00      	add	r7, sp, #0
	SPI_IRQ_SRC irq_src;

	irq_src.SPI_TXE  = ((SPI1->SR & (1<<1)) >> 1);
 8003cde:	4b13      	ldr	r3, [pc, #76]	; (8003d2c <SPI1_IRQHandler+0x54>)
 8003ce0:	689b      	ldr	r3, [r3, #8]
 8003ce2:	085b      	lsrs	r3, r3, #1
 8003ce4:	f003 0301 	and.w	r3, r3, #1
 8003ce8:	b2da      	uxtb	r2, r3
 8003cea:	793b      	ldrb	r3, [r7, #4]
 8003cec:	f362 0300 	bfi	r3, r2, #0, #1
 8003cf0:	713b      	strb	r3, [r7, #4]
	irq_src.SPI_RXNE = ((SPI1->SR & (1<<0)) >> 0);
 8003cf2:	4b0e      	ldr	r3, [pc, #56]	; (8003d2c <SPI1_IRQHandler+0x54>)
 8003cf4:	689b      	ldr	r3, [r3, #8]
 8003cf6:	f003 0301 	and.w	r3, r3, #1
 8003cfa:	b2da      	uxtb	r2, r3
 8003cfc:	793b      	ldrb	r3, [r7, #4]
 8003cfe:	f362 0341 	bfi	r3, r2, #1, #1
 8003d02:	713b      	strb	r3, [r7, #4]
	irq_src.SPI_ERROR = ((SPI1->SR & (1<<4)) >> 4);
 8003d04:	4b09      	ldr	r3, [pc, #36]	; (8003d2c <SPI1_IRQHandler+0x54>)
 8003d06:	689b      	ldr	r3, [r3, #8]
 8003d08:	091b      	lsrs	r3, r3, #4
 8003d0a:	f003 0301 	and.w	r3, r3, #1
 8003d0e:	b2da      	uxtb	r2, r3
 8003d10:	793b      	ldrb	r3, [r7, #4]
 8003d12:	f362 0382 	bfi	r3, r2, #2, #1
 8003d16:	713b      	strb	r3, [r7, #4]

	Global_SPI_Config[0]->P_IRQ_CallBack(irq_src);
 8003d18:	4b05      	ldr	r3, [pc, #20]	; (8003d30 <SPI1_IRQHandler+0x58>)
 8003d1a:	681b      	ldr	r3, [r3, #0]
 8003d1c:	691b      	ldr	r3, [r3, #16]
 8003d1e:	7938      	ldrb	r0, [r7, #4]
 8003d20:	4798      	blx	r3
}
 8003d22:	bf00      	nop
 8003d24:	3708      	adds	r7, #8
 8003d26:	46bd      	mov	sp, r7
 8003d28:	bd80      	pop	{r7, pc}
 8003d2a:	bf00      	nop
 8003d2c:	40013000 	.word	0x40013000
 8003d30:	2000011c 	.word	0x2000011c

08003d34 <SPI2_IRQHandler>:

void SPI2_IRQHandler(void)
{
 8003d34:	b580      	push	{r7, lr}
 8003d36:	b082      	sub	sp, #8
 8003d38:	af00      	add	r7, sp, #0
	SPI_IRQ_SRC irq_src;

	irq_src.SPI_TXE  = ((SPI1->SR & (1<<1)) >> 1);
 8003d3a:	4b13      	ldr	r3, [pc, #76]	; (8003d88 <SPI2_IRQHandler+0x54>)
 8003d3c:	689b      	ldr	r3, [r3, #8]
 8003d3e:	085b      	lsrs	r3, r3, #1
 8003d40:	f003 0301 	and.w	r3, r3, #1
 8003d44:	b2da      	uxtb	r2, r3
 8003d46:	793b      	ldrb	r3, [r7, #4]
 8003d48:	f362 0300 	bfi	r3, r2, #0, #1
 8003d4c:	713b      	strb	r3, [r7, #4]
	irq_src.SPI_RXNE = ((SPI1->SR & (1<<0)) >> 0);
 8003d4e:	4b0e      	ldr	r3, [pc, #56]	; (8003d88 <SPI2_IRQHandler+0x54>)
 8003d50:	689b      	ldr	r3, [r3, #8]
 8003d52:	f003 0301 	and.w	r3, r3, #1
 8003d56:	b2da      	uxtb	r2, r3
 8003d58:	793b      	ldrb	r3, [r7, #4]
 8003d5a:	f362 0341 	bfi	r3, r2, #1, #1
 8003d5e:	713b      	strb	r3, [r7, #4]
	irq_src.SPI_ERROR = ((SPI1->SR & (1<<4)) >> 4);
 8003d60:	4b09      	ldr	r3, [pc, #36]	; (8003d88 <SPI2_IRQHandler+0x54>)
 8003d62:	689b      	ldr	r3, [r3, #8]
 8003d64:	091b      	lsrs	r3, r3, #4
 8003d66:	f003 0301 	and.w	r3, r3, #1
 8003d6a:	b2da      	uxtb	r2, r3
 8003d6c:	793b      	ldrb	r3, [r7, #4]
 8003d6e:	f362 0382 	bfi	r3, r2, #2, #1
 8003d72:	713b      	strb	r3, [r7, #4]

	Global_SPI_Config[1]->P_IRQ_CallBack(irq_src);
 8003d74:	4b05      	ldr	r3, [pc, #20]	; (8003d8c <SPI2_IRQHandler+0x58>)
 8003d76:	685b      	ldr	r3, [r3, #4]
 8003d78:	691b      	ldr	r3, [r3, #16]
 8003d7a:	7938      	ldrb	r0, [r7, #4]
 8003d7c:	4798      	blx	r3
}
 8003d7e:	bf00      	nop
 8003d80:	3708      	adds	r7, #8
 8003d82:	46bd      	mov	sp, r7
 8003d84:	bd80      	pop	{r7, pc}
 8003d86:	bf00      	nop
 8003d88:	40013000 	.word	0x40013000
 8003d8c:	2000011c 	.word	0x2000011c

08003d90 <USART_voidInit>:

/******************************************************************************
* Function Definitions
*******************************************************************************/
void USART_voidInit(USART_Number_t  USART_Number , USART_Config * usrConfig)
{
 8003d90:	b580      	push	{r7, lr}
 8003d92:	b086      	sub	sp, #24
 8003d94:	af00      	add	r7, sp, #0
 8003d96:	4603      	mov	r3, r0
 8003d98:	6039      	str	r1, [r7, #0]
 8003d9a:	71fb      	strb	r3, [r7, #7]
	u16 LOC_u16CR1 = 0 ;
 8003d9c:	2300      	movs	r3, #0
 8003d9e:	82fb      	strh	r3, [r7, #22]
	u16 LOC_u16CR2 = 0 ;
 8003da0:	2300      	movs	r3, #0
 8003da2:	82bb      	strh	r3, [r7, #20]
	u16 LOC_u16CR3 = 0 ;
 8003da4:	2300      	movs	r3, #0
 8003da6:	827b      	strh	r3, [r7, #18]

/********************************************************* CR1 REG	****************************************************************/
	LOC_u16CR1 = (1<<13)								/*	Enable	*/
				|(usrConfig->USART_DataLength)			/*	Data Length	*/
 8003da8:	683b      	ldr	r3, [r7, #0]
 8003daa:	891a      	ldrh	r2, [r3, #8]
				|(usrConfig->USART_Parity)				/*	 Parity control	*/
 8003dac:	683b      	ldr	r3, [r7, #0]
 8003dae:	895b      	ldrh	r3, [r3, #10]
				|(usrConfig->USART_OperationMode)		/*	Tx,Rx or Tx and Rx*/
 8003db0:	4313      	orrs	r3, r2
 8003db2:	b29a      	uxth	r2, r3
 8003db4:	683b      	ldr	r3, [r7, #0]
 8003db6:	781b      	ldrb	r3, [r3, #0]
 8003db8:	b29b      	uxth	r3, r3
 8003dba:	4313      	orrs	r3, r2
 8003dbc:	b29a      	uxth	r2, r3
				|(usrConfig->USART_IRQ_t) ;
 8003dbe:	683b      	ldr	r3, [r7, #0]
 8003dc0:	8adb      	ldrh	r3, [r3, #22]
 8003dc2:	4313      	orrs	r3, r2
 8003dc4:	b29b      	uxth	r3, r3
	LOC_u16CR1 = (1<<13)								/*	Enable	*/
 8003dc6:	f443 5300 	orr.w	r3, r3, #8192	; 0x2000
 8003dca:	82fb      	strh	r3, [r7, #22]
			LOC_u16CR1 |= (usrConfig->USART_IRQ_t[LOC_u8Counter]) ;
		}
	}
*/
/******************************************************* CR2 REG ********************************************************************/
	LOC_u16CR2 = (usrConfig->USART_StopBit) 			/*	Number of Stop Bits	*/
 8003dcc:	683b      	ldr	r3, [r7, #0]
 8003dce:	899a      	ldrh	r2, [r3, #12]
				|(usrConfig->USART_IdleLevel)			/*	Clock polarity		*/
 8003dd0:	683b      	ldr	r3, [r7, #0]
 8003dd2:	8a1b      	ldrh	r3, [r3, #16]
	LOC_u16CR2 = (usrConfig->USART_StopBit) 			/*	Number of Stop Bits	*/
 8003dd4:	4313      	orrs	r3, r2
 8003dd6:	b29a      	uxth	r2, r3
				|(usrConfig->USART_DataSampling);		/*	Clock phase			*/
 8003dd8:	683b      	ldr	r3, [r7, #0]
 8003dda:	8a5b      	ldrh	r3, [r3, #18]
	LOC_u16CR2 = (usrConfig->USART_StopBit) 			/*	Number of Stop Bits	*/
 8003ddc:	4313      	orrs	r3, r2
 8003dde:	82bb      	strh	r3, [r7, #20]
/******************************************************* CR3 REG ********************************************************************/
	LOC_u16CR3 = (usrConfig->USART_DMA);			/*	DMA		*/
 8003de0:	683b      	ldr	r3, [r7, #0]
 8003de2:	7d1b      	ldrb	r3, [r3, #20]
 8003de4:	827b      	strh	r3, [r7, #18]

/******************************************************* BuadRate ********************************************************************/
	Global_USART_Config[USART_Number] = usrConfig ;
 8003de6:	79fb      	ldrb	r3, [r7, #7]
 8003de8:	4920      	ldr	r1, [pc, #128]	; (8003e6c <USART_voidInit+0xdc>)
 8003dea:	683a      	ldr	r2, [r7, #0]
 8003dec:	f841 2023 	str.w	r2, [r1, r3, lsl #2]
	u32 BRR_Reg = 0 ;
 8003df0:	2300      	movs	r3, #0
 8003df2:	60fb      	str	r3, [r7, #12]
	USART_voidBuadRateCalc(usrConfig->USART_BuadRate , 8000000 , &BRR_Reg);
 8003df4:	683b      	ldr	r3, [r7, #0]
 8003df6:	685b      	ldr	r3, [r3, #4]
 8003df8:	f107 020c 	add.w	r2, r7, #12
 8003dfc:	491c      	ldr	r1, [pc, #112]	; (8003e70 <USART_voidInit+0xe0>)
 8003dfe:	4618      	mov	r0, r3
 8003e00:	f000 f9a6 	bl	8004150 <USART_voidBuadRateCalc>


/******************************************************* Regs ********************************************************************/


	switch(USART_Number)
 8003e04:	79fb      	ldrb	r3, [r7, #7]
 8003e06:	2b01      	cmp	r3, #1
 8003e08:	d011      	beq.n	8003e2e <USART_voidInit+0x9e>
 8003e0a:	2b02      	cmp	r3, #2
 8003e0c:	d01c      	beq.n	8003e48 <USART_voidInit+0xb8>
 8003e0e:	2b00      	cmp	r3, #0
 8003e10:	d000      	beq.n	8003e14 <USART_voidInit+0x84>
	{
	case USART_1 : USART1->BRR =  BRR_Reg  ; USART1->CR1 = LOC_u16CR1 ;  USART1->CR2 = LOC_u16CR2 , USART1->CR3 = LOC_u16CR3 ; 	break ;
	case USART_2 : USART2->BRR =  BRR_Reg  ; USART2->CR1 = LOC_u16CR1 ;  USART2->CR2 = LOC_u16CR2 ; USART2->CR3 = LOC_u16CR3 ;   	break ;
	case USART_3 : USART3->BRR =  BRR_Reg  ; USART3->CR1 = LOC_u16CR1 ;  USART3->CR2 = LOC_u16CR2 ; USART3->CR3 = LOC_u16CR3 ; 	break ;
	default : break ;
 8003e12:	e026      	b.n	8003e62 <USART_voidInit+0xd2>
	case USART_1 : USART1->BRR =  BRR_Reg  ; USART1->CR1 = LOC_u16CR1 ;  USART1->CR2 = LOC_u16CR2 , USART1->CR3 = LOC_u16CR3 ; 	break ;
 8003e14:	4a17      	ldr	r2, [pc, #92]	; (8003e74 <USART_voidInit+0xe4>)
 8003e16:	68fb      	ldr	r3, [r7, #12]
 8003e18:	6093      	str	r3, [r2, #8]
 8003e1a:	4a16      	ldr	r2, [pc, #88]	; (8003e74 <USART_voidInit+0xe4>)
 8003e1c:	8afb      	ldrh	r3, [r7, #22]
 8003e1e:	60d3      	str	r3, [r2, #12]
 8003e20:	4a14      	ldr	r2, [pc, #80]	; (8003e74 <USART_voidInit+0xe4>)
 8003e22:	8abb      	ldrh	r3, [r7, #20]
 8003e24:	6113      	str	r3, [r2, #16]
 8003e26:	4a13      	ldr	r2, [pc, #76]	; (8003e74 <USART_voidInit+0xe4>)
 8003e28:	8a7b      	ldrh	r3, [r7, #18]
 8003e2a:	6153      	str	r3, [r2, #20]
 8003e2c:	e019      	b.n	8003e62 <USART_voidInit+0xd2>
	case USART_2 : USART2->BRR =  BRR_Reg  ; USART2->CR1 = LOC_u16CR1 ;  USART2->CR2 = LOC_u16CR2 ; USART2->CR3 = LOC_u16CR3 ;   	break ;
 8003e2e:	4a12      	ldr	r2, [pc, #72]	; (8003e78 <USART_voidInit+0xe8>)
 8003e30:	68fb      	ldr	r3, [r7, #12]
 8003e32:	6093      	str	r3, [r2, #8]
 8003e34:	4a10      	ldr	r2, [pc, #64]	; (8003e78 <USART_voidInit+0xe8>)
 8003e36:	8afb      	ldrh	r3, [r7, #22]
 8003e38:	60d3      	str	r3, [r2, #12]
 8003e3a:	4a0f      	ldr	r2, [pc, #60]	; (8003e78 <USART_voidInit+0xe8>)
 8003e3c:	8abb      	ldrh	r3, [r7, #20]
 8003e3e:	6113      	str	r3, [r2, #16]
 8003e40:	4a0d      	ldr	r2, [pc, #52]	; (8003e78 <USART_voidInit+0xe8>)
 8003e42:	8a7b      	ldrh	r3, [r7, #18]
 8003e44:	6153      	str	r3, [r2, #20]
 8003e46:	e00c      	b.n	8003e62 <USART_voidInit+0xd2>
	case USART_3 : USART3->BRR =  BRR_Reg  ; USART3->CR1 = LOC_u16CR1 ;  USART3->CR2 = LOC_u16CR2 ; USART3->CR3 = LOC_u16CR3 ; 	break ;
 8003e48:	4a0c      	ldr	r2, [pc, #48]	; (8003e7c <USART_voidInit+0xec>)
 8003e4a:	68fb      	ldr	r3, [r7, #12]
 8003e4c:	6093      	str	r3, [r2, #8]
 8003e4e:	4a0b      	ldr	r2, [pc, #44]	; (8003e7c <USART_voidInit+0xec>)
 8003e50:	8afb      	ldrh	r3, [r7, #22]
 8003e52:	60d3      	str	r3, [r2, #12]
 8003e54:	4a09      	ldr	r2, [pc, #36]	; (8003e7c <USART_voidInit+0xec>)
 8003e56:	8abb      	ldrh	r3, [r7, #20]
 8003e58:	6113      	str	r3, [r2, #16]
 8003e5a:	4a08      	ldr	r2, [pc, #32]	; (8003e7c <USART_voidInit+0xec>)
 8003e5c:	8a7b      	ldrh	r3, [r7, #18]
 8003e5e:	6153      	str	r3, [r2, #20]
 8003e60:	bf00      	nop

	}
}
 8003e62:	bf00      	nop
 8003e64:	3718      	adds	r7, #24
 8003e66:	46bd      	mov	sp, r7
 8003e68:	bd80      	pop	{r7, pc}
 8003e6a:	bf00      	nop
 8003e6c:	20000124 	.word	0x20000124
 8003e70:	007a1200 	.word	0x007a1200
 8003e74:	40013800 	.word	0x40013800
 8003e78:	40004400 	.word	0x40004400
 8003e7c:	40004800 	.word	0x40004800

08003e80 <USART_voidSendDataSynch>:

void USART_voidSendDataSynch(USART_Number_t USART_Number , u16 *P_u16Data)
{
 8003e80:	b480      	push	{r7}
 8003e82:	b083      	sub	sp, #12
 8003e84:	af00      	add	r7, sp, #0
 8003e86:	4603      	mov	r3, r0
 8003e88:	6039      	str	r1, [r7, #0]
 8003e8a:	71fb      	strb	r3, [r7, #7]
	switch(USART_Number)
 8003e8c:	79fb      	ldrb	r3, [r7, #7]
 8003e8e:	2b01      	cmp	r3, #1
 8003e90:	d019      	beq.n	8003ec6 <USART_voidSendDataSynch+0x46>
 8003e92:	2b02      	cmp	r3, #2
 8003e94:	d02c      	beq.n	8003ef0 <USART_voidSendDataSynch+0x70>
 8003e96:	2b00      	cmp	r3, #0
 8003e98:	d000      	beq.n	8003e9c <USART_voidSendDataSynch+0x1c>
		WAIT_TO_TXE(USART3)	;
		USART3->DR = *P_u16Data ;
		WAIT_TO_TXC(USART3);
		break ;
	default:
		break ;
 8003e9a:	e03e      	b.n	8003f1a <USART_voidSendDataSynch+0x9a>
		WAIT_TO_TXE(USART1)	;
 8003e9c:	bf00      	nop
 8003e9e:	4b21      	ldr	r3, [pc, #132]	; (8003f24 <USART_voidSendDataSynch+0xa4>)
 8003ea0:	681b      	ldr	r3, [r3, #0]
 8003ea2:	09db      	lsrs	r3, r3, #7
 8003ea4:	f003 0301 	and.w	r3, r3, #1
 8003ea8:	2b00      	cmp	r3, #0
 8003eaa:	d0f8      	beq.n	8003e9e <USART_voidSendDataSynch+0x1e>
		USART1->DR = *P_u16Data ;
 8003eac:	683b      	ldr	r3, [r7, #0]
 8003eae:	881a      	ldrh	r2, [r3, #0]
 8003eb0:	4b1c      	ldr	r3, [pc, #112]	; (8003f24 <USART_voidSendDataSynch+0xa4>)
 8003eb2:	605a      	str	r2, [r3, #4]
		WAIT_TO_TXC(USART1);
 8003eb4:	bf00      	nop
 8003eb6:	4b1b      	ldr	r3, [pc, #108]	; (8003f24 <USART_voidSendDataSynch+0xa4>)
 8003eb8:	681b      	ldr	r3, [r3, #0]
 8003eba:	099b      	lsrs	r3, r3, #6
 8003ebc:	f003 0301 	and.w	r3, r3, #1
 8003ec0:	2b00      	cmp	r3, #0
 8003ec2:	d0f8      	beq.n	8003eb6 <USART_voidSendDataSynch+0x36>
		break ;
 8003ec4:	e029      	b.n	8003f1a <USART_voidSendDataSynch+0x9a>
		WAIT_TO_TXE(USART2)	;
 8003ec6:	bf00      	nop
 8003ec8:	4b17      	ldr	r3, [pc, #92]	; (8003f28 <USART_voidSendDataSynch+0xa8>)
 8003eca:	681b      	ldr	r3, [r3, #0]
 8003ecc:	09db      	lsrs	r3, r3, #7
 8003ece:	f003 0301 	and.w	r3, r3, #1
 8003ed2:	2b00      	cmp	r3, #0
 8003ed4:	d0f8      	beq.n	8003ec8 <USART_voidSendDataSynch+0x48>
		USART2->DR = *P_u16Data ;
 8003ed6:	683b      	ldr	r3, [r7, #0]
 8003ed8:	881a      	ldrh	r2, [r3, #0]
 8003eda:	4b13      	ldr	r3, [pc, #76]	; (8003f28 <USART_voidSendDataSynch+0xa8>)
 8003edc:	605a      	str	r2, [r3, #4]
		WAIT_TO_TXC(USART2);
 8003ede:	bf00      	nop
 8003ee0:	4b11      	ldr	r3, [pc, #68]	; (8003f28 <USART_voidSendDataSynch+0xa8>)
 8003ee2:	681b      	ldr	r3, [r3, #0]
 8003ee4:	099b      	lsrs	r3, r3, #6
 8003ee6:	f003 0301 	and.w	r3, r3, #1
 8003eea:	2b00      	cmp	r3, #0
 8003eec:	d0f8      	beq.n	8003ee0 <USART_voidSendDataSynch+0x60>
		break ;
 8003eee:	e014      	b.n	8003f1a <USART_voidSendDataSynch+0x9a>
		WAIT_TO_TXE(USART3)	;
 8003ef0:	bf00      	nop
 8003ef2:	4b0e      	ldr	r3, [pc, #56]	; (8003f2c <USART_voidSendDataSynch+0xac>)
 8003ef4:	681b      	ldr	r3, [r3, #0]
 8003ef6:	09db      	lsrs	r3, r3, #7
 8003ef8:	f003 0301 	and.w	r3, r3, #1
 8003efc:	2b00      	cmp	r3, #0
 8003efe:	d0f8      	beq.n	8003ef2 <USART_voidSendDataSynch+0x72>
		USART3->DR = *P_u16Data ;
 8003f00:	683b      	ldr	r3, [r7, #0]
 8003f02:	881a      	ldrh	r2, [r3, #0]
 8003f04:	4b09      	ldr	r3, [pc, #36]	; (8003f2c <USART_voidSendDataSynch+0xac>)
 8003f06:	605a      	str	r2, [r3, #4]
		WAIT_TO_TXC(USART3);
 8003f08:	bf00      	nop
 8003f0a:	4b08      	ldr	r3, [pc, #32]	; (8003f2c <USART_voidSendDataSynch+0xac>)
 8003f0c:	681b      	ldr	r3, [r3, #0]
 8003f0e:	099b      	lsrs	r3, r3, #6
 8003f10:	f003 0301 	and.w	r3, r3, #1
 8003f14:	2b00      	cmp	r3, #0
 8003f16:	d0f8      	beq.n	8003f0a <USART_voidSendDataSynch+0x8a>
		break ;
 8003f18:	bf00      	nop
	}
}
 8003f1a:	bf00      	nop
 8003f1c:	370c      	adds	r7, #12
 8003f1e:	46bd      	mov	sp, r7
 8003f20:	bc80      	pop	{r7}
 8003f22:	4770      	bx	lr
 8003f24:	40013800 	.word	0x40013800
 8003f28:	40004400 	.word	0x40004400
 8003f2c:	40004800 	.word	0x40004800

08003f30 <USART_voidReceiveDataSynch>:
		break ;
	}
}

void USART_voidReceiveDataSynch(USART_Number_t USART_Number , u16 *P_u16Data)
{
 8003f30:	b480      	push	{r7}
 8003f32:	b083      	sub	sp, #12
 8003f34:	af00      	add	r7, sp, #0
 8003f36:	4603      	mov	r3, r0
 8003f38:	6039      	str	r1, [r7, #0]
 8003f3a:	71fb      	strb	r3, [r7, #7]

	if(Global_USART_Config[USART_Number]->USART_DataLength == USART_9BIT)
 8003f3c:	79fb      	ldrb	r3, [r7, #7]
 8003f3e:	4a80      	ldr	r2, [pc, #512]	; (8004140 <USART_voidReceiveDataSynch+0x210>)
 8003f40:	f852 3023 	ldr.w	r3, [r2, r3, lsl #2]
 8003f44:	891b      	ldrh	r3, [r3, #8]
 8003f46:	f5b3 5f80 	cmp.w	r3, #4096	; 0x1000
 8003f4a:	d179      	bne.n	8004040 <USART_voidReceiveDataSynch+0x110>
	{
		if(Global_USART_Config[USART_Number]->USART_Parity == USART_DISABLE_PARITY)
 8003f4c:	79fb      	ldrb	r3, [r7, #7]
 8003f4e:	4a7c      	ldr	r2, [pc, #496]	; (8004140 <USART_voidReceiveDataSynch+0x210>)
 8003f50:	f852 3023 	ldr.w	r3, [r2, r3, lsl #2]
 8003f54:	895b      	ldrh	r3, [r3, #10]
 8003f56:	2b00      	cmp	r3, #0
 8003f58:	d13a      	bne.n	8003fd0 <USART_voidReceiveDataSynch+0xa0>
		{
			// 9-BIT DATA
			switch(USART_Number)
 8003f5a:	79fb      	ldrb	r3, [r7, #7]
 8003f5c:	2b01      	cmp	r3, #1
 8003f5e:	d015      	beq.n	8003f8c <USART_voidReceiveDataSynch+0x5c>
 8003f60:	2b02      	cmp	r3, #2
 8003f62:	d024      	beq.n	8003fae <USART_voidReceiveDataSynch+0x7e>
 8003f64:	2b00      	cmp	r3, #0
 8003f66:	d000      	beq.n	8003f6a <USART_voidReceiveDataSynch+0x3a>
			case USART_3:
				WAIT_TO_RXNE(USART3)	;
				*P_u16Data = (USART3->DR) & 0x1FF  ;
				break ;
			default:
				break ;
 8003f68:	e0e4      	b.n	8004134 <USART_voidReceiveDataSynch+0x204>
				WAIT_TO_RXNE(USART1)	;
 8003f6a:	bf00      	nop
 8003f6c:	4b75      	ldr	r3, [pc, #468]	; (8004144 <USART_voidReceiveDataSynch+0x214>)
 8003f6e:	681b      	ldr	r3, [r3, #0]
 8003f70:	095b      	lsrs	r3, r3, #5
 8003f72:	f003 0301 	and.w	r3, r3, #1
 8003f76:	2b00      	cmp	r3, #0
 8003f78:	d0f8      	beq.n	8003f6c <USART_voidReceiveDataSynch+0x3c>
				*P_u16Data = (USART1->DR) & 0x1FF ;
 8003f7a:	4b72      	ldr	r3, [pc, #456]	; (8004144 <USART_voidReceiveDataSynch+0x214>)
 8003f7c:	685b      	ldr	r3, [r3, #4]
 8003f7e:	b29b      	uxth	r3, r3
 8003f80:	f3c3 0308 	ubfx	r3, r3, #0, #9
 8003f84:	b29a      	uxth	r2, r3
 8003f86:	683b      	ldr	r3, [r7, #0]
 8003f88:	801a      	strh	r2, [r3, #0]
				break ;
 8003f8a:	e0d3      	b.n	8004134 <USART_voidReceiveDataSynch+0x204>
				WAIT_TO_RXNE(USART2)	;
 8003f8c:	bf00      	nop
 8003f8e:	4b6e      	ldr	r3, [pc, #440]	; (8004148 <USART_voidReceiveDataSynch+0x218>)
 8003f90:	681b      	ldr	r3, [r3, #0]
 8003f92:	095b      	lsrs	r3, r3, #5
 8003f94:	f003 0301 	and.w	r3, r3, #1
 8003f98:	2b00      	cmp	r3, #0
 8003f9a:	d0f8      	beq.n	8003f8e <USART_voidReceiveDataSynch+0x5e>
				*P_u16Data = (USART2->DR) & 0x1FF  ;
 8003f9c:	4b6a      	ldr	r3, [pc, #424]	; (8004148 <USART_voidReceiveDataSynch+0x218>)
 8003f9e:	685b      	ldr	r3, [r3, #4]
 8003fa0:	b29b      	uxth	r3, r3
 8003fa2:	f3c3 0308 	ubfx	r3, r3, #0, #9
 8003fa6:	b29a      	uxth	r2, r3
 8003fa8:	683b      	ldr	r3, [r7, #0]
 8003faa:	801a      	strh	r2, [r3, #0]
				break ;
 8003fac:	e0c2      	b.n	8004134 <USART_voidReceiveDataSynch+0x204>
				WAIT_TO_RXNE(USART3)	;
 8003fae:	bf00      	nop
 8003fb0:	4b66      	ldr	r3, [pc, #408]	; (800414c <USART_voidReceiveDataSynch+0x21c>)
 8003fb2:	681b      	ldr	r3, [r3, #0]
 8003fb4:	095b      	lsrs	r3, r3, #5
 8003fb6:	f003 0301 	and.w	r3, r3, #1
 8003fba:	2b00      	cmp	r3, #0
 8003fbc:	d0f8      	beq.n	8003fb0 <USART_voidReceiveDataSynch+0x80>
				*P_u16Data = (USART3->DR) & 0x1FF  ;
 8003fbe:	4b63      	ldr	r3, [pc, #396]	; (800414c <USART_voidReceiveDataSynch+0x21c>)
 8003fc0:	685b      	ldr	r3, [r3, #4]
 8003fc2:	b29b      	uxth	r3, r3
 8003fc4:	f3c3 0308 	ubfx	r3, r3, #0, #9
 8003fc8:	b29a      	uxth	r2, r3
 8003fca:	683b      	ldr	r3, [r7, #0]
 8003fcc:	801a      	strh	r2, [r3, #0]
				break ;
 8003fce:	e0b1      	b.n	8004134 <USART_voidReceiveDataSynch+0x204>

		}
		else
		{
			// 9-bit is parity
			switch(USART_Number)
 8003fd0:	79fb      	ldrb	r3, [r7, #7]
 8003fd2:	2b01      	cmp	r3, #1
 8003fd4:	d014      	beq.n	8004000 <USART_voidReceiveDataSynch+0xd0>
 8003fd6:	2b02      	cmp	r3, #2
 8003fd8:	d022      	beq.n	8004020 <USART_voidReceiveDataSynch+0xf0>
 8003fda:	2b00      	cmp	r3, #0
 8003fdc:	d000      	beq.n	8003fe0 <USART_voidReceiveDataSynch+0xb0>
			case USART_3:
				WAIT_TO_RXNE(USART3)	;
				*P_u16Data =( USART3->DR)& ((u8)0xFF) ;
				break ;
			default:
				break ;
 8003fde:	e0a9      	b.n	8004134 <USART_voidReceiveDataSynch+0x204>
				WAIT_TO_RXNE(USART1)	;
 8003fe0:	bf00      	nop
 8003fe2:	4b58      	ldr	r3, [pc, #352]	; (8004144 <USART_voidReceiveDataSynch+0x214>)
 8003fe4:	681b      	ldr	r3, [r3, #0]
 8003fe6:	095b      	lsrs	r3, r3, #5
 8003fe8:	f003 0301 	and.w	r3, r3, #1
 8003fec:	2b00      	cmp	r3, #0
 8003fee:	d0f8      	beq.n	8003fe2 <USART_voidReceiveDataSynch+0xb2>
				*P_u16Data = (USART1->DR)& ((u8)0xFF) ;
 8003ff0:	4b54      	ldr	r3, [pc, #336]	; (8004144 <USART_voidReceiveDataSynch+0x214>)
 8003ff2:	685b      	ldr	r3, [r3, #4]
 8003ff4:	b29b      	uxth	r3, r3
 8003ff6:	b2db      	uxtb	r3, r3
 8003ff8:	b29a      	uxth	r2, r3
 8003ffa:	683b      	ldr	r3, [r7, #0]
 8003ffc:	801a      	strh	r2, [r3, #0]
				break ;
 8003ffe:	e099      	b.n	8004134 <USART_voidReceiveDataSynch+0x204>
				WAIT_TO_RXNE(USART2)	;
 8004000:	bf00      	nop
 8004002:	4b51      	ldr	r3, [pc, #324]	; (8004148 <USART_voidReceiveDataSynch+0x218>)
 8004004:	681b      	ldr	r3, [r3, #0]
 8004006:	095b      	lsrs	r3, r3, #5
 8004008:	f003 0301 	and.w	r3, r3, #1
 800400c:	2b00      	cmp	r3, #0
 800400e:	d0f8      	beq.n	8004002 <USART_voidReceiveDataSynch+0xd2>
				*P_u16Data = (USART2->DR) &((u8)0xFF) ;
 8004010:	4b4d      	ldr	r3, [pc, #308]	; (8004148 <USART_voidReceiveDataSynch+0x218>)
 8004012:	685b      	ldr	r3, [r3, #4]
 8004014:	b29b      	uxth	r3, r3
 8004016:	b2db      	uxtb	r3, r3
 8004018:	b29a      	uxth	r2, r3
 800401a:	683b      	ldr	r3, [r7, #0]
 800401c:	801a      	strh	r2, [r3, #0]
				break ;
 800401e:	e089      	b.n	8004134 <USART_voidReceiveDataSynch+0x204>
				WAIT_TO_RXNE(USART3)	;
 8004020:	bf00      	nop
 8004022:	4b4a      	ldr	r3, [pc, #296]	; (800414c <USART_voidReceiveDataSynch+0x21c>)
 8004024:	681b      	ldr	r3, [r3, #0]
 8004026:	095b      	lsrs	r3, r3, #5
 8004028:	f003 0301 	and.w	r3, r3, #1
 800402c:	2b00      	cmp	r3, #0
 800402e:	d0f8      	beq.n	8004022 <USART_voidReceiveDataSynch+0xf2>
				*P_u16Data =( USART3->DR)& ((u8)0xFF) ;
 8004030:	4b46      	ldr	r3, [pc, #280]	; (800414c <USART_voidReceiveDataSynch+0x21c>)
 8004032:	685b      	ldr	r3, [r3, #4]
 8004034:	b29b      	uxth	r3, r3
 8004036:	b2db      	uxtb	r3, r3
 8004038:	b29a      	uxth	r2, r3
 800403a:	683b      	ldr	r3, [r7, #0]
 800403c:	801a      	strh	r2, [r3, #0]
				break ;
 800403e:	e079      	b.n	8004134 <USART_voidReceiveDataSynch+0x204>
			}
		}
	}
	else
	{
		if(Global_USART_Config[USART_Number]->USART_Parity == USART_DISABLE_PARITY)
 8004040:	79fb      	ldrb	r3, [r7, #7]
 8004042:	4a3f      	ldr	r2, [pc, #252]	; (8004140 <USART_voidReceiveDataSynch+0x210>)
 8004044:	f852 3023 	ldr.w	r3, [r2, r3, lsl #2]
 8004048:	895b      	ldrh	r3, [r3, #10]
 800404a:	2b00      	cmp	r3, #0
 800404c:	d137      	bne.n	80040be <USART_voidReceiveDataSynch+0x18e>
		{
			switch(USART_Number)
 800404e:	79fb      	ldrb	r3, [r7, #7]
 8004050:	2b01      	cmp	r3, #1
 8004052:	d014      	beq.n	800407e <USART_voidReceiveDataSynch+0x14e>
 8004054:	2b02      	cmp	r3, #2
 8004056:	d022      	beq.n	800409e <USART_voidReceiveDataSynch+0x16e>
 8004058:	2b00      	cmp	r3, #0
 800405a:	d000      	beq.n	800405e <USART_voidReceiveDataSynch+0x12e>
			case USART_3:
				WAIT_TO_RXNE(USART3)	;
				*P_u16Data =( USART3->DR)& ((u8)0xFF) ;
				break ;
			default:
				break ;
 800405c:	e06a      	b.n	8004134 <USART_voidReceiveDataSynch+0x204>
				WAIT_TO_RXNE(USART1)	;
 800405e:	bf00      	nop
 8004060:	4b38      	ldr	r3, [pc, #224]	; (8004144 <USART_voidReceiveDataSynch+0x214>)
 8004062:	681b      	ldr	r3, [r3, #0]
 8004064:	095b      	lsrs	r3, r3, #5
 8004066:	f003 0301 	and.w	r3, r3, #1
 800406a:	2b00      	cmp	r3, #0
 800406c:	d0f8      	beq.n	8004060 <USART_voidReceiveDataSynch+0x130>
				*P_u16Data = (USART1->DR)& ((u8)0xFF) ;
 800406e:	4b35      	ldr	r3, [pc, #212]	; (8004144 <USART_voidReceiveDataSynch+0x214>)
 8004070:	685b      	ldr	r3, [r3, #4]
 8004072:	b29b      	uxth	r3, r3
 8004074:	b2db      	uxtb	r3, r3
 8004076:	b29a      	uxth	r2, r3
 8004078:	683b      	ldr	r3, [r7, #0]
 800407a:	801a      	strh	r2, [r3, #0]
				break ;
 800407c:	e05a      	b.n	8004134 <USART_voidReceiveDataSynch+0x204>
				WAIT_TO_RXNE(USART2)	;
 800407e:	bf00      	nop
 8004080:	4b31      	ldr	r3, [pc, #196]	; (8004148 <USART_voidReceiveDataSynch+0x218>)
 8004082:	681b      	ldr	r3, [r3, #0]
 8004084:	095b      	lsrs	r3, r3, #5
 8004086:	f003 0301 	and.w	r3, r3, #1
 800408a:	2b00      	cmp	r3, #0
 800408c:	d0f8      	beq.n	8004080 <USART_voidReceiveDataSynch+0x150>
				*P_u16Data = (USART2->DR) &((u8)0xFF) ;
 800408e:	4b2e      	ldr	r3, [pc, #184]	; (8004148 <USART_voidReceiveDataSynch+0x218>)
 8004090:	685b      	ldr	r3, [r3, #4]
 8004092:	b29b      	uxth	r3, r3
 8004094:	b2db      	uxtb	r3, r3
 8004096:	b29a      	uxth	r2, r3
 8004098:	683b      	ldr	r3, [r7, #0]
 800409a:	801a      	strh	r2, [r3, #0]
				break ;
 800409c:	e04a      	b.n	8004134 <USART_voidReceiveDataSynch+0x204>
				WAIT_TO_RXNE(USART3)	;
 800409e:	bf00      	nop
 80040a0:	4b2a      	ldr	r3, [pc, #168]	; (800414c <USART_voidReceiveDataSynch+0x21c>)
 80040a2:	681b      	ldr	r3, [r3, #0]
 80040a4:	095b      	lsrs	r3, r3, #5
 80040a6:	f003 0301 	and.w	r3, r3, #1
 80040aa:	2b00      	cmp	r3, #0
 80040ac:	d0f8      	beq.n	80040a0 <USART_voidReceiveDataSynch+0x170>
				*P_u16Data =( USART3->DR)& ((u8)0xFF) ;
 80040ae:	4b27      	ldr	r3, [pc, #156]	; (800414c <USART_voidReceiveDataSynch+0x21c>)
 80040b0:	685b      	ldr	r3, [r3, #4]
 80040b2:	b29b      	uxth	r3, r3
 80040b4:	b2db      	uxtb	r3, r3
 80040b6:	b29a      	uxth	r2, r3
 80040b8:	683b      	ldr	r3, [r7, #0]
 80040ba:	801a      	strh	r2, [r3, #0]
				break ;
 80040bc:	e03a      	b.n	8004134 <USART_voidReceiveDataSynch+0x204>
			}
		}
		else
		{
			// 8-bit is parity
			switch(USART_Number)
 80040be:	79fb      	ldrb	r3, [r7, #7]
 80040c0:	2b01      	cmp	r3, #1
 80040c2:	d015      	beq.n	80040f0 <USART_voidReceiveDataSynch+0x1c0>
 80040c4:	2b02      	cmp	r3, #2
 80040c6:	d024      	beq.n	8004112 <USART_voidReceiveDataSynch+0x1e2>
 80040c8:	2b00      	cmp	r3, #0
 80040ca:	d000      	beq.n	80040ce <USART_voidReceiveDataSynch+0x19e>
			case USART_3:
				WAIT_TO_RXNE(USART3)	;
				*P_u16Data =( USART3->DR)& ((u8)0x7F) ;
				break ;
			default:
				break ;
 80040cc:	e032      	b.n	8004134 <USART_voidReceiveDataSynch+0x204>
				WAIT_TO_RXNE(USART1)	;
 80040ce:	bf00      	nop
 80040d0:	4b1c      	ldr	r3, [pc, #112]	; (8004144 <USART_voidReceiveDataSynch+0x214>)
 80040d2:	681b      	ldr	r3, [r3, #0]
 80040d4:	095b      	lsrs	r3, r3, #5
 80040d6:	f003 0301 	and.w	r3, r3, #1
 80040da:	2b00      	cmp	r3, #0
 80040dc:	d0f8      	beq.n	80040d0 <USART_voidReceiveDataSynch+0x1a0>
				*P_u16Data = (USART1->DR)& ((u8)0x7F) ;
 80040de:	4b19      	ldr	r3, [pc, #100]	; (8004144 <USART_voidReceiveDataSynch+0x214>)
 80040e0:	685b      	ldr	r3, [r3, #4]
 80040e2:	b29b      	uxth	r3, r3
 80040e4:	f003 037f 	and.w	r3, r3, #127	; 0x7f
 80040e8:	b29a      	uxth	r2, r3
 80040ea:	683b      	ldr	r3, [r7, #0]
 80040ec:	801a      	strh	r2, [r3, #0]
				break ;
 80040ee:	e021      	b.n	8004134 <USART_voidReceiveDataSynch+0x204>
				WAIT_TO_RXNE(USART2)	;
 80040f0:	bf00      	nop
 80040f2:	4b15      	ldr	r3, [pc, #84]	; (8004148 <USART_voidReceiveDataSynch+0x218>)
 80040f4:	681b      	ldr	r3, [r3, #0]
 80040f6:	095b      	lsrs	r3, r3, #5
 80040f8:	f003 0301 	and.w	r3, r3, #1
 80040fc:	2b00      	cmp	r3, #0
 80040fe:	d0f8      	beq.n	80040f2 <USART_voidReceiveDataSynch+0x1c2>
				*P_u16Data = (USART2->DR) &((u8)0x7F) ;
 8004100:	4b11      	ldr	r3, [pc, #68]	; (8004148 <USART_voidReceiveDataSynch+0x218>)
 8004102:	685b      	ldr	r3, [r3, #4]
 8004104:	b29b      	uxth	r3, r3
 8004106:	f003 037f 	and.w	r3, r3, #127	; 0x7f
 800410a:	b29a      	uxth	r2, r3
 800410c:	683b      	ldr	r3, [r7, #0]
 800410e:	801a      	strh	r2, [r3, #0]
				break ;
 8004110:	e010      	b.n	8004134 <USART_voidReceiveDataSynch+0x204>
				WAIT_TO_RXNE(USART3)	;
 8004112:	bf00      	nop
 8004114:	4b0d      	ldr	r3, [pc, #52]	; (800414c <USART_voidReceiveDataSynch+0x21c>)
 8004116:	681b      	ldr	r3, [r3, #0]
 8004118:	095b      	lsrs	r3, r3, #5
 800411a:	f003 0301 	and.w	r3, r3, #1
 800411e:	2b00      	cmp	r3, #0
 8004120:	d0f8      	beq.n	8004114 <USART_voidReceiveDataSynch+0x1e4>
				*P_u16Data =( USART3->DR)& ((u8)0x7F) ;
 8004122:	4b0a      	ldr	r3, [pc, #40]	; (800414c <USART_voidReceiveDataSynch+0x21c>)
 8004124:	685b      	ldr	r3, [r3, #4]
 8004126:	b29b      	uxth	r3, r3
 8004128:	f003 037f 	and.w	r3, r3, #127	; 0x7f
 800412c:	b29a      	uxth	r2, r3
 800412e:	683b      	ldr	r3, [r7, #0]
 8004130:	801a      	strh	r2, [r3, #0]
				break ;
 8004132:	bf00      	nop
			}
		}
	}
}
 8004134:	bf00      	nop
 8004136:	370c      	adds	r7, #12
 8004138:	46bd      	mov	sp, r7
 800413a:	bc80      	pop	{r7}
 800413c:	4770      	bx	lr
 800413e:	bf00      	nop
 8004140:	20000124 	.word	0x20000124
 8004144:	40013800 	.word	0x40013800
 8004148:	40004400 	.word	0x40004400
 800414c:	40004800 	.word	0x40004800

08004150 <USART_voidBuadRateCalc>:

}


void USART_voidBuadRateCalc(u32 BuadRate , u32 PClock , u32 *BRR_Reg)
{
 8004150:	b5b0      	push	{r4, r5, r7, lr}
 8004152:	b08a      	sub	sp, #40	; 0x28
 8004154:	af00      	add	r7, sp, #0
 8004156:	60f8      	str	r0, [r7, #12]
 8004158:	60b9      	str	r1, [r7, #8]
 800415a:	607a      	str	r2, [r7, #4]

	

	u32 USARTDEV = ((PClock)/(16*BuadRate)) ;
 800415c:	68fb      	ldr	r3, [r7, #12]
 800415e:	011b      	lsls	r3, r3, #4
 8004160:	68ba      	ldr	r2, [r7, #8]
 8004162:	fbb2 f3f3 	udiv	r3, r2, r3
 8004166:	623b      	str	r3, [r7, #32]
	u32 USARTDEV_Mull_100 = ((25.0 * PClock)/(4.0*BuadRate)) ;
 8004168:	68b8      	ldr	r0, [r7, #8]
 800416a:	f7fc f943 	bl	80003f4 <__aeabi_ui2d>
 800416e:	f04f 0200 	mov.w	r2, #0
 8004172:	4b22      	ldr	r3, [pc, #136]	; (80041fc <USART_voidBuadRateCalc+0xac>)
 8004174:	f7fc f9b8 	bl	80004e8 <__aeabi_dmul>
 8004178:	4603      	mov	r3, r0
 800417a:	460c      	mov	r4, r1
 800417c:	4625      	mov	r5, r4
 800417e:	461c      	mov	r4, r3
 8004180:	68f8      	ldr	r0, [r7, #12]
 8004182:	f7fc f937 	bl	80003f4 <__aeabi_ui2d>
 8004186:	f04f 0200 	mov.w	r2, #0
 800418a:	4b1d      	ldr	r3, [pc, #116]	; (8004200 <USART_voidBuadRateCalc+0xb0>)
 800418c:	f7fc f9ac 	bl	80004e8 <__aeabi_dmul>
 8004190:	4602      	mov	r2, r0
 8004192:	460b      	mov	r3, r1
 8004194:	4620      	mov	r0, r4
 8004196:	4629      	mov	r1, r5
 8004198:	f7fc fad0 	bl	800073c <__aeabi_ddiv>
 800419c:	4603      	mov	r3, r0
 800419e:	460c      	mov	r4, r1
 80041a0:	4618      	mov	r0, r3
 80041a2:	4621      	mov	r1, r4
 80041a4:	f7fc fbb2 	bl	800090c <__aeabi_d2uiz>
 80041a8:	4603      	mov	r3, r0
 80041aa:	61fb      	str	r3, [r7, #28]
	u32 Mantiessa_Mull_100 = USARTDEV * 100  ;
 80041ac:	6a3b      	ldr	r3, [r7, #32]
 80041ae:	2264      	movs	r2, #100	; 0x64
 80041b0:	fb02 f303 	mul.w	r3, r2, r3
 80041b4:	61bb      	str	r3, [r7, #24]
	u32 Mantiessa = USARTDEV ;
 80041b6:	6a3b      	ldr	r3, [r7, #32]
 80041b8:	627b      	str	r3, [r7, #36]	; 0x24
	u32 Fraction = ((USARTDEV_Mull_100 - Mantiessa_Mull_100)*16) /100 ;
 80041ba:	69fa      	ldr	r2, [r7, #28]
 80041bc:	69bb      	ldr	r3, [r7, #24]
 80041be:	1ad3      	subs	r3, r2, r3
 80041c0:	011b      	lsls	r3, r3, #4
 80041c2:	4a10      	ldr	r2, [pc, #64]	; (8004204 <USART_voidBuadRateCalc+0xb4>)
 80041c4:	fba2 2303 	umull	r2, r3, r2, r3
 80041c8:	095b      	lsrs	r3, r3, #5
 80041ca:	617b      	str	r3, [r7, #20]

	/*u32 Mantiessa = ((PClock)/(16*BuadRate)) ;
	u32 Fraction  = ((((1.0*PClock)/(16.0*BuadRate)) * 100) - (Mantiessa * 100)) * 16 ;
	*/
	if(Fraction > 16)
 80041cc:	697b      	ldr	r3, [r7, #20]
 80041ce:	2b10      	cmp	r3, #16
 80041d0:	d902      	bls.n	80041d8 <USART_voidBuadRateCalc+0x88>
	{
		Mantiessa = Mantiessa+1 ;
 80041d2:	6a7b      	ldr	r3, [r7, #36]	; 0x24
 80041d4:	3301      	adds	r3, #1
 80041d6:	627b      	str	r3, [r7, #36]	; 0x24
	}
	*BRR_Reg = (u16) ((Mantiessa<<4) | (Fraction & 0x0F)) ;
 80041d8:	6a7b      	ldr	r3, [r7, #36]	; 0x24
 80041da:	b29b      	uxth	r3, r3
 80041dc:	011b      	lsls	r3, r3, #4
 80041de:	b29a      	uxth	r2, r3
 80041e0:	697b      	ldr	r3, [r7, #20]
 80041e2:	b29b      	uxth	r3, r3
 80041e4:	f003 030f 	and.w	r3, r3, #15
 80041e8:	b29b      	uxth	r3, r3
 80041ea:	4313      	orrs	r3, r2
 80041ec:	b29b      	uxth	r3, r3
 80041ee:	461a      	mov	r2, r3
 80041f0:	687b      	ldr	r3, [r7, #4]
 80041f2:	601a      	str	r2, [r3, #0]

}
 80041f4:	bf00      	nop
 80041f6:	3728      	adds	r7, #40	; 0x28
 80041f8:	46bd      	mov	sp, r7
 80041fa:	bdb0      	pop	{r4, r5, r7, pc}
 80041fc:	40390000 	.word	0x40390000
 8004200:	40100000 	.word	0x40100000
 8004204:	51eb851f 	.word	0x51eb851f

08004208 <USART__VoidGPIO_SetPins>:
void USART__VoidGPIO_SetPins(USART_Number_t USART_Number)
{
 8004208:	b580      	push	{r7, lr}
 800420a:	b082      	sub	sp, #8
 800420c:	af00      	add	r7, sp, #0
 800420e:	4603      	mov	r3, r0
 8004210:	71fb      	strb	r3, [r7, #7]

	if(Global_USART_Config[USART_Number]->USART_OperationMode == USART_TRANSMIT)
 8004212:	79fb      	ldrb	r3, [r7, #7]
 8004214:	4a7a      	ldr	r2, [pc, #488]	; (8004400 <USART__VoidGPIO_SetPins+0x1f8>)
 8004216:	f852 3023 	ldr.w	r3, [r2, r3, lsl #2]
 800421a:	781b      	ldrb	r3, [r3, #0]
 800421c:	2b08      	cmp	r3, #8
		// Trancieve


	}

	if(USART_Number == USART_1)
 800421e:	79fb      	ldrb	r3, [r7, #7]
 8004220:	2b00      	cmp	r3, #0
 8004222:	d14c      	bne.n	80042be <USART__VoidGPIO_SetPins+0xb6>
	{
		//PA9 TX	--> OUTPUT_AF_PP
		//PA10 RX	--> _AF_INPUT
		//PA11 CTS	-->	INPUT_FLO
		//PA12 RTS	--> OUTPUT_AF_PP
		if(Global_USART_Config[USART_Number]->USART_OperationMode == USART_TRANSMIT)
 8004224:	79fb      	ldrb	r3, [r7, #7]
 8004226:	4a76      	ldr	r2, [pc, #472]	; (8004400 <USART__VoidGPIO_SetPins+0x1f8>)
 8004228:	f852 3023 	ldr.w	r3, [r2, r3, lsl #2]
 800422c:	781b      	ldrb	r3, [r3, #0]
 800422e:	2b08      	cmp	r3, #8
 8004230:	d105      	bne.n	800423e <USART__VoidGPIO_SetPins+0x36>
		{
			GPIO_voidSetPinDirection(PORTA, PIN9, GPIO_OUTPUT_10MHZ_AF_PUSH_PULL);
 8004232:	2209      	movs	r2, #9
 8004234:	2109      	movs	r1, #9
 8004236:	2002      	movs	r0, #2
 8004238:	f7ff f94e 	bl	80034d8 <GPIO_voidSetPinDirection>
 800423c:	e016      	b.n	800426c <USART__VoidGPIO_SetPins+0x64>


		}
		else if (Global_USART_Config[USART_Number]->USART_OperationMode == USART_RECEIVE)
 800423e:	79fb      	ldrb	r3, [r7, #7]
 8004240:	4a6f      	ldr	r2, [pc, #444]	; (8004400 <USART__VoidGPIO_SetPins+0x1f8>)
 8004242:	f852 3023 	ldr.w	r3, [r2, r3, lsl #2]
 8004246:	781b      	ldrb	r3, [r3, #0]
 8004248:	2b04      	cmp	r3, #4
 800424a:	d105      	bne.n	8004258 <USART__VoidGPIO_SetPins+0x50>
		{
			GPIO_voidSetPinDirection(PORTA, PIN10, GPIO_INPUT_FLOATING);
 800424c:	2204      	movs	r2, #4
 800424e:	210a      	movs	r1, #10
 8004250:	2002      	movs	r0, #2
 8004252:	f7ff f941 	bl	80034d8 <GPIO_voidSetPinDirection>
 8004256:	e009      	b.n	800426c <USART__VoidGPIO_SetPins+0x64>

		}
		else
		{
			// Trancieve
			GPIO_voidSetPinDirection(PORTA, PIN10, GPIO_INPUT_FLOATING);
 8004258:	2204      	movs	r2, #4
 800425a:	210a      	movs	r1, #10
 800425c:	2002      	movs	r0, #2
 800425e:	f7ff f93b 	bl	80034d8 <GPIO_voidSetPinDirection>
			GPIO_voidSetPinDirection(PORTA, PIN9, GPIO_OUTPUT_10MHZ_AF_PUSH_PULL);
 8004262:	2209      	movs	r2, #9
 8004264:	2109      	movs	r1, #9
 8004266:	2002      	movs	r0, #2
 8004268:	f7ff f936 	bl	80034d8 <GPIO_voidSetPinDirection>

		}

		if(Global_USART_Config[0]->USART_HWFlowControl == USART_HW_FLOW_CONTROLLED_RTS)
 800426c:	4b64      	ldr	r3, [pc, #400]	; (8004400 <USART__VoidGPIO_SetPins+0x1f8>)
 800426e:	681b      	ldr	r3, [r3, #0]
 8004270:	89db      	ldrh	r3, [r3, #14]
 8004272:	f5b3 7f80 	cmp.w	r3, #256	; 0x100
 8004276:	d105      	bne.n	8004284 <USART__VoidGPIO_SetPins+0x7c>
		{
			GPIO_voidSetPinDirection(PORTA, PIN12 ,  GPIO_OUTPUT_10MHZ_AF_PUSH_PULL);
 8004278:	2209      	movs	r2, #9
 800427a:	210c      	movs	r1, #12
 800427c:	2002      	movs	r0, #2
 800427e:	f7ff f92b 	bl	80034d8 <GPIO_voidSetPinDirection>
		// <TODO> EROOR
	}



}
 8004282:	e0b9      	b.n	80043f8 <USART__VoidGPIO_SetPins+0x1f0>
		else if (Global_USART_Config[0]->USART_HWFlowControl == USART_HW_FLOW_CONTROLLED_CTS)
 8004284:	4b5e      	ldr	r3, [pc, #376]	; (8004400 <USART__VoidGPIO_SetPins+0x1f8>)
 8004286:	681b      	ldr	r3, [r3, #0]
 8004288:	89db      	ldrh	r3, [r3, #14]
 800428a:	f5b3 7f00 	cmp.w	r3, #512	; 0x200
 800428e:	d105      	bne.n	800429c <USART__VoidGPIO_SetPins+0x94>
			GPIO_voidSetPinDirection(PORTA, PIN11, GPIO_INPUT_FLOATING);
 8004290:	2204      	movs	r2, #4
 8004292:	210b      	movs	r1, #11
 8004294:	2002      	movs	r0, #2
 8004296:	f7ff f91f 	bl	80034d8 <GPIO_voidSetPinDirection>
}
 800429a:	e0ad      	b.n	80043f8 <USART__VoidGPIO_SetPins+0x1f0>
		else if(Global_USART_Config[0]->USART_HWFlowControl == USART_HW_FLOW_CONTROLLED_DISALBED)
 800429c:	4b58      	ldr	r3, [pc, #352]	; (8004400 <USART__VoidGPIO_SetPins+0x1f8>)
 800429e:	681b      	ldr	r3, [r3, #0]
 80042a0:	89db      	ldrh	r3, [r3, #14]
 80042a2:	2b00      	cmp	r3, #0
 80042a4:	f000 80a8 	beq.w	80043f8 <USART__VoidGPIO_SetPins+0x1f0>
			GPIO_voidSetPinDirection(PORTA, PIN11, GPIO_INPUT_FLOATING);
 80042a8:	2204      	movs	r2, #4
 80042aa:	210b      	movs	r1, #11
 80042ac:	2002      	movs	r0, #2
 80042ae:	f7ff f913 	bl	80034d8 <GPIO_voidSetPinDirection>
			GPIO_voidSetPinDirection(PORTA, PIN12 ,  GPIO_OUTPUT_10MHZ_AF_PUSH_PULL);
 80042b2:	2209      	movs	r2, #9
 80042b4:	210c      	movs	r1, #12
 80042b6:	2002      	movs	r0, #2
 80042b8:	f7ff f90e 	bl	80034d8 <GPIO_voidSetPinDirection>
}
 80042bc:	e09c      	b.n	80043f8 <USART__VoidGPIO_SetPins+0x1f0>
	else if(USART_Number == USART_2)
 80042be:	79fb      	ldrb	r3, [r7, #7]
 80042c0:	2b01      	cmp	r3, #1
 80042c2:	d14b      	bne.n	800435c <USART__VoidGPIO_SetPins+0x154>
		if(Global_USART_Config[USART_Number]->USART_OperationMode == USART_TRANSMIT)
 80042c4:	79fb      	ldrb	r3, [r7, #7]
 80042c6:	4a4e      	ldr	r2, [pc, #312]	; (8004400 <USART__VoidGPIO_SetPins+0x1f8>)
 80042c8:	f852 3023 	ldr.w	r3, [r2, r3, lsl #2]
 80042cc:	781b      	ldrb	r3, [r3, #0]
 80042ce:	2b08      	cmp	r3, #8
 80042d0:	d105      	bne.n	80042de <USART__VoidGPIO_SetPins+0xd6>
			GPIO_voidSetPinDirection(PORTA, PIN2, GPIO_OUTPUT_10MHZ_AF_PUSH_PULL);
 80042d2:	2209      	movs	r2, #9
 80042d4:	2102      	movs	r1, #2
 80042d6:	2002      	movs	r0, #2
 80042d8:	f7ff f8fe 	bl	80034d8 <GPIO_voidSetPinDirection>
 80042dc:	e016      	b.n	800430c <USART__VoidGPIO_SetPins+0x104>
		else if (Global_USART_Config[USART_Number]->USART_OperationMode == USART_RECEIVE)
 80042de:	79fb      	ldrb	r3, [r7, #7]
 80042e0:	4a47      	ldr	r2, [pc, #284]	; (8004400 <USART__VoidGPIO_SetPins+0x1f8>)
 80042e2:	f852 3023 	ldr.w	r3, [r2, r3, lsl #2]
 80042e6:	781b      	ldrb	r3, [r3, #0]
 80042e8:	2b04      	cmp	r3, #4
 80042ea:	d105      	bne.n	80042f8 <USART__VoidGPIO_SetPins+0xf0>
			GPIO_voidSetPinDirection(PORTA, PIN13, GPIO_INPUT_FLOATING);
 80042ec:	2204      	movs	r2, #4
 80042ee:	210d      	movs	r1, #13
 80042f0:	2002      	movs	r0, #2
 80042f2:	f7ff f8f1 	bl	80034d8 <GPIO_voidSetPinDirection>
 80042f6:	e009      	b.n	800430c <USART__VoidGPIO_SetPins+0x104>
			GPIO_voidSetPinDirection(PORTA, PIN2, GPIO_OUTPUT_10MHZ_AF_PUSH_PULL);
 80042f8:	2209      	movs	r2, #9
 80042fa:	2102      	movs	r1, #2
 80042fc:	2002      	movs	r0, #2
 80042fe:	f7ff f8eb 	bl	80034d8 <GPIO_voidSetPinDirection>
			GPIO_voidSetPinDirection(PORTA, PIN13, GPIO_INPUT_FLOATING);
 8004302:	2204      	movs	r2, #4
 8004304:	210d      	movs	r1, #13
 8004306:	2002      	movs	r0, #2
 8004308:	f7ff f8e6 	bl	80034d8 <GPIO_voidSetPinDirection>
		if(Global_USART_Config[1]->USART_HWFlowControl == USART_HW_FLOW_CONTROLLED_RTS)
 800430c:	4b3c      	ldr	r3, [pc, #240]	; (8004400 <USART__VoidGPIO_SetPins+0x1f8>)
 800430e:	685b      	ldr	r3, [r3, #4]
 8004310:	89db      	ldrh	r3, [r3, #14]
 8004312:	f5b3 7f80 	cmp.w	r3, #256	; 0x100
 8004316:	d105      	bne.n	8004324 <USART__VoidGPIO_SetPins+0x11c>
			GPIO_voidSetPinDirection(PORTA, PIN1,  GPIO_OUTPUT_10MHZ_AF_PUSH_PULL);
 8004318:	2209      	movs	r2, #9
 800431a:	2101      	movs	r1, #1
 800431c:	2002      	movs	r0, #2
 800431e:	f7ff f8db 	bl	80034d8 <GPIO_voidSetPinDirection>
}
 8004322:	e069      	b.n	80043f8 <USART__VoidGPIO_SetPins+0x1f0>
		else if (Global_USART_Config[1]->USART_HWFlowControl == USART_HW_FLOW_CONTROLLED_CTS)
 8004324:	4b36      	ldr	r3, [pc, #216]	; (8004400 <USART__VoidGPIO_SetPins+0x1f8>)
 8004326:	685b      	ldr	r3, [r3, #4]
 8004328:	89db      	ldrh	r3, [r3, #14]
 800432a:	f5b3 7f00 	cmp.w	r3, #512	; 0x200
 800432e:	d105      	bne.n	800433c <USART__VoidGPIO_SetPins+0x134>
			GPIO_voidSetPinDirection(PORTA, PIN0, GPIO_INPUT_FLOATING);
 8004330:	2204      	movs	r2, #4
 8004332:	2100      	movs	r1, #0
 8004334:	2002      	movs	r0, #2
 8004336:	f7ff f8cf 	bl	80034d8 <GPIO_voidSetPinDirection>
}
 800433a:	e05d      	b.n	80043f8 <USART__VoidGPIO_SetPins+0x1f0>
		else if(Global_USART_Config[1]->USART_HWFlowControl == USART_HW_FLOW_CONTROLLED_DISALBED)
 800433c:	4b30      	ldr	r3, [pc, #192]	; (8004400 <USART__VoidGPIO_SetPins+0x1f8>)
 800433e:	685b      	ldr	r3, [r3, #4]
 8004340:	89db      	ldrh	r3, [r3, #14]
 8004342:	2b00      	cmp	r3, #0
 8004344:	d058      	beq.n	80043f8 <USART__VoidGPIO_SetPins+0x1f0>
			GPIO_voidSetPinDirection(PORTA, PIN0, GPIO_INPUT_FLOATING);
 8004346:	2204      	movs	r2, #4
 8004348:	2100      	movs	r1, #0
 800434a:	2002      	movs	r0, #2
 800434c:	f7ff f8c4 	bl	80034d8 <GPIO_voidSetPinDirection>
			GPIO_voidSetPinDirection(PORTA, PIN1,  GPIO_OUTPUT_10MHZ_AF_PUSH_PULL);
 8004350:	2209      	movs	r2, #9
 8004352:	2101      	movs	r1, #1
 8004354:	2002      	movs	r0, #2
 8004356:	f7ff f8bf 	bl	80034d8 <GPIO_voidSetPinDirection>
}
 800435a:	e04d      	b.n	80043f8 <USART__VoidGPIO_SetPins+0x1f0>
	else if (USART_Number == USART_3)
 800435c:	79fb      	ldrb	r3, [r7, #7]
 800435e:	2b02      	cmp	r3, #2
 8004360:	d14a      	bne.n	80043f8 <USART__VoidGPIO_SetPins+0x1f0>
		if(Global_USART_Config[USART_Number]->USART_OperationMode == USART_TRANSMIT)
 8004362:	79fb      	ldrb	r3, [r7, #7]
 8004364:	4a26      	ldr	r2, [pc, #152]	; (8004400 <USART__VoidGPIO_SetPins+0x1f8>)
 8004366:	f852 3023 	ldr.w	r3, [r2, r3, lsl #2]
 800436a:	781b      	ldrb	r3, [r3, #0]
 800436c:	2b08      	cmp	r3, #8
 800436e:	d105      	bne.n	800437c <USART__VoidGPIO_SetPins+0x174>
			GPIO_voidSetPinDirection(PORTB, PIN10, GPIO_OUTPUT_10MHZ_AF_PUSH_PULL);
 8004370:	2209      	movs	r2, #9
 8004372:	210a      	movs	r1, #10
 8004374:	2003      	movs	r0, #3
 8004376:	f7ff f8af 	bl	80034d8 <GPIO_voidSetPinDirection>
 800437a:	e016      	b.n	80043aa <USART__VoidGPIO_SetPins+0x1a2>
		else if (Global_USART_Config[USART_Number]->USART_OperationMode == USART_RECEIVE)
 800437c:	79fb      	ldrb	r3, [r7, #7]
 800437e:	4a20      	ldr	r2, [pc, #128]	; (8004400 <USART__VoidGPIO_SetPins+0x1f8>)
 8004380:	f852 3023 	ldr.w	r3, [r2, r3, lsl #2]
 8004384:	781b      	ldrb	r3, [r3, #0]
 8004386:	2b04      	cmp	r3, #4
 8004388:	d105      	bne.n	8004396 <USART__VoidGPIO_SetPins+0x18e>
			GPIO_voidSetPinDirection(PORTB, PIN11, GPIO_INPUT_FLOATING);
 800438a:	2204      	movs	r2, #4
 800438c:	210b      	movs	r1, #11
 800438e:	2003      	movs	r0, #3
 8004390:	f7ff f8a2 	bl	80034d8 <GPIO_voidSetPinDirection>
 8004394:	e009      	b.n	80043aa <USART__VoidGPIO_SetPins+0x1a2>
			GPIO_voidSetPinDirection(PORTB, PIN10, GPIO_OUTPUT_10MHZ_AF_PUSH_PULL);
 8004396:	2209      	movs	r2, #9
 8004398:	210a      	movs	r1, #10
 800439a:	2003      	movs	r0, #3
 800439c:	f7ff f89c 	bl	80034d8 <GPIO_voidSetPinDirection>
			GPIO_voidSetPinDirection(PORTB, PIN11, GPIO_INPUT_FLOATING);
 80043a0:	2204      	movs	r2, #4
 80043a2:	210b      	movs	r1, #11
 80043a4:	2003      	movs	r0, #3
 80043a6:	f7ff f897 	bl	80034d8 <GPIO_voidSetPinDirection>
		if(Global_USART_Config[2]->USART_HWFlowControl == USART_HW_FLOW_CONTROLLED_RTS)
 80043aa:	4b15      	ldr	r3, [pc, #84]	; (8004400 <USART__VoidGPIO_SetPins+0x1f8>)
 80043ac:	689b      	ldr	r3, [r3, #8]
 80043ae:	89db      	ldrh	r3, [r3, #14]
 80043b0:	f5b3 7f80 	cmp.w	r3, #256	; 0x100
 80043b4:	d105      	bne.n	80043c2 <USART__VoidGPIO_SetPins+0x1ba>
			GPIO_voidSetPinDirection(PORTB, PIN14,  GPIO_OUTPUT_10MHZ_AF_PUSH_PULL);
 80043b6:	2209      	movs	r2, #9
 80043b8:	210e      	movs	r1, #14
 80043ba:	2003      	movs	r0, #3
 80043bc:	f7ff f88c 	bl	80034d8 <GPIO_voidSetPinDirection>
}
 80043c0:	e01a      	b.n	80043f8 <USART__VoidGPIO_SetPins+0x1f0>
		else if (Global_USART_Config[2]->USART_HWFlowControl == USART_HW_FLOW_CONTROLLED_CTS)
 80043c2:	4b0f      	ldr	r3, [pc, #60]	; (8004400 <USART__VoidGPIO_SetPins+0x1f8>)
 80043c4:	689b      	ldr	r3, [r3, #8]
 80043c6:	89db      	ldrh	r3, [r3, #14]
 80043c8:	f5b3 7f00 	cmp.w	r3, #512	; 0x200
 80043cc:	d105      	bne.n	80043da <USART__VoidGPIO_SetPins+0x1d2>
			GPIO_voidSetPinDirection(PORTB, PIN13, GPIO_INPUT_FLOATING);
 80043ce:	2204      	movs	r2, #4
 80043d0:	210d      	movs	r1, #13
 80043d2:	2003      	movs	r0, #3
 80043d4:	f7ff f880 	bl	80034d8 <GPIO_voidSetPinDirection>
}
 80043d8:	e00e      	b.n	80043f8 <USART__VoidGPIO_SetPins+0x1f0>
		else if(Global_USART_Config[2]->USART_HWFlowControl == USART_HW_FLOW_CONTROLLED_DISALBED)
 80043da:	4b09      	ldr	r3, [pc, #36]	; (8004400 <USART__VoidGPIO_SetPins+0x1f8>)
 80043dc:	689b      	ldr	r3, [r3, #8]
 80043de:	89db      	ldrh	r3, [r3, #14]
 80043e0:	2b00      	cmp	r3, #0
 80043e2:	d009      	beq.n	80043f8 <USART__VoidGPIO_SetPins+0x1f0>
			GPIO_voidSetPinDirection(PORTB, PIN14,  GPIO_OUTPUT_10MHZ_AF_PUSH_PULL);
 80043e4:	2209      	movs	r2, #9
 80043e6:	210e      	movs	r1, #14
 80043e8:	2003      	movs	r0, #3
 80043ea:	f7ff f875 	bl	80034d8 <GPIO_voidSetPinDirection>
			GPIO_voidSetPinDirection(PORTB, PIN13, GPIO_INPUT_FLOATING);
 80043ee:	2204      	movs	r2, #4
 80043f0:	210d      	movs	r1, #13
 80043f2:	2003      	movs	r0, #3
 80043f4:	f7ff f870 	bl	80034d8 <GPIO_voidSetPinDirection>
}
 80043f8:	bf00      	nop
 80043fa:	3708      	adds	r7, #8
 80043fc:	46bd      	mov	sp, r7
 80043fe:	bd80      	pop	{r7, pc}
 8004400:	20000124 	.word	0x20000124

08004404 <USART1_IRQHandler>:
/************************************* ISR		*********************************************/
void USART1_IRQHandler(void)
{
 8004404:	b580      	push	{r7, lr}
 8004406:	af00      	add	r7, sp, #0
			Global_USART_Config[0]->P_IRQ_CallBack(USART1->DR , irq_src);

		}
	}
	*/
	Global_USART_Config[0]->P_IRQ_CallBack(USART1->DR);
 8004408:	4b0a      	ldr	r3, [pc, #40]	; (8004434 <USART1_IRQHandler+0x30>)
 800440a:	681b      	ldr	r3, [r3, #0]
 800440c:	699b      	ldr	r3, [r3, #24]
 800440e:	4a0a      	ldr	r2, [pc, #40]	; (8004438 <USART1_IRQHandler+0x34>)
 8004410:	6852      	ldr	r2, [r2, #4]
 8004412:	b292      	uxth	r2, r2
 8004414:	4610      	mov	r0, r2
 8004416:	4798      	blx	r3
	//	Clear Fflags
	 USART1->SR &=~ (1<<6) ; // TXC
 8004418:	4b07      	ldr	r3, [pc, #28]	; (8004438 <USART1_IRQHandler+0x34>)
 800441a:	681b      	ldr	r3, [r3, #0]
 800441c:	4a06      	ldr	r2, [pc, #24]	; (8004438 <USART1_IRQHandler+0x34>)
 800441e:	f023 0340 	bic.w	r3, r3, #64	; 0x40
 8004422:	6013      	str	r3, [r2, #0]
	 USART1->SR &=~  (1<<5) ; // RXNE
 8004424:	4b04      	ldr	r3, [pc, #16]	; (8004438 <USART1_IRQHandler+0x34>)
 8004426:	681b      	ldr	r3, [r3, #0]
 8004428:	4a03      	ldr	r2, [pc, #12]	; (8004438 <USART1_IRQHandler+0x34>)
 800442a:	f023 0320 	bic.w	r3, r3, #32
 800442e:	6013      	str	r3, [r2, #0]

}
 8004430:	bf00      	nop
 8004432:	bd80      	pop	{r7, pc}
 8004434:	20000124 	.word	0x20000124
 8004438:	40013800 	.word	0x40013800

0800443c <USART2_IRQHandler>:
void USART2_IRQHandler(void)
{
 800443c:	b580      	push	{r7, lr}
 800443e:	af00      	add	r7, sp, #0
			Global_USART_Config[1]->P_IRQ_CallBack(USART2->DR , irq_src);

		}
	}
	*/
	Global_USART_Config[1]->P_IRQ_CallBack(USART2->DR);
 8004440:	4b0a      	ldr	r3, [pc, #40]	; (800446c <USART2_IRQHandler+0x30>)
 8004442:	685b      	ldr	r3, [r3, #4]
 8004444:	699b      	ldr	r3, [r3, #24]
 8004446:	4a0a      	ldr	r2, [pc, #40]	; (8004470 <USART2_IRQHandler+0x34>)
 8004448:	6852      	ldr	r2, [r2, #4]
 800444a:	b292      	uxth	r2, r2
 800444c:	4610      	mov	r0, r2
 800444e:	4798      	blx	r3
	//Flags
	 USART2->SR &=~  (1<<6) ; // TXC
 8004450:	4b07      	ldr	r3, [pc, #28]	; (8004470 <USART2_IRQHandler+0x34>)
 8004452:	681b      	ldr	r3, [r3, #0]
 8004454:	4a06      	ldr	r2, [pc, #24]	; (8004470 <USART2_IRQHandler+0x34>)
 8004456:	f023 0340 	bic.w	r3, r3, #64	; 0x40
 800445a:	6013      	str	r3, [r2, #0]
	 USART2->SR &=~ (1<<5) ; // RXNE
 800445c:	4b04      	ldr	r3, [pc, #16]	; (8004470 <USART2_IRQHandler+0x34>)
 800445e:	681b      	ldr	r3, [r3, #0]
 8004460:	4a03      	ldr	r2, [pc, #12]	; (8004470 <USART2_IRQHandler+0x34>)
 8004462:	f023 0320 	bic.w	r3, r3, #32
 8004466:	6013      	str	r3, [r2, #0]
}
 8004468:	bf00      	nop
 800446a:	bd80      	pop	{r7, pc}
 800446c:	20000124 	.word	0x20000124
 8004470:	40004400 	.word	0x40004400

08004474 <USART3_IRQHandler>:
void USART3_IRQHandler(void)
{
 8004474:	b580      	push	{r7, lr}
 8004476:	af00      	add	r7, sp, #0
			Global_USART_Config[2]->P_IRQ_CallBack(USART2->DR , irq_src);

		}
	}
*/
	Global_USART_Config[2]->P_IRQ_CallBack(USART2->DR);
 8004478:	4b0a      	ldr	r3, [pc, #40]	; (80044a4 <USART3_IRQHandler+0x30>)
 800447a:	689b      	ldr	r3, [r3, #8]
 800447c:	699b      	ldr	r3, [r3, #24]
 800447e:	4a0a      	ldr	r2, [pc, #40]	; (80044a8 <USART3_IRQHandler+0x34>)
 8004480:	6852      	ldr	r2, [r2, #4]
 8004482:	b292      	uxth	r2, r2
 8004484:	4610      	mov	r0, r2
 8004486:	4798      	blx	r3
	//Flags
	 USART3->SR &=~  (1<<6) ; // TXC
 8004488:	4b08      	ldr	r3, [pc, #32]	; (80044ac <USART3_IRQHandler+0x38>)
 800448a:	681b      	ldr	r3, [r3, #0]
 800448c:	4a07      	ldr	r2, [pc, #28]	; (80044ac <USART3_IRQHandler+0x38>)
 800448e:	f023 0340 	bic.w	r3, r3, #64	; 0x40
 8004492:	6013      	str	r3, [r2, #0]
	 USART3->SR&=~  (1<<5) ; // RXNE
 8004494:	4b05      	ldr	r3, [pc, #20]	; (80044ac <USART3_IRQHandler+0x38>)
 8004496:	681b      	ldr	r3, [r3, #0]
 8004498:	4a04      	ldr	r2, [pc, #16]	; (80044ac <USART3_IRQHandler+0x38>)
 800449a:	f023 0320 	bic.w	r3, r3, #32
 800449e:	6013      	str	r3, [r2, #0]
}
 80044a0:	bf00      	nop
 80044a2:	bd80      	pop	{r7, pc}
 80044a4:	20000124 	.word	0x20000124
 80044a8:	40004400 	.word	0x40004400
 80044ac:	40004800 	.word	0x40004800

080044b0 <USART_voidSendStringWithDelimiterSynch>:
	{
		USART_voidSendDataSynch(USART_Number, (u16*)&P_u8Data[LOC_u16Counter]);
	}
}
void USART_voidSendStringWithDelimiterSynch(USART_Number_t USART_Number , u8 *P_u8Data , u8 copy_u16Delimiter )
{
 80044b0:	b580      	push	{r7, lr}
 80044b2:	b084      	sub	sp, #16
 80044b4:	af00      	add	r7, sp, #0
 80044b6:	4603      	mov	r3, r0
 80044b8:	6039      	str	r1, [r7, #0]
 80044ba:	71fb      	strb	r3, [r7, #7]
 80044bc:	4613      	mov	r3, r2
 80044be:	71bb      	strb	r3, [r7, #6]
	u32 LOC_u16Counter = 0 ;
 80044c0:	2300      	movs	r3, #0
 80044c2:	60fb      	str	r3, [r7, #12]
	while (P_u8Data[LOC_u16Counter] != copy_u16Delimiter)
 80044c4:	e00a      	b.n	80044dc <USART_voidSendStringWithDelimiterSynch+0x2c>
	{
		USART_voidSendDataSynch(USART_Number, (u16*)&P_u8Data[LOC_u16Counter]);
 80044c6:	683a      	ldr	r2, [r7, #0]
 80044c8:	68fb      	ldr	r3, [r7, #12]
 80044ca:	441a      	add	r2, r3
 80044cc:	79fb      	ldrb	r3, [r7, #7]
 80044ce:	4611      	mov	r1, r2
 80044d0:	4618      	mov	r0, r3
 80044d2:	f7ff fcd5 	bl	8003e80 <USART_voidSendDataSynch>
		LOC_u16Counter++ ;
 80044d6:	68fb      	ldr	r3, [r7, #12]
 80044d8:	3301      	adds	r3, #1
 80044da:	60fb      	str	r3, [r7, #12]
	while (P_u8Data[LOC_u16Counter] != copy_u16Delimiter)
 80044dc:	683a      	ldr	r2, [r7, #0]
 80044de:	68fb      	ldr	r3, [r7, #12]
 80044e0:	4413      	add	r3, r2
 80044e2:	781b      	ldrb	r3, [r3, #0]
 80044e4:	79ba      	ldrb	r2, [r7, #6]
 80044e6:	429a      	cmp	r2, r3
 80044e8:	d1ed      	bne.n	80044c6 <USART_voidSendStringWithDelimiterSynch+0x16>
	}
}
 80044ea:	bf00      	nop
 80044ec:	3710      	adds	r7, #16
 80044ee:	46bd      	mov	sp, r7
 80044f0:	bd80      	pop	{r7, pc}

080044f2 <main>:

#include "APP/APP.h"


int main(void){
 80044f2:	b580      	push	{r7, lr}
 80044f4:	af00      	add	r7, sp, #0




	ECU3_Dashboard_APP_SETUP();
 80044f6:	f7fd fc23 	bl	8001d40 <ECU3_Dashboard_APP_SETUP>

	while(1)
	{
		ECU3_Dashboard_APP_LOOP();
 80044fa:	f7fd fc4b 	bl	8001d94 <ECU3_Dashboard_APP_LOOP>
 80044fe:	e7fc      	b.n	80044fa <main+0x8>

08004500 <Reset_Handler>:

  .section .text.Reset_Handler
  .weak Reset_Handler
  .type Reset_Handler, %function
Reset_Handler:
  ldr   r0, =_estack
 8004500:	480d      	ldr	r0, [pc, #52]	; (8004538 <LoopForever+0x2>)
  mov   sp, r0          /* set stack pointer */
 8004502:	4685      	mov	sp, r0
/* Call the clock system intitialization function.*/
  bl  SystemInit
 8004504:	f3af 8000 	nop.w

/* Copy the data segment initializers from flash to SRAM */
  ldr r0, =_sdata
 8004508:	480c      	ldr	r0, [pc, #48]	; (800453c <LoopForever+0x6>)
  ldr r1, =_edata
 800450a:	490d      	ldr	r1, [pc, #52]	; (8004540 <LoopForever+0xa>)
  ldr r2, =_sidata
 800450c:	4a0d      	ldr	r2, [pc, #52]	; (8004544 <LoopForever+0xe>)
  movs r3, #0
 800450e:	2300      	movs	r3, #0
  b LoopCopyDataInit
 8004510:	e002      	b.n	8004518 <LoopCopyDataInit>

08004512 <CopyDataInit>:

CopyDataInit:
  ldr r4, [r2, r3]
 8004512:	58d4      	ldr	r4, [r2, r3]
  str r4, [r0, r3]
 8004514:	50c4      	str	r4, [r0, r3]
  adds r3, r3, #4
 8004516:	3304      	adds	r3, #4

08004518 <LoopCopyDataInit>:

LoopCopyDataInit:
  adds r4, r0, r3
 8004518:	18c4      	adds	r4, r0, r3
  cmp r4, r1
 800451a:	428c      	cmp	r4, r1
  bcc CopyDataInit
 800451c:	d3f9      	bcc.n	8004512 <CopyDataInit>

/* Zero fill the bss segment. */
  ldr r2, =_sbss
 800451e:	4a0a      	ldr	r2, [pc, #40]	; (8004548 <LoopForever+0x12>)
  ldr r4, =_ebss
 8004520:	4c0a      	ldr	r4, [pc, #40]	; (800454c <LoopForever+0x16>)
  movs r3, #0
 8004522:	2300      	movs	r3, #0
  b LoopFillZerobss
 8004524:	e001      	b.n	800452a <LoopFillZerobss>

08004526 <FillZerobss>:

FillZerobss:
  str  r3, [r2]
 8004526:	6013      	str	r3, [r2, #0]
  adds r2, r2, #4
 8004528:	3204      	adds	r2, #4

0800452a <LoopFillZerobss>:

LoopFillZerobss:
  cmp r2, r4
 800452a:	42a2      	cmp	r2, r4
  bcc FillZerobss
 800452c:	d3fb      	bcc.n	8004526 <FillZerobss>

/* Call static constructors */
  bl __libc_init_array
 800452e:	f000 f811 	bl	8004554 <__libc_init_array>
/* Call the application's entry point.*/
  bl main
 8004532:	f7ff ffde 	bl	80044f2 <main>

08004536 <LoopForever>:

LoopForever:
    b LoopForever
 8004536:	e7fe      	b.n	8004536 <LoopForever>
  ldr   r0, =_estack
 8004538:	20002800 	.word	0x20002800
  ldr r0, =_sdata
 800453c:	20000000 	.word	0x20000000
  ldr r1, =_edata
 8004540:	20000084 	.word	0x20000084
  ldr r2, =_sidata
 8004544:	08004a90 	.word	0x08004a90
  ldr r2, =_sbss
 8004548:	20000084 	.word	0x20000084
  ldr r4, =_ebss
 800454c:	200001b4 	.word	0x200001b4

08004550 <ADC1_2_IRQHandler>:
 * @retval : None
*/
  .section .text.Default_Handler,"ax",%progbits
Default_Handler:
Infinite_Loop:
  b Infinite_Loop
 8004550:	e7fe      	b.n	8004550 <ADC1_2_IRQHandler>
	...

08004554 <__libc_init_array>:
 8004554:	b570      	push	{r4, r5, r6, lr}
 8004556:	2500      	movs	r5, #0
 8004558:	4e0c      	ldr	r6, [pc, #48]	; (800458c <__libc_init_array+0x38>)
 800455a:	4c0d      	ldr	r4, [pc, #52]	; (8004590 <__libc_init_array+0x3c>)
 800455c:	1ba4      	subs	r4, r4, r6
 800455e:	10a4      	asrs	r4, r4, #2
 8004560:	42a5      	cmp	r5, r4
 8004562:	d109      	bne.n	8004578 <__libc_init_array+0x24>
 8004564:	f000 f872 	bl	800464c <_init>
 8004568:	2500      	movs	r5, #0
 800456a:	4e0a      	ldr	r6, [pc, #40]	; (8004594 <__libc_init_array+0x40>)
 800456c:	4c0a      	ldr	r4, [pc, #40]	; (8004598 <__libc_init_array+0x44>)
 800456e:	1ba4      	subs	r4, r4, r6
 8004570:	10a4      	asrs	r4, r4, #2
 8004572:	42a5      	cmp	r5, r4
 8004574:	d105      	bne.n	8004582 <__libc_init_array+0x2e>
 8004576:	bd70      	pop	{r4, r5, r6, pc}
 8004578:	f856 3025 	ldr.w	r3, [r6, r5, lsl #2]
 800457c:	4798      	blx	r3
 800457e:	3501      	adds	r5, #1
 8004580:	e7ee      	b.n	8004560 <__libc_init_array+0xc>
 8004582:	f856 3025 	ldr.w	r3, [r6, r5, lsl #2]
 8004586:	4798      	blx	r3
 8004588:	3501      	adds	r5, #1
 800458a:	e7f2      	b.n	8004572 <__libc_init_array+0x1e>
 800458c:	08004a88 	.word	0x08004a88
 8004590:	08004a88 	.word	0x08004a88
 8004594:	08004a88 	.word	0x08004a88
 8004598:	08004a8c 	.word	0x08004a8c

0800459c <__itoa>:
 800459c:	1e93      	subs	r3, r2, #2
 800459e:	2b22      	cmp	r3, #34	; 0x22
 80045a0:	b510      	push	{r4, lr}
 80045a2:	460c      	mov	r4, r1
 80045a4:	d904      	bls.n	80045b0 <__itoa+0x14>
 80045a6:	2300      	movs	r3, #0
 80045a8:	461c      	mov	r4, r3
 80045aa:	700b      	strb	r3, [r1, #0]
 80045ac:	4620      	mov	r0, r4
 80045ae:	bd10      	pop	{r4, pc}
 80045b0:	2a0a      	cmp	r2, #10
 80045b2:	d109      	bne.n	80045c8 <__itoa+0x2c>
 80045b4:	2800      	cmp	r0, #0
 80045b6:	da07      	bge.n	80045c8 <__itoa+0x2c>
 80045b8:	232d      	movs	r3, #45	; 0x2d
 80045ba:	700b      	strb	r3, [r1, #0]
 80045bc:	2101      	movs	r1, #1
 80045be:	4240      	negs	r0, r0
 80045c0:	4421      	add	r1, r4
 80045c2:	f000 f805 	bl	80045d0 <__utoa>
 80045c6:	e7f1      	b.n	80045ac <__itoa+0x10>
 80045c8:	2100      	movs	r1, #0
 80045ca:	e7f9      	b.n	80045c0 <__itoa+0x24>

080045cc <itoa>:
 80045cc:	f7ff bfe6 	b.w	800459c <__itoa>

080045d0 <__utoa>:
 80045d0:	b5f0      	push	{r4, r5, r6, r7, lr}
 80045d2:	b08b      	sub	sp, #44	; 0x2c
 80045d4:	4605      	mov	r5, r0
 80045d6:	460c      	mov	r4, r1
 80045d8:	466e      	mov	r6, sp
 80045da:	4b1b      	ldr	r3, [pc, #108]	; (8004648 <__utoa+0x78>)
 80045dc:	f103 0c20 	add.w	ip, r3, #32
 80045e0:	4637      	mov	r7, r6
 80045e2:	6818      	ldr	r0, [r3, #0]
 80045e4:	6859      	ldr	r1, [r3, #4]
 80045e6:	3308      	adds	r3, #8
 80045e8:	c703      	stmia	r7!, {r0, r1}
 80045ea:	4563      	cmp	r3, ip
 80045ec:	463e      	mov	r6, r7
 80045ee:	d1f7      	bne.n	80045e0 <__utoa+0x10>
 80045f0:	6818      	ldr	r0, [r3, #0]
 80045f2:	791b      	ldrb	r3, [r3, #4]
 80045f4:	6038      	str	r0, [r7, #0]
 80045f6:	713b      	strb	r3, [r7, #4]
 80045f8:	1e93      	subs	r3, r2, #2
 80045fa:	2b22      	cmp	r3, #34	; 0x22
 80045fc:	f04f 0300 	mov.w	r3, #0
 8004600:	d904      	bls.n	800460c <__utoa+0x3c>
 8004602:	7023      	strb	r3, [r4, #0]
 8004604:	461c      	mov	r4, r3
 8004606:	4620      	mov	r0, r4
 8004608:	b00b      	add	sp, #44	; 0x2c
 800460a:	bdf0      	pop	{r4, r5, r6, r7, pc}
 800460c:	1e66      	subs	r6, r4, #1
 800460e:	fbb5 f0f2 	udiv	r0, r5, r2
 8004612:	fb02 5510 	mls	r5, r2, r0, r5
 8004616:	af0a      	add	r7, sp, #40	; 0x28
 8004618:	443d      	add	r5, r7
 800461a:	f815 5c28 	ldrb.w	r5, [r5, #-40]
 800461e:	1c59      	adds	r1, r3, #1
 8004620:	f806 5f01 	strb.w	r5, [r6, #1]!
 8004624:	4605      	mov	r5, r0
 8004626:	b968      	cbnz	r0, 8004644 <__utoa+0x74>
 8004628:	4622      	mov	r2, r4
 800462a:	5460      	strb	r0, [r4, r1]
 800462c:	4423      	add	r3, r4
 800462e:	1b19      	subs	r1, r3, r4
 8004630:	1b10      	subs	r0, r2, r4
 8004632:	4281      	cmp	r1, r0
 8004634:	dde7      	ble.n	8004606 <__utoa+0x36>
 8004636:	7811      	ldrb	r1, [r2, #0]
 8004638:	7818      	ldrb	r0, [r3, #0]
 800463a:	f802 0b01 	strb.w	r0, [r2], #1
 800463e:	f803 1901 	strb.w	r1, [r3], #-1
 8004642:	e7f4      	b.n	800462e <__utoa+0x5e>
 8004644:	460b      	mov	r3, r1
 8004646:	e7e2      	b.n	800460e <__utoa+0x3e>
 8004648:	08004a61 	.word	0x08004a61

0800464c <_init>:
 800464c:	b5f8      	push	{r3, r4, r5, r6, r7, lr}
 800464e:	bf00      	nop
 8004650:	bcf8      	pop	{r3, r4, r5, r6, r7}
 8004652:	bc08      	pop	{r3}
 8004654:	469e      	mov	lr, r3
 8004656:	4770      	bx	lr

08004658 <_fini>:
 8004658:	b5f8      	push	{r3, r4, r5, r6, r7, lr}
 800465a:	bf00      	nop
 800465c:	bcf8      	pop	{r3, r4, r5, r6, r7}
 800465e:	bc08      	pop	{r3}
 8004660:	469e      	mov	lr, r3
 8004662:	4770      	bx	lr
