
lab1_GPIO_OUTPUT.elf:     file format elf32-littlearm


Disassembly of section .isr_vector:

08000000 <g_pfnVectors>:
 8000000:	20002800 	andcs	r2, r0, r0, lsl #16
 8000004:	080006c5 	stmdaeq	r0, {r0, r2, r6, r7, r9, sl}
 8000008:	08000715 	stmdaeq	r0, {r0, r2, r4, r8, r9, sl}
 800000c:	080006a1 	stmdaeq	r0, {r0, r5, r7, r9, sl}
 8000010:	08000715 	stmdaeq	r0, {r0, r2, r4, r8, r9, sl}
 8000014:	08000715 	stmdaeq	r0, {r0, r2, r4, r8, r9, sl}
 8000018:	08000715 	stmdaeq	r0, {r0, r2, r4, r8, r9, sl}
	...
 800002c:	08000715 	stmdaeq	r0, {r0, r2, r4, r8, r9, sl}
 8000030:	08000715 	stmdaeq	r0, {r0, r2, r4, r8, r9, sl}
 8000034:	00000000 	andeq	r0, r0, r0
 8000038:	08000715 	stmdaeq	r0, {r0, r2, r4, r8, r9, sl}
 800003c:	08000715 	stmdaeq	r0, {r0, r2, r4, r8, r9, sl}
 8000040:	08000715 	stmdaeq	r0, {r0, r2, r4, r8, r9, sl}
 8000044:	08000715 	stmdaeq	r0, {r0, r2, r4, r8, r9, sl}
 8000048:	08000715 	stmdaeq	r0, {r0, r2, r4, r8, r9, sl}
 800004c:	08000715 	stmdaeq	r0, {r0, r2, r4, r8, r9, sl}
 8000050:	08000715 	stmdaeq	r0, {r0, r2, r4, r8, r9, sl}
 8000054:	08000715 	stmdaeq	r0, {r0, r2, r4, r8, r9, sl}
 8000058:	080002e9 	stmdaeq	r0, {r0, r3, r5, r6, r7, r9}
 800005c:	0800030d 	stmdaeq	r0, {r0, r2, r3, r8, r9}
 8000060:	08000331 	stmdaeq	r0, {r0, r4, r5, r8, r9}
 8000064:	08000355 	stmdaeq	r0, {r0, r2, r4, r6, r8, r9}
 8000068:	08000379 	stmdaeq	r0, {r0, r3, r4, r5, r6, r8, r9}
 800006c:	08000715 	stmdaeq	r0, {r0, r2, r4, r8, r9, sl}
 8000070:	08000715 	stmdaeq	r0, {r0, r2, r4, r8, r9, sl}
 8000074:	08000715 	stmdaeq	r0, {r0, r2, r4, r8, r9, sl}
 8000078:	08000715 	stmdaeq	r0, {r0, r2, r4, r8, r9, sl}
 800007c:	08000715 	stmdaeq	r0, {r0, r2, r4, r8, r9, sl}
 8000080:	08000715 	stmdaeq	r0, {r0, r2, r4, r8, r9, sl}
 8000084:	08000715 	stmdaeq	r0, {r0, r2, r4, r8, r9, sl}
 8000088:	08000715 	stmdaeq	r0, {r0, r2, r4, r8, r9, sl}
 800008c:	08000715 	stmdaeq	r0, {r0, r2, r4, r8, r9, sl}
 8000090:	08000715 	stmdaeq	r0, {r0, r2, r4, r8, r9, sl}
 8000094:	08000715 	stmdaeq	r0, {r0, r2, r4, r8, r9, sl}
 8000098:	08000715 	stmdaeq	r0, {r0, r2, r4, r8, r9, sl}
 800009c:	08000715 	stmdaeq	r0, {r0, r2, r4, r8, r9, sl}
 80000a0:	08000715 	stmdaeq	r0, {r0, r2, r4, r8, r9, sl}
 80000a4:	08000715 	stmdaeq	r0, {r0, r2, r4, r8, r9, sl}
 80000a8:	08000715 	stmdaeq	r0, {r0, r2, r4, r8, r9, sl}
 80000ac:	08000715 	stmdaeq	r0, {r0, r2, r4, r8, r9, sl}
 80000b0:	08000715 	stmdaeq	r0, {r0, r2, r4, r8, r9, sl}
 80000b4:	08000715 	stmdaeq	r0, {r0, r2, r4, r8, r9, sl}
 80000b8:	08000715 	stmdaeq	r0, {r0, r2, r4, r8, r9, sl}
 80000bc:	08000715 	stmdaeq	r0, {r0, r2, r4, r8, r9, sl}
 80000c0:	08000715 	stmdaeq	r0, {r0, r2, r4, r8, r9, sl}
 80000c4:	08000715 	stmdaeq	r0, {r0, r2, r4, r8, r9, sl}
 80000c8:	08000715 	stmdaeq	r0, {r0, r2, r4, r8, r9, sl}
 80000cc:	08000715 	stmdaeq	r0, {r0, r2, r4, r8, r9, sl}
 80000d0:	08000715 	stmdaeq	r0, {r0, r2, r4, r8, r9, sl}
 80000d4:	08000715 	stmdaeq	r0, {r0, r2, r4, r8, r9, sl}
 80000d8:	08000715 	stmdaeq	r0, {r0, r2, r4, r8, r9, sl}
 80000dc:	08000715 	stmdaeq	r0, {r0, r2, r4, r8, r9, sl}
 80000e0:	08000715 	stmdaeq	r0, {r0, r2, r4, r8, r9, sl}
 80000e4:	08000715 	stmdaeq	r0, {r0, r2, r4, r8, r9, sl}
 80000e8:	00000000 	andeq	r0, r0, r0
 80000ec:	08000715 	stmdaeq	r0, {r0, r2, r4, r8, r9, sl}
 80000f0:	08000715 	stmdaeq	r0, {r0, r2, r4, r8, r9, sl}
 80000f4:	08000715 	stmdaeq	r0, {r0, r2, r4, r8, r9, sl}
 80000f8:	08000715 	stmdaeq	r0, {r0, r2, r4, r8, r9, sl}
 80000fc:	08000715 	stmdaeq	r0, {r0, r2, r4, r8, r9, sl}
 8000100:	08000715 	stmdaeq	r0, {r0, r2, r4, r8, r9, sl}
 8000104:	08000715 	stmdaeq	r0, {r0, r2, r4, r8, r9, sl}
 8000108:	08000715 	stmdaeq	r0, {r0, r2, r4, r8, r9, sl}
 800010c:	08000715 	stmdaeq	r0, {r0, r2, r4, r8, r9, sl}
 8000110:	08000715 	stmdaeq	r0, {r0, r2, r4, r8, r9, sl}
 8000114:	08000715 	stmdaeq	r0, {r0, r2, r4, r8, r9, sl}
 8000118:	08000715 	stmdaeq	r0, {r0, r2, r4, r8, r9, sl}
 800011c:	08000715 	stmdaeq	r0, {r0, r2, r4, r8, r9, sl}
 8000120:	08000715 	stmdaeq	r0, {r0, r2, r4, r8, r9, sl}
 8000124:	08000715 	stmdaeq	r0, {r0, r2, r4, r8, r9, sl}
 8000128:	08000715 	stmdaeq	r0, {r0, r2, r4, r8, r9, sl}
 800012c:	08000715 	stmdaeq	r0, {r0, r2, r4, r8, r9, sl}

Disassembly of section .text:

08000130 <__do_global_dtors_aux>:
 8000130:	b510      	push	{r4, lr}
 8000132:	4c05      	ldr	r4, [pc, #20]	; (8000148 <__do_global_dtors_aux+0x18>)
 8000134:	7823      	ldrb	r3, [r4, #0]
 8000136:	b933      	cbnz	r3, 8000146 <__do_global_dtors_aux+0x16>
 8000138:	4b04      	ldr	r3, [pc, #16]	; (800014c <__do_global_dtors_aux+0x1c>)
 800013a:	b113      	cbz	r3, 8000142 <__do_global_dtors_aux+0x12>
 800013c:	4804      	ldr	r0, [pc, #16]	; (8000150 <__do_global_dtors_aux+0x20>)
 800013e:	f3af 8000 	nop.w
 8000142:	2301      	movs	r3, #1
 8000144:	7023      	strb	r3, [r4, #0]
 8000146:	bd10      	pop	{r4, pc}
 8000148:	20000000 	andcs	r0, r0, r0
 800014c:	00000000 	andeq	r0, r0, r0
 8000150:	08000760 	stmdaeq	r0, {r5, r6, r8, r9, sl}

08000154 <frame_dummy>:
 8000154:	b508      	push	{r3, lr}
 8000156:	4b03      	ldr	r3, [pc, #12]	; (8000164 <frame_dummy+0x10>)
 8000158:	b11b      	cbz	r3, 8000162 <frame_dummy+0xe>
 800015a:	4903      	ldr	r1, [pc, #12]	; (8000168 <frame_dummy+0x14>)
 800015c:	4803      	ldr	r0, [pc, #12]	; (800016c <frame_dummy+0x18>)
 800015e:	f3af 8000 	nop.w
 8000162:	bd08      	pop	{r3, pc}
 8000164:	00000000 	andeq	r0, r0, r0
 8000168:	20000004 	andcs	r0, r0, r4
 800016c:	08000760 	stmdaeq	r0, {r5, r6, r8, r9, sl}

08000170 <AFIO_voidEXTIConfiguration>:
 8000170:	b480      	push	{r7}
 8000172:	b085      	sub	sp, #20
 8000174:	af00      	add	r7, sp, #0
 8000176:	4603      	mov	r3, r0
 8000178:	460a      	mov	r2, r1
 800017a:	71fb      	strb	r3, [r7, #7]
 800017c:	4613      	mov	r3, r2
 800017e:	71bb      	strb	r3, [r7, #6]
 8000180:	79bb      	ldrb	r3, [r7, #6]
 8000182:	3b02      	subs	r3, #2
 8000184:	71bb      	strb	r3, [r7, #6]
 8000186:	2300      	movs	r3, #0
 8000188:	73fb      	strb	r3, [r7, #15]
 800018a:	2300      	movs	r3, #0
 800018c:	73bb      	strb	r3, [r7, #14]
 800018e:	79fb      	ldrb	r3, [r7, #7]
 8000190:	089b      	lsrs	r3, r3, #2
 8000192:	73fb      	strb	r3, [r7, #15]
 8000194:	79fb      	ldrb	r3, [r7, #7]
 8000196:	f003 0303 	and.w	r3, r3, #3
 800019a:	73bb      	strb	r3, [r7, #14]
 800019c:	4a12      	ldr	r2, [pc, #72]	; (80001e8 <AFIO_voidEXTIConfiguration+0x78>)
 800019e:	7bfb      	ldrb	r3, [r7, #15]
 80001a0:	3302      	adds	r3, #2
 80001a2:	f852 2023 	ldr.w	r2, [r2, r3, lsl #2]
 80001a6:	7bbb      	ldrb	r3, [r7, #14]
 80001a8:	210f      	movs	r1, #15
 80001aa:	fa01 f303 	lsl.w	r3, r1, r3
 80001ae:	43db      	mvns	r3, r3
 80001b0:	4618      	mov	r0, r3
 80001b2:	490d      	ldr	r1, [pc, #52]	; (80001e8 <AFIO_voidEXTIConfiguration+0x78>)
 80001b4:	7bfb      	ldrb	r3, [r7, #15]
 80001b6:	4002      	ands	r2, r0
 80001b8:	3302      	adds	r3, #2
 80001ba:	f841 2023 	str.w	r2, [r1, r3, lsl #2]
 80001be:	4a0a      	ldr	r2, [pc, #40]	; (80001e8 <AFIO_voidEXTIConfiguration+0x78>)
 80001c0:	7bfb      	ldrb	r3, [r7, #15]
 80001c2:	3302      	adds	r3, #2
 80001c4:	f852 2023 	ldr.w	r2, [r2, r3, lsl #2]
 80001c8:	79b9      	ldrb	r1, [r7, #6]
 80001ca:	7bbb      	ldrb	r3, [r7, #14]
 80001cc:	fa01 f303 	lsl.w	r3, r1, r3
 80001d0:	4618      	mov	r0, r3
 80001d2:	4905      	ldr	r1, [pc, #20]	; (80001e8 <AFIO_voidEXTIConfiguration+0x78>)
 80001d4:	7bfb      	ldrb	r3, [r7, #15]
 80001d6:	4302      	orrs	r2, r0
 80001d8:	3302      	adds	r3, #2
 80001da:	f841 2023 	str.w	r2, [r1, r3, lsl #2]
 80001de:	bf00      	nop
 80001e0:	3714      	adds	r7, #20
 80001e2:	46bd      	mov	sp, r7
 80001e4:	bc80      	pop	{r7}
 80001e6:	4770      	bx	lr
 80001e8:	40010400 	andmi	r0, r1, r0, lsl #8

080001ec <EXTI_voidInitLine>:
 80001ec:	b480      	push	{r7}
 80001ee:	b083      	sub	sp, #12
 80001f0:	af00      	add	r7, sp, #0
 80001f2:	4603      	mov	r3, r0
 80001f4:	460a      	mov	r2, r1
 80001f6:	71fb      	strb	r3, [r7, #7]
 80001f8:	4613      	mov	r3, r2
 80001fa:	71bb      	strb	r3, [r7, #6]
 80001fc:	79bb      	ldrb	r3, [r7, #6]
 80001fe:	2b01      	cmp	r3, #1
 8000200:	d019      	beq.n	8000236 <EXTI_voidInitLine+0x4a>
 8000202:	2b02      	cmp	r3, #2
 8000204:	d02c      	beq.n	8000260 <EXTI_voidInitLine+0x74>
 8000206:	2b00      	cmp	r3, #0
 8000208:	d000      	beq.n	800020c <EXTI_voidInitLine+0x20>
 800020a:	e03d      	b.n	8000288 <EXTI_voidInitLine+0x9c>
 800020c:	4b21      	ldr	r3, [pc, #132]	; (8000294 <EXTI_voidInitLine+0xa8>)
 800020e:	68db      	ldr	r3, [r3, #12]
 8000210:	79fa      	ldrb	r2, [r7, #7]
 8000212:	2101      	movs	r1, #1
 8000214:	fa01 f202 	lsl.w	r2, r1, r2
 8000218:	43d2      	mvns	r2, r2
 800021a:	4611      	mov	r1, r2
 800021c:	4a1d      	ldr	r2, [pc, #116]	; (8000294 <EXTI_voidInitLine+0xa8>)
 800021e:	400b      	ands	r3, r1
 8000220:	60d3      	str	r3, [r2, #12]
 8000222:	4b1c      	ldr	r3, [pc, #112]	; (8000294 <EXTI_voidInitLine+0xa8>)
 8000224:	689b      	ldr	r3, [r3, #8]
 8000226:	79fa      	ldrb	r2, [r7, #7]
 8000228:	2101      	movs	r1, #1
 800022a:	fa01 f202 	lsl.w	r2, r1, r2
 800022e:	4611      	mov	r1, r2
 8000230:	4a18      	ldr	r2, [pc, #96]	; (8000294 <EXTI_voidInitLine+0xa8>)
 8000232:	430b      	orrs	r3, r1
 8000234:	6093      	str	r3, [r2, #8]
 8000236:	4b17      	ldr	r3, [pc, #92]	; (8000294 <EXTI_voidInitLine+0xa8>)
 8000238:	68db      	ldr	r3, [r3, #12]
 800023a:	79fa      	ldrb	r2, [r7, #7]
 800023c:	2101      	movs	r1, #1
 800023e:	fa01 f202 	lsl.w	r2, r1, r2
 8000242:	4611      	mov	r1, r2
 8000244:	4a13      	ldr	r2, [pc, #76]	; (8000294 <EXTI_voidInitLine+0xa8>)
 8000246:	430b      	orrs	r3, r1
 8000248:	60d3      	str	r3, [r2, #12]
 800024a:	4b12      	ldr	r3, [pc, #72]	; (8000294 <EXTI_voidInitLine+0xa8>)
 800024c:	689b      	ldr	r3, [r3, #8]
 800024e:	79fa      	ldrb	r2, [r7, #7]
 8000250:	2101      	movs	r1, #1
 8000252:	fa01 f202 	lsl.w	r2, r1, r2
 8000256:	43d2      	mvns	r2, r2
 8000258:	4611      	mov	r1, r2
 800025a:	4a0e      	ldr	r2, [pc, #56]	; (8000294 <EXTI_voidInitLine+0xa8>)
 800025c:	400b      	ands	r3, r1
 800025e:	6093      	str	r3, [r2, #8]
 8000260:	4b0c      	ldr	r3, [pc, #48]	; (8000294 <EXTI_voidInitLine+0xa8>)
 8000262:	689b      	ldr	r3, [r3, #8]
 8000264:	79fa      	ldrb	r2, [r7, #7]
 8000266:	2101      	movs	r1, #1
 8000268:	fa01 f202 	lsl.w	r2, r1, r2
 800026c:	4611      	mov	r1, r2
 800026e:	4a09      	ldr	r2, [pc, #36]	; (8000294 <EXTI_voidInitLine+0xa8>)
 8000270:	430b      	orrs	r3, r1
 8000272:	6093      	str	r3, [r2, #8]
 8000274:	4b07      	ldr	r3, [pc, #28]	; (8000294 <EXTI_voidInitLine+0xa8>)
 8000276:	68db      	ldr	r3, [r3, #12]
 8000278:	79fa      	ldrb	r2, [r7, #7]
 800027a:	2101      	movs	r1, #1
 800027c:	fa01 f202 	lsl.w	r2, r1, r2
 8000280:	4611      	mov	r1, r2
 8000282:	4a04      	ldr	r2, [pc, #16]	; (8000294 <EXTI_voidInitLine+0xa8>)
 8000284:	430b      	orrs	r3, r1
 8000286:	60d3      	str	r3, [r2, #12]
 8000288:	bf00      	nop
 800028a:	bf00      	nop
 800028c:	370c      	adds	r7, #12
 800028e:	46bd      	mov	sp, r7
 8000290:	bc80      	pop	{r7}
 8000292:	4770      	bx	lr
 8000294:	40010400 	andmi	r0, r1, r0, lsl #8

08000298 <EXTI_voidEnableEXTI>:
 8000298:	b480      	push	{r7}
 800029a:	b083      	sub	sp, #12
 800029c:	af00      	add	r7, sp, #0
 800029e:	4603      	mov	r3, r0
 80002a0:	71fb      	strb	r3, [r7, #7]
 80002a2:	4b07      	ldr	r3, [pc, #28]	; (80002c0 <EXTI_voidEnableEXTI+0x28>)
 80002a4:	681b      	ldr	r3, [r3, #0]
 80002a6:	79fa      	ldrb	r2, [r7, #7]
 80002a8:	2101      	movs	r1, #1
 80002aa:	fa01 f202 	lsl.w	r2, r1, r2
 80002ae:	4611      	mov	r1, r2
 80002b0:	4a03      	ldr	r2, [pc, #12]	; (80002c0 <EXTI_voidEnableEXTI+0x28>)
 80002b2:	430b      	orrs	r3, r1
 80002b4:	6013      	str	r3, [r2, #0]
 80002b6:	bf00      	nop
 80002b8:	370c      	adds	r7, #12
 80002ba:	46bd      	mov	sp, r7
 80002bc:	bc80      	pop	{r7}
 80002be:	4770      	bx	lr
 80002c0:	40010400 	andmi	r0, r1, r0, lsl #8

080002c4 <EXTI_voidSetCallBackFCN>:
 80002c4:	b480      	push	{r7}
 80002c6:	b083      	sub	sp, #12
 80002c8:	af00      	add	r7, sp, #0
 80002ca:	4603      	mov	r3, r0
 80002cc:	6039      	str	r1, [r7, #0]
 80002ce:	71fb      	strb	r3, [r7, #7]
 80002d0:	79fb      	ldrb	r3, [r7, #7]
 80002d2:	4904      	ldr	r1, [pc, #16]	; (80002e4 <EXTI_voidSetCallBackFCN+0x20>)
 80002d4:	683a      	ldr	r2, [r7, #0]
 80002d6:	f841 2023 	str.w	r2, [r1, r3, lsl #2]
 80002da:	bf00      	nop
 80002dc:	370c      	adds	r7, #12
 80002de:	46bd      	mov	sp, r7
 80002e0:	bc80      	pop	{r7}
 80002e2:	4770      	bx	lr
 80002e4:	2000001c 	andcs	r0, r0, ip, lsl r0

080002e8 <EXTI0_IRQHandler>:
 80002e8:	b580      	push	{r7, lr}
 80002ea:	af00      	add	r7, sp, #0
 80002ec:	4b05      	ldr	r3, [pc, #20]	; (8000304 <EXTI0_IRQHandler+0x1c>)
 80002ee:	681b      	ldr	r3, [r3, #0]
 80002f0:	4798      	blx	r3
 80002f2:	4b05      	ldr	r3, [pc, #20]	; (8000308 <EXTI0_IRQHandler+0x20>)
 80002f4:	695b      	ldr	r3, [r3, #20]
 80002f6:	4a04      	ldr	r2, [pc, #16]	; (8000308 <EXTI0_IRQHandler+0x20>)
 80002f8:	f043 0301 	orr.w	r3, r3, #1
 80002fc:	6153      	str	r3, [r2, #20]
 80002fe:	bf00      	nop
 8000300:	bd80      	pop	{r7, pc}
 8000302:	bf00      	nop
 8000304:	2000001c 	andcs	r0, r0, ip, lsl r0
 8000308:	40010400 	andmi	r0, r1, r0, lsl #8

0800030c <EXTI1_IRQHandler>:
 800030c:	b580      	push	{r7, lr}
 800030e:	af00      	add	r7, sp, #0
 8000310:	4b05      	ldr	r3, [pc, #20]	; (8000328 <EXTI1_IRQHandler+0x1c>)
 8000312:	685b      	ldr	r3, [r3, #4]
 8000314:	4798      	blx	r3
 8000316:	4b05      	ldr	r3, [pc, #20]	; (800032c <EXTI1_IRQHandler+0x20>)
 8000318:	695b      	ldr	r3, [r3, #20]
 800031a:	4a04      	ldr	r2, [pc, #16]	; (800032c <EXTI1_IRQHandler+0x20>)
 800031c:	f043 0302 	orr.w	r3, r3, #2
 8000320:	6153      	str	r3, [r2, #20]
 8000322:	bf00      	nop
 8000324:	bd80      	pop	{r7, pc}
 8000326:	bf00      	nop
 8000328:	2000001c 	andcs	r0, r0, ip, lsl r0
 800032c:	40010400 	andmi	r0, r1, r0, lsl #8

08000330 <EXTI2_IRQHandler>:
 8000330:	b580      	push	{r7, lr}
 8000332:	af00      	add	r7, sp, #0
 8000334:	4b05      	ldr	r3, [pc, #20]	; (800034c <EXTI2_IRQHandler+0x1c>)
 8000336:	689b      	ldr	r3, [r3, #8]
 8000338:	4798      	blx	r3
 800033a:	4b05      	ldr	r3, [pc, #20]	; (8000350 <EXTI2_IRQHandler+0x20>)
 800033c:	695b      	ldr	r3, [r3, #20]
 800033e:	4a04      	ldr	r2, [pc, #16]	; (8000350 <EXTI2_IRQHandler+0x20>)
 8000340:	f043 0304 	orr.w	r3, r3, #4
 8000344:	6153      	str	r3, [r2, #20]
 8000346:	bf00      	nop
 8000348:	bd80      	pop	{r7, pc}
 800034a:	bf00      	nop
 800034c:	2000001c 	andcs	r0, r0, ip, lsl r0
 8000350:	40010400 	andmi	r0, r1, r0, lsl #8

08000354 <EXTI3_IRQHandler>:
 8000354:	b580      	push	{r7, lr}
 8000356:	af00      	add	r7, sp, #0
 8000358:	4b05      	ldr	r3, [pc, #20]	; (8000370 <EXTI3_IRQHandler+0x1c>)
 800035a:	68db      	ldr	r3, [r3, #12]
 800035c:	4798      	blx	r3
 800035e:	4b05      	ldr	r3, [pc, #20]	; (8000374 <EXTI3_IRQHandler+0x20>)
 8000360:	695b      	ldr	r3, [r3, #20]
 8000362:	4a04      	ldr	r2, [pc, #16]	; (8000374 <EXTI3_IRQHandler+0x20>)
 8000364:	f043 0308 	orr.w	r3, r3, #8
 8000368:	6153      	str	r3, [r2, #20]
 800036a:	bf00      	nop
 800036c:	bd80      	pop	{r7, pc}
 800036e:	bf00      	nop
 8000370:	2000001c 	andcs	r0, r0, ip, lsl r0
 8000374:	40010400 	andmi	r0, r1, r0, lsl #8

08000378 <EXTI4_IRQHandler>:
 8000378:	b580      	push	{r7, lr}
 800037a:	af00      	add	r7, sp, #0
 800037c:	4b05      	ldr	r3, [pc, #20]	; (8000394 <EXTI4_IRQHandler+0x1c>)
 800037e:	691b      	ldr	r3, [r3, #16]
 8000380:	4798      	blx	r3
 8000382:	4b05      	ldr	r3, [pc, #20]	; (8000398 <EXTI4_IRQHandler+0x20>)
 8000384:	695b      	ldr	r3, [r3, #20]
 8000386:	4a04      	ldr	r2, [pc, #16]	; (8000398 <EXTI4_IRQHandler+0x20>)
 8000388:	f043 0310 	orr.w	r3, r3, #16
 800038c:	6153      	str	r3, [r2, #20]
 800038e:	bf00      	nop
 8000390:	bd80      	pop	{r7, pc}
 8000392:	bf00      	nop
 8000394:	2000001c 	andcs	r0, r0, ip, lsl r0
 8000398:	40010400 	andmi	r0, r1, r0, lsl #8

0800039c <GPIO_voidSetPinDirection>:
 800039c:	b480      	push	{r7}
 800039e:	b083      	sub	sp, #12
 80003a0:	af00      	add	r7, sp, #0
 80003a2:	4603      	mov	r3, r0
 80003a4:	71fb      	strb	r3, [r7, #7]
 80003a6:	460b      	mov	r3, r1
 80003a8:	71bb      	strb	r3, [r7, #6]
 80003aa:	4613      	mov	r3, r2
 80003ac:	717b      	strb	r3, [r7, #5]
 80003ae:	79fb      	ldrb	r3, [r7, #7]
 80003b0:	2b03      	cmp	r3, #3
 80003b2:	d03e      	beq.n	8000432 <GPIO_voidSetPinDirection+0x96>
 80003b4:	2b04      	cmp	r3, #4
 80003b6:	d075      	beq.n	80004a4 <GPIO_voidSetPinDirection+0x108>
 80003b8:	2b02      	cmp	r3, #2
 80003ba:	d000      	beq.n	80003be <GPIO_voidSetPinDirection+0x22>
 80003bc:	e0a9      	b.n	8000512 <GPIO_voidSetPinDirection+0x176>
 80003be:	79bb      	ldrb	r3, [r7, #6]
 80003c0:	2b07      	cmp	r3, #7
 80003c2:	d817      	bhi.n	80003f4 <GPIO_voidSetPinDirection+0x58>
 80003c4:	4b55      	ldr	r3, [pc, #340]	; (800051c <GPIO_voidSetPinDirection+0x180>)
 80003c6:	681b      	ldr	r3, [r3, #0]
 80003c8:	79ba      	ldrb	r2, [r7, #6]
 80003ca:	0092      	lsls	r2, r2, #2
 80003cc:	210f      	movs	r1, #15
 80003ce:	fa01 f202 	lsl.w	r2, r1, r2
 80003d2:	43d2      	mvns	r2, r2
 80003d4:	4611      	mov	r1, r2
 80003d6:	4a51      	ldr	r2, [pc, #324]	; (800051c <GPIO_voidSetPinDirection+0x180>)
 80003d8:	400b      	ands	r3, r1
 80003da:	6013      	str	r3, [r2, #0]
 80003dc:	4b4f      	ldr	r3, [pc, #316]	; (800051c <GPIO_voidSetPinDirection+0x180>)
 80003de:	681b      	ldr	r3, [r3, #0]
 80003e0:	7979      	ldrb	r1, [r7, #5]
 80003e2:	79ba      	ldrb	r2, [r7, #6]
 80003e4:	0092      	lsls	r2, r2, #2
 80003e6:	fa01 f202 	lsl.w	r2, r1, r2
 80003ea:	4611      	mov	r1, r2
 80003ec:	4a4b      	ldr	r2, [pc, #300]	; (800051c <GPIO_voidSetPinDirection+0x180>)
 80003ee:	430b      	orrs	r3, r1
 80003f0:	6013      	str	r3, [r2, #0]
 80003f2:	e089      	b.n	8000508 <GPIO_voidSetPinDirection+0x16c>
 80003f4:	79bb      	ldrb	r3, [r7, #6]
 80003f6:	2b0f      	cmp	r3, #15
 80003f8:	f200 8086 	bhi.w	8000508 <GPIO_voidSetPinDirection+0x16c>
 80003fc:	79bb      	ldrb	r3, [r7, #6]
 80003fe:	3b08      	subs	r3, #8
 8000400:	71bb      	strb	r3, [r7, #6]
 8000402:	4b46      	ldr	r3, [pc, #280]	; (800051c <GPIO_voidSetPinDirection+0x180>)
 8000404:	685b      	ldr	r3, [r3, #4]
 8000406:	79ba      	ldrb	r2, [r7, #6]
 8000408:	0092      	lsls	r2, r2, #2
 800040a:	210f      	movs	r1, #15
 800040c:	fa01 f202 	lsl.w	r2, r1, r2
 8000410:	43d2      	mvns	r2, r2
 8000412:	4611      	mov	r1, r2
 8000414:	4a41      	ldr	r2, [pc, #260]	; (800051c <GPIO_voidSetPinDirection+0x180>)
 8000416:	400b      	ands	r3, r1
 8000418:	6053      	str	r3, [r2, #4]
 800041a:	4b40      	ldr	r3, [pc, #256]	; (800051c <GPIO_voidSetPinDirection+0x180>)
 800041c:	685b      	ldr	r3, [r3, #4]
 800041e:	7979      	ldrb	r1, [r7, #5]
 8000420:	79ba      	ldrb	r2, [r7, #6]
 8000422:	0092      	lsls	r2, r2, #2
 8000424:	fa01 f202 	lsl.w	r2, r1, r2
 8000428:	4611      	mov	r1, r2
 800042a:	4a3c      	ldr	r2, [pc, #240]	; (800051c <GPIO_voidSetPinDirection+0x180>)
 800042c:	430b      	orrs	r3, r1
 800042e:	6053      	str	r3, [r2, #4]
 8000430:	e06a      	b.n	8000508 <GPIO_voidSetPinDirection+0x16c>
 8000432:	79bb      	ldrb	r3, [r7, #6]
 8000434:	2b07      	cmp	r3, #7
 8000436:	d817      	bhi.n	8000468 <GPIO_voidSetPinDirection+0xcc>
 8000438:	4b39      	ldr	r3, [pc, #228]	; (8000520 <GPIO_voidSetPinDirection+0x184>)
 800043a:	681b      	ldr	r3, [r3, #0]
 800043c:	79ba      	ldrb	r2, [r7, #6]
 800043e:	0092      	lsls	r2, r2, #2
 8000440:	210f      	movs	r1, #15
 8000442:	fa01 f202 	lsl.w	r2, r1, r2
 8000446:	43d2      	mvns	r2, r2
 8000448:	4611      	mov	r1, r2
 800044a:	4a35      	ldr	r2, [pc, #212]	; (8000520 <GPIO_voidSetPinDirection+0x184>)
 800044c:	400b      	ands	r3, r1
 800044e:	6013      	str	r3, [r2, #0]
 8000450:	4b33      	ldr	r3, [pc, #204]	; (8000520 <GPIO_voidSetPinDirection+0x184>)
 8000452:	681b      	ldr	r3, [r3, #0]
 8000454:	7979      	ldrb	r1, [r7, #5]
 8000456:	79ba      	ldrb	r2, [r7, #6]
 8000458:	0092      	lsls	r2, r2, #2
 800045a:	fa01 f202 	lsl.w	r2, r1, r2
 800045e:	4611      	mov	r1, r2
 8000460:	4a2f      	ldr	r2, [pc, #188]	; (8000520 <GPIO_voidSetPinDirection+0x184>)
 8000462:	430b      	orrs	r3, r1
 8000464:	6013      	str	r3, [r2, #0]
 8000466:	e051      	b.n	800050c <GPIO_voidSetPinDirection+0x170>
 8000468:	79bb      	ldrb	r3, [r7, #6]
 800046a:	2b0f      	cmp	r3, #15
 800046c:	d84e      	bhi.n	800050c <GPIO_voidSetPinDirection+0x170>
 800046e:	79bb      	ldrb	r3, [r7, #6]
 8000470:	3b08      	subs	r3, #8
 8000472:	71bb      	strb	r3, [r7, #6]
 8000474:	4b2a      	ldr	r3, [pc, #168]	; (8000520 <GPIO_voidSetPinDirection+0x184>)
 8000476:	685b      	ldr	r3, [r3, #4]
 8000478:	79ba      	ldrb	r2, [r7, #6]
 800047a:	0092      	lsls	r2, r2, #2
 800047c:	210f      	movs	r1, #15
 800047e:	fa01 f202 	lsl.w	r2, r1, r2
 8000482:	43d2      	mvns	r2, r2
 8000484:	4611      	mov	r1, r2
 8000486:	4a26      	ldr	r2, [pc, #152]	; (8000520 <GPIO_voidSetPinDirection+0x184>)
 8000488:	400b      	ands	r3, r1
 800048a:	6053      	str	r3, [r2, #4]
 800048c:	4b24      	ldr	r3, [pc, #144]	; (8000520 <GPIO_voidSetPinDirection+0x184>)
 800048e:	685b      	ldr	r3, [r3, #4]
 8000490:	7979      	ldrb	r1, [r7, #5]
 8000492:	79ba      	ldrb	r2, [r7, #6]
 8000494:	0092      	lsls	r2, r2, #2
 8000496:	fa01 f202 	lsl.w	r2, r1, r2
 800049a:	4611      	mov	r1, r2
 800049c:	4a20      	ldr	r2, [pc, #128]	; (8000520 <GPIO_voidSetPinDirection+0x184>)
 800049e:	430b      	orrs	r3, r1
 80004a0:	6053      	str	r3, [r2, #4]
 80004a2:	e033      	b.n	800050c <GPIO_voidSetPinDirection+0x170>
 80004a4:	79bb      	ldrb	r3, [r7, #6]
 80004a6:	2b07      	cmp	r3, #7
 80004a8:	d810      	bhi.n	80004cc <GPIO_voidSetPinDirection+0x130>
 80004aa:	4b1e      	ldr	r3, [pc, #120]	; (8000524 <GPIO_voidSetPinDirection+0x188>)
 80004ac:	681b      	ldr	r3, [r3, #0]
 80004ae:	4b1d      	ldr	r3, [pc, #116]	; (8000524 <GPIO_voidSetPinDirection+0x188>)
 80004b0:	2200      	movs	r2, #0
 80004b2:	601a      	str	r2, [r3, #0]
 80004b4:	4b1b      	ldr	r3, [pc, #108]	; (8000524 <GPIO_voidSetPinDirection+0x188>)
 80004b6:	681b      	ldr	r3, [r3, #0]
 80004b8:	7979      	ldrb	r1, [r7, #5]
 80004ba:	79ba      	ldrb	r2, [r7, #6]
 80004bc:	0092      	lsls	r2, r2, #2
 80004be:	fa01 f202 	lsl.w	r2, r1, r2
 80004c2:	4611      	mov	r1, r2
 80004c4:	4a17      	ldr	r2, [pc, #92]	; (8000524 <GPIO_voidSetPinDirection+0x188>)
 80004c6:	430b      	orrs	r3, r1
 80004c8:	6013      	str	r3, [r2, #0]
 80004ca:	e021      	b.n	8000510 <GPIO_voidSetPinDirection+0x174>
 80004cc:	79bb      	ldrb	r3, [r7, #6]
 80004ce:	2b0f      	cmp	r3, #15
 80004d0:	d81e      	bhi.n	8000510 <GPIO_voidSetPinDirection+0x174>
 80004d2:	79bb      	ldrb	r3, [r7, #6]
 80004d4:	3b08      	subs	r3, #8
 80004d6:	71bb      	strb	r3, [r7, #6]
 80004d8:	4b12      	ldr	r3, [pc, #72]	; (8000524 <GPIO_voidSetPinDirection+0x188>)
 80004da:	685b      	ldr	r3, [r3, #4]
 80004dc:	79ba      	ldrb	r2, [r7, #6]
 80004de:	0092      	lsls	r2, r2, #2
 80004e0:	210f      	movs	r1, #15
 80004e2:	fa01 f202 	lsl.w	r2, r1, r2
 80004e6:	43d2      	mvns	r2, r2
 80004e8:	4611      	mov	r1, r2
 80004ea:	4a0e      	ldr	r2, [pc, #56]	; (8000524 <GPIO_voidSetPinDirection+0x188>)
 80004ec:	400b      	ands	r3, r1
 80004ee:	6053      	str	r3, [r2, #4]
 80004f0:	4b0c      	ldr	r3, [pc, #48]	; (8000524 <GPIO_voidSetPinDirection+0x188>)
 80004f2:	685b      	ldr	r3, [r3, #4]
 80004f4:	7979      	ldrb	r1, [r7, #5]
 80004f6:	79ba      	ldrb	r2, [r7, #6]
 80004f8:	0092      	lsls	r2, r2, #2
 80004fa:	fa01 f202 	lsl.w	r2, r1, r2
 80004fe:	4611      	mov	r1, r2
 8000500:	4a08      	ldr	r2, [pc, #32]	; (8000524 <GPIO_voidSetPinDirection+0x188>)
 8000502:	430b      	orrs	r3, r1
 8000504:	6053      	str	r3, [r2, #4]
 8000506:	e003      	b.n	8000510 <GPIO_voidSetPinDirection+0x174>
 8000508:	bf00      	nop
 800050a:	e002      	b.n	8000512 <GPIO_voidSetPinDirection+0x176>
 800050c:	bf00      	nop
 800050e:	e000      	b.n	8000512 <GPIO_voidSetPinDirection+0x176>
 8000510:	bf00      	nop
 8000512:	bf00      	nop
 8000514:	370c      	adds	r7, #12
 8000516:	46bd      	mov	sp, r7
 8000518:	bc80      	pop	{r7}
 800051a:	4770      	bx	lr
 800051c:	40010800 	andmi	r0, r1, r0, lsl #16
 8000520:	40010c00 	andmi	r0, r1, r0, lsl #24
 8000524:	40011000 	andmi	r1, r1, r0

08000528 <NVIC_voidEnableInterrupt>:
 8000528:	b480      	push	{r7}
 800052a:	b083      	sub	sp, #12
 800052c:	af00      	add	r7, sp, #0
 800052e:	4603      	mov	r3, r0
 8000530:	71fb      	strb	r3, [r7, #7]
 8000532:	79fb      	ldrb	r3, [r7, #7]
 8000534:	2b1f      	cmp	r3, #31
 8000536:	d80a      	bhi.n	800054e <NVIC_voidEnableInterrupt+0x26>
 8000538:	4b0f      	ldr	r3, [pc, #60]	; (8000578 <NVIC_voidEnableInterrupt+0x50>)
 800053a:	681b      	ldr	r3, [r3, #0]
 800053c:	79fa      	ldrb	r2, [r7, #7]
 800053e:	2101      	movs	r1, #1
 8000540:	fa01 f202 	lsl.w	r2, r1, r2
 8000544:	4611      	mov	r1, r2
 8000546:	4a0c      	ldr	r2, [pc, #48]	; (8000578 <NVIC_voidEnableInterrupt+0x50>)
 8000548:	430b      	orrs	r3, r1
 800054a:	6013      	str	r3, [r2, #0]
 800054c:	e00f      	b.n	800056e <NVIC_voidEnableInterrupt+0x46>
 800054e:	79fb      	ldrb	r3, [r7, #7]
 8000550:	2b3b      	cmp	r3, #59	; 0x3b
 8000552:	d80c      	bhi.n	800056e <NVIC_voidEnableInterrupt+0x46>
 8000554:	79fb      	ldrb	r3, [r7, #7]
 8000556:	3b20      	subs	r3, #32
 8000558:	71fb      	strb	r3, [r7, #7]
 800055a:	4b08      	ldr	r3, [pc, #32]	; (800057c <NVIC_voidEnableInterrupt+0x54>)
 800055c:	681b      	ldr	r3, [r3, #0]
 800055e:	79fa      	ldrb	r2, [r7, #7]
 8000560:	2101      	movs	r1, #1
 8000562:	fa01 f202 	lsl.w	r2, r1, r2
 8000566:	4611      	mov	r1, r2
 8000568:	4a04      	ldr	r2, [pc, #16]	; (800057c <NVIC_voidEnableInterrupt+0x54>)
 800056a:	430b      	orrs	r3, r1
 800056c:	6013      	str	r3, [r2, #0]
 800056e:	bf00      	nop
 8000570:	370c      	adds	r7, #12
 8000572:	46bd      	mov	sp, r7
 8000574:	bc80      	pop	{r7}
 8000576:	4770      	bx	lr
 8000578:	e000e100 	and	lr, r0, r0, lsl #2
 800057c:	e000e104 	and	lr, r0, r4, lsl #2

08000580 <RCC_voidInitSysClock>:
 8000580:	b480      	push	{r7}
 8000582:	af00      	add	r7, sp, #0
 8000584:	4b05      	ldr	r3, [pc, #20]	; (800059c <RCC_voidInitSysClock+0x1c>)
 8000586:	f44f 3280 	mov.w	r2, #65536	; 0x10000
 800058a:	601a      	str	r2, [r3, #0]
 800058c:	4b04      	ldr	r3, [pc, #16]	; (80005a0 <RCC_voidInitSysClock+0x20>)
 800058e:	2201      	movs	r2, #1
 8000590:	601a      	str	r2, [r3, #0]
 8000592:	bf00      	nop
 8000594:	46bd      	mov	sp, r7
 8000596:	bc80      	pop	{r7}
 8000598:	4770      	bx	lr
 800059a:	bf00      	nop
 800059c:	40021000 	andmi	r1, r2, r0
 80005a0:	40021004 	andmi	r1, r2, r4

080005a4 <RCC_voidEnableClock>:
 80005a4:	b480      	push	{r7}
 80005a6:	b083      	sub	sp, #12
 80005a8:	af00      	add	r7, sp, #0
 80005aa:	4603      	mov	r3, r0
 80005ac:	460a      	mov	r2, r1
 80005ae:	71fb      	strb	r3, [r7, #7]
 80005b0:	4613      	mov	r3, r2
 80005b2:	71bb      	strb	r3, [r7, #6]
 80005b4:	79bb      	ldrb	r3, [r7, #6]
 80005b6:	2b1f      	cmp	r3, #31
 80005b8:	d828      	bhi.n	800060c <RCC_voidEnableClock+0x68>
 80005ba:	79fb      	ldrb	r3, [r7, #7]
 80005bc:	2b01      	cmp	r3, #1
 80005be:	d00f      	beq.n	80005e0 <RCC_voidEnableClock+0x3c>
 80005c0:	2b02      	cmp	r3, #2
 80005c2:	d018      	beq.n	80005f6 <RCC_voidEnableClock+0x52>
 80005c4:	2b00      	cmp	r3, #0
 80005c6:	d000      	beq.n	80005ca <RCC_voidEnableClock+0x26>
 80005c8:	e020      	b.n	800060c <RCC_voidEnableClock+0x68>
 80005ca:	4b13      	ldr	r3, [pc, #76]	; (8000618 <RCC_voidEnableClock+0x74>)
 80005cc:	681b      	ldr	r3, [r3, #0]
 80005ce:	79ba      	ldrb	r2, [r7, #6]
 80005d0:	2101      	movs	r1, #1
 80005d2:	fa01 f202 	lsl.w	r2, r1, r2
 80005d6:	4611      	mov	r1, r2
 80005d8:	4a0f      	ldr	r2, [pc, #60]	; (8000618 <RCC_voidEnableClock+0x74>)
 80005da:	430b      	orrs	r3, r1
 80005dc:	6013      	str	r3, [r2, #0]
 80005de:	e015      	b.n	800060c <RCC_voidEnableClock+0x68>
 80005e0:	4b0e      	ldr	r3, [pc, #56]	; (800061c <RCC_voidEnableClock+0x78>)
 80005e2:	681b      	ldr	r3, [r3, #0]
 80005e4:	79ba      	ldrb	r2, [r7, #6]
 80005e6:	2101      	movs	r1, #1
 80005e8:	fa01 f202 	lsl.w	r2, r1, r2
 80005ec:	4611      	mov	r1, r2
 80005ee:	4a0b      	ldr	r2, [pc, #44]	; (800061c <RCC_voidEnableClock+0x78>)
 80005f0:	430b      	orrs	r3, r1
 80005f2:	6013      	str	r3, [r2, #0]
 80005f4:	e00a      	b.n	800060c <RCC_voidEnableClock+0x68>
 80005f6:	4b0a      	ldr	r3, [pc, #40]	; (8000620 <RCC_voidEnableClock+0x7c>)
 80005f8:	681b      	ldr	r3, [r3, #0]
 80005fa:	79ba      	ldrb	r2, [r7, #6]
 80005fc:	2101      	movs	r1, #1
 80005fe:	fa01 f202 	lsl.w	r2, r1, r2
 8000602:	4611      	mov	r1, r2
 8000604:	4a06      	ldr	r2, [pc, #24]	; (8000620 <RCC_voidEnableClock+0x7c>)
 8000606:	430b      	orrs	r3, r1
 8000608:	6013      	str	r3, [r2, #0]
 800060a:	bf00      	nop
 800060c:	bf00      	nop
 800060e:	370c      	adds	r7, #12
 8000610:	46bd      	mov	sp, r7
 8000612:	bc80      	pop	{r7}
 8000614:	4770      	bx	lr
 8000616:	bf00      	nop
 8000618:	40021014 	andmi	r1, r2, r4, lsl r0
 800061c:	4002101c 	andmi	r1, r2, ip, lsl r0
 8000620:	40021018 	andmi	r1, r2, r8, lsl r0

08000624 <main>:
 8000624:	b580      	push	{r7, lr}
 8000626:	b082      	sub	sp, #8
 8000628:	af00      	add	r7, sp, #0
 800062a:	f7ff ffa9 	bl	8000580 <RCC_voidInitSysClock>
 800062e:	2102      	movs	r1, #2
 8000630:	2002      	movs	r0, #2
 8000632:	f7ff ffb7 	bl	80005a4 <RCC_voidEnableClock>
 8000636:	2201      	movs	r2, #1
 8000638:	2105      	movs	r1, #5
 800063a:	2002      	movs	r0, #2
 800063c:	f7ff feae 	bl	800039c <GPIO_voidSetPinDirection>
 8000640:	2006      	movs	r0, #6
 8000642:	f7ff ff71 	bl	8000528 <NVIC_voidEnableInterrupt>
 8000646:	2102      	movs	r1, #2
 8000648:	2000      	movs	r0, #0
 800064a:	f7ff fd91 	bl	8000170 <AFIO_voidEXTIConfiguration>
 800064e:	2100      	movs	r1, #0
 8000650:	2000      	movs	r0, #0
 8000652:	f7ff fdcb 	bl	80001ec <EXTI_voidInitLine>
 8000656:	490e      	ldr	r1, [pc, #56]	; (8000690 <main+0x6c>)
 8000658:	2000      	movs	r0, #0
 800065a:	f7ff fe33 	bl	80002c4 <EXTI_voidSetCallBackFCN>
 800065e:	2000      	movs	r0, #0
 8000660:	f7ff fe1a 	bl	8000298 <EXTI_voidEnableEXTI>
 8000664:	4b0a      	ldr	r3, [pc, #40]	; (8000690 <main+0x6c>)
 8000666:	607b      	str	r3, [r7, #4]
 8000668:	687b      	ldr	r3, [r7, #4]
 800066a:	4798      	blx	r3
 800066c:	4b09      	ldr	r3, [pc, #36]	; (8000694 <main+0x70>)
 800066e:	603b      	str	r3, [r7, #0]
 8000670:	683b      	ldr	r3, [r7, #0]
 8000672:	4798      	blx	r3
 8000674:	4b08      	ldr	r3, [pc, #32]	; (8000698 <main+0x74>)
 8000676:	603b      	str	r3, [r7, #0]
 8000678:	683b      	ldr	r3, [r7, #0]
 800067a:	4798      	blx	r3
 800067c:	4b07      	ldr	r3, [pc, #28]	; (800069c <main+0x78>)
 800067e:	781b      	ldrb	r3, [r3, #0]
 8000680:	b2db      	uxtb	r3, r3
 8000682:	2b00      	cmp	r3, #0
 8000684:	d0fa      	beq.n	800067c <main+0x58>
 8000686:	4b05      	ldr	r3, [pc, #20]	; (800069c <main+0x78>)
 8000688:	2200      	movs	r2, #0
 800068a:	701a      	strb	r2, [r3, #0]
 800068c:	e7f6      	b.n	800067c <main+0x58>
 800068e:	bf00      	nop
 8000690:	080006b9 	stmdaeq	r0, {r0, r3, r4, r5, r7, r9, sl}
 8000694:	080006bd 	stmdaeq	r0, {r0, r2, r3, r4, r5, r7, r9, sl}
 8000698:	080006bc 	stmdaeq	r0, {r2, r3, r4, r5, r7, r9, sl}
 800069c:	2000005c 	andcs	r0, r0, ip, asr r0

080006a0 <HardFault_Handler>:
 80006a0:	b480      	push	{r7}
 80006a2:	af00      	add	r7, sp, #0
 80006a4:	4b03      	ldr	r3, [pc, #12]	; (80006b4 <HardFault_Handler+0x14>)
 80006a6:	2201      	movs	r2, #1
 80006a8:	701a      	strb	r2, [r3, #0]
 80006aa:	bf00      	nop
 80006ac:	46bd      	mov	sp, r7
 80006ae:	bc80      	pop	{r7}
 80006b0:	4770      	bx	lr
 80006b2:	bf00      	nop
 80006b4:	2000005c 	andcs	r0, r0, ip, asr r0

080006b8 <EXTI0_Handler>:
 80006b8:	b480      	push	{r7}
 80006ba:	af00      	add	r7, sp, #0
 80006bc:	bf00      	nop
 80006be:	46bd      	mov	sp, r7
 80006c0:	bc80      	pop	{r7}
 80006c2:	4770      	bx	lr

080006c4 <Reset_Handler>:
 80006c4:	480d      	ldr	r0, [pc, #52]	; (80006fc <LoopForever+0x2>)
 80006c6:	4685      	mov	sp, r0
 80006c8:	f3af 8000 	nop.w
 80006cc:	480c      	ldr	r0, [pc, #48]	; (8000700 <LoopForever+0x6>)
 80006ce:	490d      	ldr	r1, [pc, #52]	; (8000704 <LoopForever+0xa>)
 80006d0:	4a0d      	ldr	r2, [pc, #52]	; (8000708 <LoopForever+0xe>)
 80006d2:	2300      	movs	r3, #0
 80006d4:	e002      	b.n	80006dc <LoopCopyDataInit>

080006d6 <CopyDataInit>:
 80006d6:	58d4      	ldr	r4, [r2, r3]
 80006d8:	50c4      	str	r4, [r0, r3]
 80006da:	3304      	adds	r3, #4

080006dc <LoopCopyDataInit>:
 80006dc:	18c4      	adds	r4, r0, r3
 80006de:	428c      	cmp	r4, r1
 80006e0:	d3f9      	bcc.n	80006d6 <CopyDataInit>
 80006e2:	4a0a      	ldr	r2, [pc, #40]	; (800070c <LoopForever+0x12>)
 80006e4:	4c0a      	ldr	r4, [pc, #40]	; (8000710 <LoopForever+0x16>)
 80006e6:	2300      	movs	r3, #0
 80006e8:	e001      	b.n	80006ee <LoopFillZerobss>

080006ea <FillZerobss>:
 80006ea:	6013      	str	r3, [r2, #0]
 80006ec:	3204      	adds	r2, #4

080006ee <LoopFillZerobss>:
 80006ee:	42a2      	cmp	r2, r4
 80006f0:	d3fb      	bcc.n	80006ea <FillZerobss>
 80006f2:	f000 f811 	bl	8000718 <__libc_init_array>
 80006f6:	f7ff ff95 	bl	8000624 <main>

080006fa <LoopForever>:
 80006fa:	e7fe      	b.n	80006fa <LoopForever>
 80006fc:	20002800 	andcs	r2, r0, r0, lsl #16
 8000700:	20000000 	andcs	r0, r0, r0
 8000704:	20000000 	andcs	r0, r0, r0
 8000708:	08000780 	stmdaeq	r0, {r7, r8, r9, sl}
 800070c:	20000000 	andcs	r0, r0, r0
 8000710:	20000060 	andcs	r0, r0, r0, rrx

08000714 <ADC1_2_IRQHandler>:
 8000714:	e7fe      	b.n	8000714 <ADC1_2_IRQHandler>
	...

08000718 <__libc_init_array>:
 8000718:	b570      	push	{r4, r5, r6, lr}
 800071a:	2500      	movs	r5, #0
 800071c:	4e0c      	ldr	r6, [pc, #48]	; (8000750 <__libc_init_array+0x38>)
 800071e:	4c0d      	ldr	r4, [pc, #52]	; (8000754 <__libc_init_array+0x3c>)
 8000720:	1ba4      	subs	r4, r4, r6
 8000722:	10a4      	asrs	r4, r4, #2
 8000724:	42a5      	cmp	r5, r4
 8000726:	d109      	bne.n	800073c <__libc_init_array+0x24>
 8000728:	f000 f81a 	bl	8000760 <_init>
 800072c:	2500      	movs	r5, #0
 800072e:	4e0a      	ldr	r6, [pc, #40]	; (8000758 <__libc_init_array+0x40>)
 8000730:	4c0a      	ldr	r4, [pc, #40]	; (800075c <__libc_init_array+0x44>)
 8000732:	1ba4      	subs	r4, r4, r6
 8000734:	10a4      	asrs	r4, r4, #2
 8000736:	42a5      	cmp	r5, r4
 8000738:	d105      	bne.n	8000746 <__libc_init_array+0x2e>
 800073a:	bd70      	pop	{r4, r5, r6, pc}
 800073c:	f856 3025 	ldr.w	r3, [r6, r5, lsl #2]
 8000740:	4798      	blx	r3
 8000742:	3501      	adds	r5, #1
 8000744:	e7ee      	b.n	8000724 <__libc_init_array+0xc>
 8000746:	f856 3025 	ldr.w	r3, [r6, r5, lsl #2]
 800074a:	4798      	blx	r3
 800074c:	3501      	adds	r5, #1
 800074e:	e7f2      	b.n	8000736 <__libc_init_array+0x1e>
 8000750:	08000778 	stmdaeq	r0, {r3, r4, r5, r6, r8, r9, sl}
 8000754:	08000778 	stmdaeq	r0, {r3, r4, r5, r6, r8, r9, sl}
 8000758:	08000778 	stmdaeq	r0, {r3, r4, r5, r6, r8, r9, sl}
 800075c:	0800077c 	stmdaeq	r0, {r2, r3, r4, r5, r6, r8, r9, sl}

08000760 <_init>:
 8000760:	b5f8      	push	{r3, r4, r5, r6, r7, lr}
 8000762:	bf00      	nop
 8000764:	bcf8      	pop	{r3, r4, r5, r6, r7}
 8000766:	bc08      	pop	{r3}
 8000768:	469e      	mov	lr, r3
 800076a:	4770      	bx	lr

0800076c <_fini>:
 800076c:	b5f8      	push	{r3, r4, r5, r6, r7, lr}
 800076e:	bf00      	nop
 8000770:	bcf8      	pop	{r3, r4, r5, r6, r7}
 8000772:	bc08      	pop	{r3}
 8000774:	469e      	mov	lr, r3
 8000776:	4770      	bx	lr
